
./indirect-test.elf:     file format elf32-littleriscv
./indirect-test.elf

SYMBOL TABLE:
00100000 l    d  .vectors	00000000 .vectors
00100084 l    d  .text	00000000 .text
00105270 l    d  .rodata	00000000 .rodata
00105730 l    d  .data	00000000 .data
00105940 l    d  .bss	00000000 .bss
00130000 l    d  .stack	00000000 .stack
00000000 l    d  .riscv.attributes	00000000 .riscv.attributes
00000000 l    d  .comment	00000000 .comment
00000000 l    d  .debug_line	00000000 .debug_line
00000000 l    d  .debug_info	00000000 .debug_info
00000000 l    d  .debug_abbrev	00000000 .debug_abbrev
00000000 l    d  .debug_aranges	00000000 .debug_aranges
00000000 l    d  .debug_str	00000000 .debug_str
00000000 l    d  .debug_ranges	00000000 .debug_ranges
00000000 l    d  .debug_loc	00000000 .debug_loc
00000000 l    d  .debug_frame	00000000 .debug_frame
00000000 l    df *ABS*	00000000 /tmp/ccuSvMAC.o
00100084 l       .text	00000000 default_exc_handler
00100088 l       .text	00000000 timer_handler
0010008c l       .text	00000000 reset_handler
001000f2 l       .text	00000000 zero_loop_end
001000e8 l       .text	00000000 zero_loop
001000f2 l       .text	00000000 main_entry
00100106 l       .text	00000000 sleep_loop
00000000 l    df *ABS*	00000000 indirect-test.c
00105290 l       .rodata	00000000 .SnowflakeIoT$10000$jtab$005
00105226 l       .text	00000000 .SnowflakeIoT$10002$luihi$foo
0010522c l       .text	00000000 .SnowflakeIoT$10003$addilo$foo
00105236 l       .text	00000000 .SnowflakeIoT$10004$addilo$foo
00105240 l       .text	00000000 .SnowflakeIoT$10005$addilo$foo
00105730 l       .data	00000000 .SnowflakeIoT$10001$globcp$bar
00000000 l    df *ABS*	00000000 libmin_printf.c
001001a2 l     F .text	000001e0 fmtint.constprop.0
00100382 l     F .text	0000021e my_modf.isra.0
001052a4 l       .rodata	00000000 .SnowflakeIoT$20000$jtab$017
001052e8 l       .rodata	00000000 .SnowflakeIoT$20001$jtab$084
00000000 l    df *ABS*	00000000 libmin_success.c
00000000 l    df *ABS*	00000000 libmin_ctype.c
00000000 l    df *ABS*	00000000 libmin_strlen.c
00000000 l    df *ABS*	00000000 libmin_memset.c
00000000 l    df *ABS*	00000000 libmin_memcpy.c
00000000 l    df *ABS*	00000000 libtarg.c
00105940 l     O .bss	00000004 __heap_ptr
00105944 l     O .bss	00008000 __heap
00000000 l    df *ABS*	00000000 adddf3.c
00000000 l    df *ABS*	00000000 eqdf2.c
00000000 l    df *ABS*	00000000 gedf2.c
00000000 l    df *ABS*	00000000 ledf2.c
00000000 l    df *ABS*	00000000 muldf3.c
00000000 l    df *ABS*	00000000 subdf3.c
00000000 l    df *ABS*	00000000 fixdfsi.c
00000000 l    df *ABS*	00000000 floatsidf.c
00000000 l    df *ABS*	00000000 fixdfdi.c
00000000 l    df *ABS*	00000000 floatdidf.c
00000000 l    df *ABS*	00000000 getf2.c
00000000 l    df *ABS*	00000000 letf2.c
00000000 l    df *ABS*	00000000 multf3.c
00000000 l    df *ABS*	00000000 subtf3.c
00000000 l    df *ABS*	00000000 fixtfdi.c
00000000 l    df *ABS*	00000000 floatditf.c
00000000 l    df *ABS*	00000000 extenddftf2.c
00000000 l    df *ABS*	00000000 trunctfdf2.c
00000000 l    df *ABS*	00000000 libgcc2.c
00000000 l    df *ABS*	00000000 libgcc2.c
00000000 l    df *ABS*	00000000 libgcc2.c
00000000 l    df *ABS*	00000000 libgcc2.c
001051b2 g     F .text	0000002a .hidden __ashldi3
00103078 g     F .text	000000f4 .hidden __getf2
00102178 g     F .text	0000006a .hidden __eqdf2f
001018be g     F .text	00000024 .hidden _isctype
00102efc g     F .text	0000017c .hidden __floatdidf
001021e2 g     F .text	000000a6 .hidden __gtdf2
00101aba g     F .text	00000006 .hidden simple_get_mepc
00008000 g       *ABS*	00000000 _stack_len
00101a14 g     F .text	00000090 .hidden libmin_memcpy
00101ab8 g     F .text	00000002 .hidden memcpy
00102dee g     F .text	00000068 .hidden __floatsidf
00102288 g     F .text	000000a6 .hidden __ltdf2
0010316c g     F .text	000000f4 .hidden __letf2
00105940 g       .bss	00000000 _bss_start
001018bc g     F .text	00000002 .hidden libmin_success
00101ac0 g     F .text	00000006 .hidden simple_get_mcause
00101b6e g     F .text	0000060a .hidden __adddf3
00104ce2 g     F .text	0000011a .hidden __floatditf
00101b40 g     F .text	0000002e .hidden libtarg_sbrk
00132000 g       .stack	00000000 stack
00100080 g       *ABS*	00000000 _entry_point
0010d944 g       .bss	00000000 _bss_end
00101aa4 g     F .text	00000008 .hidden simple_putchar
00102d8a g     F .text	00000064 .hidden __fixdfsi
00104bce g     F .text	00000114 .hidden __fixtfdi
00105188 g     F .text	0000002a .hidden __lshrdi3
00102288 g     F .text	000000a6 .hidden __ledf2
001051dc g     F .text	0000003c .hidden __clzsi2
00101acc g     F .text	0000003e .hidden simple_exc_handler
001018fe g     F .text	00000116 .hidden libmin_memset
001000d4 g       .text	00000000 _start
0010316c g     F .text	000000f4 .hidden __lttf2
00104dfc g     F .text	00000150 .hidden __extenddftf2
0010232e g     F .text	00000440 .hidden __muldf3
0010573c g     O .data	00000202 .hidden _ctype
00101ab6 g     F .text	00000002 .hidden memset
00105218 g     F .text	00000052 .hidden main
00101aac g     F .text	0000000a .hidden simple_halt
00101b38 g     F .text	00000008 .hidden libtarg_putc
00100084 g       .vectors	00000000 _vectors_end
00103260 g     F .text	00000b0e .hidden __multf3
00138000 g       .vectors	00000000 _stack_start
00102178 g     F .text	0000006a .hidden __nedf2
001054b0 g     O .rodata	00000100 .hidden __clz_tab
00102e56 g     F .text	000000a6 .hidden __fixdfdi
001018e2 g     F .text	0000001c .hidden libmin_strlen
00105730 g     O .data	00000004 .hidden pbar
00103078 g     F .text	000000f4 .hidden __gttf2
00105738 g     O .data	00000004 .hidden _pctype
00002000 g       *ABS*	00000000 _min_stack
00103d6e g     F .text	00000e60 .hidden __subtf3
0010010c g     F .text	00000006 .hidden foo
00138010 g       *ABS*	00000000 fromhost
00101b0a g     F .text	0000001a .hidden simple_timer_handler
00020008 g       *ABS*	00000000 tohost
00101b2e g     F .text	0000000a .hidden libtarg_fail
00101b24 g     F .text	0000000a .hidden libtarg_success
00105734 g     O .data	00000004 .hidden aglobal
00101ac6 g     F .text	00000006 .hidden simple_get_mtval
00100112 g     F .text	00000090 .hidden bar
001021e2 g     F .text	000000a6 .hidden __gedf2
00132000 g       .stack	00000000 _stack
00100000 g       .vectors	00000000 _vectors_start
001005a0 g     F .text	0000131c .hidden libmin_printf
0010276e g     F .text	0000061c .hidden __subdf3
00104f4c g     F .text	0000023c .hidden __trunctfdf2



Disassembly of section .vectors:

00100000 <_vectors_start>:
  100000:	0840006f          	j	100084 <_vectors_end>
  100004:	0800006f          	j	100084 <_vectors_end>
  100008:	07c0006f          	j	100084 <_vectors_end>
  10000c:	0780006f          	j	100084 <_vectors_end>
  100010:	0740006f          	j	100084 <_vectors_end>
  100014:	0700006f          	j	100084 <_vectors_end>
  100018:	06c0006f          	j	100084 <_vectors_end>
  10001c:	06c0006f          	j	100088 <timer_handler>
  100020:	0640006f          	j	100084 <_vectors_end>
  100024:	0600006f          	j	100084 <_vectors_end>
  100028:	05c0006f          	j	100084 <_vectors_end>
  10002c:	0580006f          	j	100084 <_vectors_end>
  100030:	0540006f          	j	100084 <_vectors_end>
  100034:	0500006f          	j	100084 <_vectors_end>
  100038:	04c0006f          	j	100084 <_vectors_end>
  10003c:	0480006f          	j	100084 <_vectors_end>
  100040:	0440006f          	j	100084 <_vectors_end>
  100044:	0400006f          	j	100084 <_vectors_end>
  100048:	03c0006f          	j	100084 <_vectors_end>
  10004c:	0380006f          	j	100084 <_vectors_end>
  100050:	0340006f          	j	100084 <_vectors_end>
  100054:	0300006f          	j	100084 <_vectors_end>
  100058:	02c0006f          	j	100084 <_vectors_end>
  10005c:	0280006f          	j	100084 <_vectors_end>
  100060:	0240006f          	j	100084 <_vectors_end>
  100064:	0200006f          	j	100084 <_vectors_end>
  100068:	01c0006f          	j	100084 <_vectors_end>
  10006c:	0180006f          	j	100084 <_vectors_end>
  100070:	0140006f          	j	100084 <_vectors_end>
  100074:	0100006f          	j	100084 <_vectors_end>
  100078:	00c0006f          	j	100084 <_vectors_end>
  10007c:	0000                	unimp
  10007e:	0000                	unimp
  100080:	00c0006f          	j	10008c <reset_handler>

Disassembly of section .text:

00100084 <default_exc_handler>:
  100084:	2490106f          	j	101acc <simple_exc_handler>

00100088 <timer_handler>:
  100088:	2830106f          	j	101b0a <simple_timer_handler>

0010008c <reset_handler>:
  10008c:	00000093          	li	ra,0
  100090:	8106                	mv	sp,ra
  100092:	8186                	mv	gp,ra
  100094:	8206                	mv	tp,ra
  100096:	8286                	mv	t0,ra
  100098:	8306                	mv	t1,ra
  10009a:	8386                	mv	t2,ra
  10009c:	8406                	mv	s0,ra
  10009e:	8486                	mv	s1,ra
  1000a0:	8506                	mv	a0,ra
  1000a2:	8586                	mv	a1,ra
  1000a4:	8606                	mv	a2,ra
  1000a6:	8686                	mv	a3,ra
  1000a8:	8706                	mv	a4,ra
  1000aa:	8786                	mv	a5,ra
  1000ac:	8806                	mv	a6,ra
  1000ae:	8886                	mv	a7,ra
  1000b0:	8906                	mv	s2,ra
  1000b2:	8986                	mv	s3,ra
  1000b4:	8a06                	mv	s4,ra
  1000b6:	8a86                	mv	s5,ra
  1000b8:	8b06                	mv	s6,ra
  1000ba:	8b86                	mv	s7,ra
  1000bc:	8c06                	mv	s8,ra
  1000be:	8c86                	mv	s9,ra
  1000c0:	8d06                	mv	s10,ra
  1000c2:	8d86                	mv	s11,ra
  1000c4:	8e06                	mv	t3,ra
  1000c6:	8e86                	mv	t4,ra
  1000c8:	8f06                	mv	t5,ra
  1000ca:	8f86                	mv	t6,ra
  1000cc:	00038117          	auipc	sp,0x38
  1000d0:	f3410113          	addi	sp,sp,-204 # 138000 <_stack_start>

001000d4 <_start>:
  1000d4:	00006d17          	auipc	s10,0x6
  1000d8:	86cd0d13          	addi	s10,s10,-1940 # 105940 <__heap_ptr>
  1000dc:	0000ed97          	auipc	s11,0xe
  1000e0:	868d8d93          	addi	s11,s11,-1944 # 10d944 <_bss_end>
  1000e4:	01bd5763          	bge	s10,s11,1000f2 <main_entry>

001000e8 <zero_loop>:
  1000e8:	000d2023          	sw	zero,0(s10)
  1000ec:	0d11                	addi	s10,s10,4
  1000ee:	ffaddde3          	bge	s11,s10,1000e8 <zero_loop>

001000f2 <main_entry>:
  1000f2:	4501                	li	a0,0
  1000f4:	4581                	li	a1,0
  1000f6:	122050ef          	jal	ra,105218 <main>
  1000fa:	000202b7          	lui	t0,0x20
  1000fe:	02a1                	addi	t0,t0,8
  100100:	4305                	li	t1,1
  100102:	0062a023          	sw	t1,0(t0) # 20000 <_stack_len+0x18000>

00100106 <sleep_loop>:
  100106:	10500073          	wfi
  10010a:	bff5                	j	100106 <sleep_loop>

0010010c <foo>:
  10010c:	02a50533          	mul	a0,a0,a0
  100110:	8082                	ret

00100112 <bar>:
  100112:	1141                	addi	sp,sp,-16
  100114:	c422                	sw	s0,8(sp)
  100116:	00105437          	lui	s0,0x105
  10011a:	87aa                	mv	a5,a0
  10011c:	73442503          	lw	a0,1844(s0) # 105734 <aglobal>
  100120:	c606                	sw	ra,12(sp)
  100122:	9782                	jalr	a5 
  100124:	00757793          	andi	a5,a0,7
  100128:	4711                	li	a4,4
  10012a:	06f76463          	bltu	a4,a5,100192 <bar+0x80>
  10012e:	00105737          	lui	a4,0x105
  100132:	078a                	slli	a5,a5,0x2
  100134:	29070713          	addi	a4,a4,656 # 105290 <.SnowflakeIoT$10000$jtab$005>
  100138:	97ba                	add	a5,a5,a4
  10013a:	439c                	lw	a5,0(a5)
  10013c:	8782                	jr	a5
  10013e:	01f55793          	srli	a5,a0,0x1f
  100142:	953e                	add	a0,a0,a5
  100144:	8505                	srai	a0,a0,0x1
  100146:	40b2                	lw	ra,12(sp)
  100148:	72a42a23          	sw	a0,1844(s0)
  10014c:	4422                	lw	s0,8(sp)
  10014e:	0141                	addi	sp,sp,16
  100150:	8082                	ret
  100152:	01f55793          	srli	a5,a0,0x1f
  100156:	953e                	add	a0,a0,a5
  100158:	8905                	andi	a0,a0,1
  10015a:	8d1d                	sub	a0,a0,a5
  10015c:	40b2                	lw	ra,12(sp)
  10015e:	72a42a23          	sw	a0,1844(s0)
  100162:	4422                	lw	s0,8(sp)
  100164:	0141                	addi	sp,sp,16
  100166:	8082                	ret
  100168:	0505                	addi	a0,a0,1
  10016a:	40b2                	lw	ra,12(sp)
  10016c:	72a42a23          	sw	a0,1844(s0)
  100170:	4422                	lw	s0,8(sp)
  100172:	0141                	addi	sp,sp,16
  100174:	8082                	ret
  100176:	157d                	addi	a0,a0,-1
  100178:	40b2                	lw	ra,12(sp)
  10017a:	72a42a23          	sw	a0,1844(s0)
  10017e:	4422                	lw	s0,8(sp)
  100180:	0141                	addi	sp,sp,16
  100182:	8082                	ret
  100184:	0506                	slli	a0,a0,0x1
  100186:	40b2                	lw	ra,12(sp)
  100188:	72a42a23          	sw	a0,1844(s0)
  10018c:	4422                	lw	s0,8(sp)
  10018e:	0141                	addi	sp,sp,16
  100190:	8082                	ret
  100192:	40a00533          	neg	a0,a0
  100196:	40b2                	lw	ra,12(sp)
  100198:	72a42a23          	sw	a0,1844(s0)
  10019c:	4422                	lw	s0,8(sp)
  10019e:	0141                	addi	sp,sp,16
  1001a0:	8082                	ret

001001a2 <fmtint.constprop.0>:
  1001a2:	7179                	addi	sp,sp,-48
  1001a4:	fff7c893          	not	a7,a5
  1001a8:	41f8d893          	srai	a7,a7,0x1f
  1001ac:	d622                	sw	s0,44(sp)
  1001ae:	04087313          	andi	t1,a6,64
  1001b2:	0117f8b3          	and	a7,a5,a7
  1001b6:	02031163          	bnez	t1,1001d8 <fmtint.constprop.0+0x36>
  1001ba:	1a064163          	bltz	a2,10035c <fmtint.constprop.0+0x1ba>
  1001be:	00287793          	andi	a5,a6,2
  1001c2:	1a079a63          	bnez	a5,100376 <fmtint.constprop.0+0x1d4>
  1001c6:	00487293          	andi	t0,a6,4
  1001ca:	4401                	li	s0,0
  1001cc:	00028863          	beqz	t0,1001dc <fmtint.constprop.0+0x3a>
  1001d0:	4405                	li	s0,1
  1001d2:	02000293          	li	t0,32
  1001d6:	a019                	j	1001dc <fmtint.constprop.0+0x3a>
  1001d8:	4401                	li	s0,0
  1001da:	4281                	li	t0,0
  1001dc:	02087793          	andi	a5,a6,32
  1001e0:	16078363          	beqz	a5,100346 <fmtint.constprop.0+0x1a4>
  1001e4:	00105eb7          	lui	t4,0x105
  1001e8:	5c0e8e93          	addi	t4,t4,1472 # 1055c0 <__clz_tab+0x110>
  1001ec:	4381                	li	t2,0
  1001ee:	00c10f93          	addi	t6,sp,12
  1001f2:	4f51                	li	t5,20
  1001f4:	a019                	j	1001fa <fmtint.constprop.0+0x58>
  1001f6:	17e38e63          	beq	t2,t5,100372 <fmtint.constprop.0+0x1d0>
  1001fa:	02d677b3          	remu	a5,a2,a3
  1001fe:	0385                	addi	t2,t2,1
  100200:	007f8e33          	add	t3,t6,t2
  100204:	8332                	mv	t1,a2
  100206:	97f6                	add	a5,a5,t4
  100208:	0007c783          	lbu	a5,0(a5)
  10020c:	02d65633          	divu	a2,a2,a3
  100210:	fefe0fa3          	sb	a5,-1(t3)
  100214:	fed371e3          	bgeu	t1,a3,1001f6 <fmtint.constprop.0+0x54>
  100218:	47d1                	li	a5,20
  10021a:	14f38c63          	beq	t2,a5,100372 <fmtint.constprop.0+0x1d0>
  10021e:	101c                	addi	a5,sp,32
  100220:	979e                	add	a5,a5,t2
  100222:	fe078623          	sb	zero,-20(a5)
  100226:	87c6                	mv	a5,a7
  100228:	407888b3          	sub	a7,a7,t2
  10022c:	0077d363          	bge	a5,t2,100232 <fmtint.constprop.0+0x90>
  100230:	879e                	mv	a5,t2
  100232:	8f1d                	sub	a4,a4,a5
  100234:	8f01                	sub	a4,a4,s0
  100236:	fff8c693          	not	a3,a7
  10023a:	fff74e13          	not	t3,a4
  10023e:	86fd                	srai	a3,a3,0x1f
  100240:	41fe5e13          	srai	t3,t3,0x1f
  100244:	01087613          	andi	a2,a6,16
  100248:	419c                	lw	a5,0(a1)
  10024a:	00d8f6b3          	and	a3,a7,a3
  10024e:	01c77e33          	and	t3,a4,t3
  100252:	00187813          	andi	a6,a6,1
  100256:	ca55                	beqz	a2,10030a <fmtint.constprop.0+0x168>
  100258:	0fc6cf63          	blt	a3,t3,100356 <fmtint.constprop.0+0x1b4>
  10025c:	4801                	li	a6,0
  10025e:	00028c63          	beqz	t0,100276 <fmtint.constprop.0+0xd4>
  100262:	3ff00713          	li	a4,1023
  100266:	00f76663          	bltu	a4,a5,100272 <fmtint.constprop.0+0xd0>
  10026a:	97aa                	add	a5,a5,a0
  10026c:	00578023          	sb	t0,0(a5)
  100270:	419c                	lw	a5,0(a1)
  100272:	0785                	addi	a5,a5,1
  100274:	c19c                	sw	a5,0(a1)
  100276:	c285                	beqz	a3,100296 <fmtint.constprop.0+0xf4>
  100278:	3ff00613          	li	a2,1023
  10027c:	03000893          	li	a7,48
  100280:	00f50733          	add	a4,a0,a5
  100284:	06f66e63          	bltu	a2,a5,100300 <fmtint.constprop.0+0x15e>
  100288:	01170023          	sb	a7,0(a4)
  10028c:	419c                	lw	a5,0(a1)
  10028e:	16fd                	addi	a3,a3,-1
  100290:	0785                	addi	a5,a5,1
  100292:	c19c                	sw	a5,0(a1)
  100294:	f6f5                	bnez	a3,100280 <fmtint.constprop.0+0xde>
  100296:	007f8733          	add	a4,t6,t2
  10029a:	3ff00613          	li	a2,1023
  10029e:	00f506b3          	add	a3,a0,a5
  1002a2:	04f66963          	bltu	a2,a5,1002f4 <fmtint.constprop.0+0x152>
  1002a6:	fff74783          	lbu	a5,-1(a4)
  1002aa:	177d                	addi	a4,a4,-1
  1002ac:	00f68023          	sb	a5,0(a3)
  1002b0:	419c                	lw	a5,0(a1)
  1002b2:	0785                	addi	a5,a5,1
  1002b4:	c19c                	sw	a5,0(a1)
  1002b6:	feef94e3          	bne	t6,a4,10029e <fmtint.constprop.0+0xfc>
  1002ba:	3ff00693          	li	a3,1023
  1002be:	02000613          	li	a2,32
  1002c2:	00080e63          	beqz	a6,1002de <fmtint.constprop.0+0x13c>
  1002c6:	00f50733          	add	a4,a0,a5
  1002ca:	00f6ed63          	bltu	a3,a5,1002e4 <fmtint.constprop.0+0x142>
  1002ce:	00c70023          	sb	a2,0(a4)
  1002d2:	419c                	lw	a5,0(a1)
  1002d4:	0805                	addi	a6,a6,1
  1002d6:	0785                	addi	a5,a5,1
  1002d8:	c19c                	sw	a5,0(a1)
  1002da:	fe0816e3          	bnez	a6,1002c6 <fmtint.constprop.0+0x124>
  1002de:	5432                	lw	s0,44(sp)
  1002e0:	6145                	addi	sp,sp,48
  1002e2:	8082                	ret
  1002e4:	0785                	addi	a5,a5,1
  1002e6:	c19c                	sw	a5,0(a1)
  1002e8:	0805                	addi	a6,a6,1
  1002ea:	fc081ee3          	bnez	a6,1002c6 <fmtint.constprop.0+0x124>
  1002ee:	5432                	lw	s0,44(sp)
  1002f0:	6145                	addi	sp,sp,48
  1002f2:	8082                	ret
  1002f4:	0785                	addi	a5,a5,1
  1002f6:	c19c                	sw	a5,0(a1)
  1002f8:	177d                	addi	a4,a4,-1
  1002fa:	faef92e3          	bne	t6,a4,10029e <fmtint.constprop.0+0xfc>
  1002fe:	bf75                	j	1002ba <fmtint.constprop.0+0x118>
  100300:	0785                	addi	a5,a5,1
  100302:	c19c                	sw	a5,0(a1)
  100304:	16fd                	addi	a3,a3,-1
  100306:	fead                	bnez	a3,100280 <fmtint.constprop.0+0xde>
  100308:	b779                	j	100296 <fmtint.constprop.0+0xf4>
  10030a:	04081363          	bnez	a6,100350 <fmtint.constprop.0+0x1ae>
  10030e:	8672                	mv	a2,t3
  100310:	3ff00313          	li	t1,1023
  100314:	02000813          	li	a6,32
  100318:	06e05363          	blez	a4,10037e <fmtint.constprop.0+0x1dc>
  10031c:	00f508b3          	add	a7,a0,a5
  100320:	04f36463          	bltu	t1,a5,100368 <fmtint.constprop.0+0x1c6>
  100324:	01088023          	sb	a6,0(a7)
  100328:	419c                	lw	a5,0(a1)
  10032a:	167d                	addi	a2,a2,-1
  10032c:	0785                	addi	a5,a5,1
  10032e:	c19c                	sw	a5,0(a1)
  100330:	f675                	bnez	a2,10031c <fmtint.constprop.0+0x17a>
  100332:	8772                	mv	a4,t3
  100334:	fffe0813          	addi	a6,t3,-1
  100338:	01c04363          	bgtz	t3,10033e <fmtint.constprop.0+0x19c>
  10033c:	4705                	li	a4,1
  10033e:	40e80833          	sub	a6,a6,a4
  100342:	0805                	addi	a6,a6,1
  100344:	bf29                	j	10025e <fmtint.constprop.0+0xbc>
  100346:	00105eb7          	lui	t4,0x105
  10034a:	5d4e8e93          	addi	t4,t4,1492 # 1055d4 <__clz_tab+0x124>
  10034e:	bd79                	j	1001ec <fmtint.constprop.0+0x4a>
  100350:	41c00833          	neg	a6,t3
  100354:	b729                	j	10025e <fmtint.constprop.0+0xbc>
  100356:	86f2                	mv	a3,t3
  100358:	4801                	li	a6,0
  10035a:	b711                	j	10025e <fmtint.constprop.0+0xbc>
  10035c:	40c00633          	neg	a2,a2
  100360:	4405                	li	s0,1
  100362:	02d00293          	li	t0,45
  100366:	bd9d                	j	1001dc <fmtint.constprop.0+0x3a>
  100368:	0785                	addi	a5,a5,1
  10036a:	c19c                	sw	a5,0(a1)
  10036c:	167d                	addi	a2,a2,-1
  10036e:	f65d                	bnez	a2,10031c <fmtint.constprop.0+0x17a>
  100370:	b7c9                	j	100332 <fmtint.constprop.0+0x190>
  100372:	43cd                	li	t2,19
  100374:	b56d                	j	10021e <fmtint.constprop.0+0x7c>
  100376:	4405                	li	s0,1
  100378:	02b00293          	li	t0,43
  10037c:	b585                	j	1001dc <fmtint.constprop.0+0x3a>
  10037e:	8872                	mv	a6,t3
  100380:	bdf9                	j	10025e <fmtint.constprop.0+0xbc>

00100382 <my_modf.isra.0>:
  100382:	7159                	addi	sp,sp,-112
  100384:	001057b7          	lui	a5,0x105
  100388:	c4e2                	sw	s8,72(sp)
  10038a:	c2e6                	sw	s9,68(sp)
  10038c:	2707ac03          	lw	s8,624(a5) # 105270 <.SnowflakeIoT$10005$addilo$foo+0x30>
  100390:	2747ac83          	lw	s9,628(a5)
  100394:	001057b7          	lui	a5,0x105
  100398:	c8da                	sw	s6,80(sp)
  10039a:	c6de                	sw	s7,76(sp)
  10039c:	2787ab03          	lw	s6,632(a5) # 105278 <.SnowflakeIoT$10005$addilo$foo+0x38>
  1003a0:	27c7ab83          	lw	s7,636(a5)
  1003a4:	001057b7          	lui	a5,0x105
  1003a8:	d4a2                	sw	s0,104(sp)
  1003aa:	d2a6                	sw	s1,100(sp)
  1003ac:	ccd2                	sw	s4,88(sp)
  1003ae:	cad6                	sw	s5,84(sp)
  1003b0:	c0ea                	sw	s10,64(sp)
  1003b2:	de6e                	sw	s11,60(sp)
  1003b4:	2807aa03          	lw	s4,640(a5) # 105280 <.SnowflakeIoT$10005$addilo$foo+0x40>
  1003b8:	2847aa83          	lw	s5,644(a5)
  1003bc:	d686                	sw	ra,108(sp)
  1003be:	d0ca                	sw	s2,96(sp)
  1003c0:	cece                	sw	s3,92(sp)
  1003c2:	c82a                	sw	a0,16(sp)
  1003c4:	ca2e                	sw	a1,20(sp)
  1003c6:	c632                	sw	a2,12(sp)
  1003c8:	84aa                	mv	s1,a0
  1003ca:	842e                	mv	s0,a1
  1003cc:	4d01                	li	s10,0
  1003ce:	8de2                	mv	s11,s8
  1003d0:	c066                	sw	s9,0(sp)
  1003d2:	c262                	sw	s8,4(sp)
  1003d4:	c466                	sw	s9,8(sp)
  1003d6:	a035                	j	100402 <my_modf.isra.0+0x80>
  1003d8:	8526                	mv	a0,s1
  1003da:	85a2                	mv	a1,s0
  1003dc:	865a                	mv	a2,s6
  1003de:	86de                	mv	a3,s7
  1003e0:	74f010ef          	jal	ra,10232e <__muldf3>
  1003e4:	84aa                	mv	s1,a0
  1003e6:	842e                	mv	s0,a1
  1003e8:	8562                	mv	a0,s8
  1003ea:	85e6                	mv	a1,s9
  1003ec:	8652                	mv	a2,s4
  1003ee:	86d6                	mv	a3,s5
  1003f0:	73f010ef          	jal	ra,10232e <__muldf3>
  1003f4:	0d05                	addi	s10,s10,1
  1003f6:	06400793          	li	a5,100
  1003fa:	8c2a                	mv	s8,a0
  1003fc:	8cae                	mv	s9,a1
  1003fe:	06fd0d63          	beq	s10,a5,100478 <my_modf.isra.0+0xf6>
  100402:	85a2                	mv	a1,s0
  100404:	8526                	mv	a0,s1
  100406:	185020ef          	jal	ra,102d8a <__fixdfsi>
  10040a:	1e5020ef          	jal	ra,102dee <__floatsidf>
  10040e:	4682                	lw	a3,0(sp)
  100410:	892a                	mv	s2,a0
  100412:	89ae                	mv	s3,a1
  100414:	866e                	mv	a2,s11
  100416:	8526                	mv	a0,s1
  100418:	85a2                	mv	a1,s0
  10041a:	754010ef          	jal	ra,101b6e <__adddf3>
  10041e:	862a                	mv	a2,a0
  100420:	86ae                	mv	a3,a1
  100422:	854a                	mv	a0,s2
  100424:	85ce                	mv	a1,s3
  100426:	663010ef          	jal	ra,102288 <__ledf2>
  10042a:	87aa                	mv	a5,a0
  10042c:	4612                	lw	a2,4(sp)
  10042e:	46a2                	lw	a3,8(sp)
  100430:	8526                	mv	a0,s1
  100432:	85a2                	mv	a1,s0
  100434:	faf042e3          	bgtz	a5,1003d8 <my_modf.isra.0+0x56>
  100438:	336020ef          	jal	ra,10276e <__subdf3>
  10043c:	862a                	mv	a2,a0
  10043e:	86ae                	mv	a3,a1
  100440:	854a                	mv	a0,s2
  100442:	85ce                	mv	a1,s3
  100444:	59f010ef          	jal	ra,1021e2 <__gedf2>
  100448:	f80548e3          	bltz	a0,1003d8 <my_modf.isra.0+0x56>
  10044c:	020d1c63          	bnez	s10,100484 <my_modf.isra.0+0x102>
  100450:	46b2                	lw	a3,12(sp)
  100452:	0126a023          	sw	s2,0(a3)
  100456:	0136a223          	sw	s3,4(a3)
  10045a:	50b6                	lw	ra,108(sp)
  10045c:	5426                	lw	s0,104(sp)
  10045e:	5496                	lw	s1,100(sp)
  100460:	5906                	lw	s2,96(sp)
  100462:	49f6                	lw	s3,92(sp)
  100464:	4a66                	lw	s4,88(sp)
  100466:	4ad6                	lw	s5,84(sp)
  100468:	4b46                	lw	s6,80(sp)
  10046a:	4bb6                	lw	s7,76(sp)
  10046c:	4c26                	lw	s8,72(sp)
  10046e:	4c96                	lw	s9,68(sp)
  100470:	4d06                	lw	s10,64(sp)
  100472:	5df2                	lw	s11,60(sp)
  100474:	6165                	addi	sp,sp,112
  100476:	8082                	ret
  100478:	47b2                	lw	a5,12(sp)
  10047a:	0007a023          	sw	zero,0(a5)
  10047e:	0007a223          	sw	zero,4(a5)
  100482:	bfe1                	j	10045a <my_modf.isra.0+0xd8>
  100484:	8662                	mv	a2,s8
  100486:	86e6                	mv	a3,s9
  100488:	854a                	mv	a0,s2
  10048a:	85ce                	mv	a1,s3
  10048c:	6a3010ef          	jal	ra,10232e <__muldf3>
  100490:	87ae                	mv	a5,a1
  100492:	872a                	mv	a4,a0
  100494:	cc2a                	sw	a0,24(sp)
  100496:	ce2e                	sw	a1,28(sp)
  100498:	4542                	lw	a0,16(sp)
  10049a:	45d2                	lw	a1,20(sp)
  10049c:	86be                	mv	a3,a5
  10049e:	863a                	mv	a2,a4
  1004a0:	2ce020ef          	jal	ra,10276e <__subdf3>
  1004a4:	001057b7          	lui	a5,0x105
  1004a8:	2707ac03          	lw	s8,624(a5) # 105270 <.SnowflakeIoT$10005$addilo$foo+0x30>
  1004ac:	2747ac83          	lw	s9,628(a5)
  1004b0:	001057b7          	lui	a5,0x105
  1004b4:	2787ab03          	lw	s6,632(a5) # 105278 <.SnowflakeIoT$10005$addilo$foo+0x38>
  1004b8:	27c7ab83          	lw	s7,636(a5)
  1004bc:	001057b7          	lui	a5,0x105
  1004c0:	2807aa03          	lw	s4,640(a5) # 105280 <.SnowflakeIoT$10005$addilo$foo+0x40>
  1004c4:	2847aa83          	lw	s5,644(a5)
  1004c8:	c82a                	sw	a0,16(sp)
  1004ca:	ca2e                	sw	a1,20(sp)
  1004cc:	84aa                	mv	s1,a0
  1004ce:	842e                	mv	s0,a1
  1004d0:	4d01                	li	s10,0
  1004d2:	8de2                	mv	s11,s8
  1004d4:	c066                	sw	s9,0(sp)
  1004d6:	c262                	sw	s8,4(sp)
  1004d8:	c466                	sw	s9,8(sp)
  1004da:	a035                	j	100506 <my_modf.isra.0+0x184>
  1004dc:	8526                	mv	a0,s1
  1004de:	85a2                	mv	a1,s0
  1004e0:	865a                	mv	a2,s6
  1004e2:	86de                	mv	a3,s7
  1004e4:	64b010ef          	jal	ra,10232e <__muldf3>
  1004e8:	84aa                	mv	s1,a0
  1004ea:	842e                	mv	s0,a1
  1004ec:	8562                	mv	a0,s8
  1004ee:	85e6                	mv	a1,s9
  1004f0:	8652                	mv	a2,s4
  1004f2:	86d6                	mv	a3,s5
  1004f4:	63b010ef          	jal	ra,10232e <__muldf3>
  1004f8:	0d05                	addi	s10,s10,1
  1004fa:	06400793          	li	a5,100
  1004fe:	8c2a                	mv	s8,a0
  100500:	8cae                	mv	s9,a1
  100502:	06fd0363          	beq	s10,a5,100568 <my_modf.isra.0+0x1e6>
  100506:	85a2                	mv	a1,s0
  100508:	8526                	mv	a0,s1
  10050a:	081020ef          	jal	ra,102d8a <__fixdfsi>
  10050e:	0e1020ef          	jal	ra,102dee <__floatsidf>
  100512:	4682                	lw	a3,0(sp)
  100514:	892a                	mv	s2,a0
  100516:	89ae                	mv	s3,a1
  100518:	866e                	mv	a2,s11
  10051a:	8526                	mv	a0,s1
  10051c:	85a2                	mv	a1,s0
  10051e:	650010ef          	jal	ra,101b6e <__adddf3>
  100522:	862a                	mv	a2,a0
  100524:	86ae                	mv	a3,a1
  100526:	854a                	mv	a0,s2
  100528:	85ce                	mv	a1,s3
  10052a:	55f010ef          	jal	ra,102288 <__ledf2>
  10052e:	87aa                	mv	a5,a0
  100530:	4612                	lw	a2,4(sp)
  100532:	46a2                	lw	a3,8(sp)
  100534:	8526                	mv	a0,s1
  100536:	85a2                	mv	a1,s0
  100538:	faf042e3          	bgtz	a5,1004dc <my_modf.isra.0+0x15a>
  10053c:	232020ef          	jal	ra,10276e <__subdf3>
  100540:	862a                	mv	a2,a0
  100542:	86ae                	mv	a3,a1
  100544:	854a                	mv	a0,s2
  100546:	85ce                	mv	a1,s3
  100548:	49b010ef          	jal	ra,1021e2 <__gedf2>
  10054c:	f80548e3          	bltz	a0,1004dc <my_modf.isra.0+0x15a>
  100550:	000d1f63          	bnez	s10,10056e <my_modf.isra.0+0x1ec>
  100554:	4562                	lw	a0,24(sp)
  100556:	45f2                	lw	a1,28(sp)
  100558:	864a                	mv	a2,s2
  10055a:	86ce                	mv	a3,s3
  10055c:	612010ef          	jal	ra,101b6e <__adddf3>
  100560:	47b2                	lw	a5,12(sp)
  100562:	c388                	sw	a0,0(a5)
  100564:	c3cc                	sw	a1,4(a5)
  100566:	bdd5                	j	10045a <my_modf.isra.0+0xd8>
  100568:	4901                	li	s2,0
  10056a:	4981                	li	s3,0
  10056c:	b7e5                	j	100554 <my_modf.isra.0+0x1d2>
  10056e:	8662                	mv	a2,s8
  100570:	854a                	mv	a0,s2
  100572:	85ce                	mv	a1,s3
  100574:	86e6                	mv	a3,s9
  100576:	5b9010ef          	jal	ra,10232e <__muldf3>
  10057a:	84aa                	mv	s1,a0
  10057c:	842e                	mv	s0,a1
  10057e:	4542                	lw	a0,16(sp)
  100580:	45d2                	lw	a1,20(sp)
  100582:	86a2                	mv	a3,s0
  100584:	8626                	mv	a2,s1
  100586:	1e8020ef          	jal	ra,10276e <__subdf3>
  10058a:	1030                	addi	a2,sp,40
  10058c:	3bdd                	jal	100382 <my_modf.isra.0>
  10058e:	5622                	lw	a2,40(sp)
  100590:	56b2                	lw	a3,44(sp)
  100592:	8526                	mv	a0,s1
  100594:	85a2                	mv	a1,s0
  100596:	5d8010ef          	jal	ra,101b6e <__adddf3>
  10059a:	892a                	mv	s2,a0
  10059c:	89ae                	mv	s3,a1
  10059e:	bf5d                	j	100554 <my_modf.isra.0+0x1d2>

001005a0 <libmin_printf>:
  1005a0:	89010113          	addi	sp,sp,-1904
  1005a4:	74112623          	sw	ra,1868(sp)
  1005a8:	74812423          	sw	s0,1864(sp)
  1005ac:	74912223          	sw	s1,1860(sp)
  1005b0:	75212023          	sw	s2,1856(sp)
  1005b4:	73312e23          	sw	s3,1852(sp)
  1005b8:	73412c23          	sw	s4,1848(sp)
  1005bc:	73512a23          	sw	s5,1844(sp)
  1005c0:	73612823          	sw	s6,1840(sp)
  1005c4:	73712623          	sw	s7,1836(sp)
  1005c8:	73812423          	sw	s8,1832(sp)
  1005cc:	73912223          	sw	s9,1828(sp)
  1005d0:	73a12023          	sw	s10,1824(sp)
  1005d4:	71b12e23          	sw	s11,1820(sp)
  1005d8:	00054e03          	lbu	t3,0(a0)
  1005dc:	75410313          	addi	t1,sp,1876
  1005e0:	76f12223          	sw	a5,1892(sp)
  1005e4:	74b12a23          	sw	a1,1876(sp)
  1005e8:	74c12c23          	sw	a2,1880(sp)
  1005ec:	74d12e23          	sw	a3,1884(sp)
  1005f0:	76e12023          	sw	a4,1888(sp)
  1005f4:	77012423          	sw	a6,1896(sp)
  1005f8:	77112623          	sw	a7,1900(sp)
  1005fc:	c51a                	sw	t1,136(sp)
  1005fe:	c702                	sw	zero,140(sp)
  100600:	4781                	li	a5,0
  100602:	060e1a63          	bnez	t3,100676 <libmin_printf+0xd6>
  100606:	873e                	mv	a4,a5
  100608:	3fe00793          	li	a5,1022
  10060c:	00e7e763          	bltu	a5,a4,10061a <libmin_printf+0x7a>
  100610:	71010793          	addi	a5,sp,1808
  100614:	973e                	add	a4,a4,a5
  100616:	c0070023          	sb	zero,-1024(a4)
  10061a:	31014503          	lbu	a0,784(sp)
  10061e:	700107a3          	sb	zero,1807(sp)
  100622:	cd59                	beqz	a0,1006c0 <libmin_printf+0x120>
  100624:	0e00                	addi	s0,sp,784
  100626:	4485                	li	s1,1
  100628:	8c81                	sub	s1,s1,s0
  10062a:	50e010ef          	jal	ra,101b38 <libtarg_putc>
  10062e:	00144503          	lbu	a0,1(s0)
  100632:	009407b3          	add	a5,s0,s1
  100636:	0405                	addi	s0,s0,1
  100638:	f96d                	bnez	a0,10062a <libmin_printf+0x8a>
  10063a:	74c12083          	lw	ra,1868(sp)
  10063e:	74812403          	lw	s0,1864(sp)
  100642:	74412483          	lw	s1,1860(sp)
  100646:	74012903          	lw	s2,1856(sp)
  10064a:	73c12983          	lw	s3,1852(sp)
  10064e:	73812a03          	lw	s4,1848(sp)
  100652:	73412a83          	lw	s5,1844(sp)
  100656:	73012b03          	lw	s6,1840(sp)
  10065a:	72c12b83          	lw	s7,1836(sp)
  10065e:	72812c03          	lw	s8,1832(sp)
  100662:	72412c83          	lw	s9,1828(sp)
  100666:	72012d03          	lw	s10,1824(sp)
  10066a:	71c12d83          	lw	s11,1820(sp)
  10066e:	853e                	mv	a0,a5
  100670:	77010113          	addi	sp,sp,1904
  100674:	8082                	ret
  100676:	001057b7          	lui	a5,0x105
  10067a:	27c7a803          	lw	a6,636(a5) # 10527c <.SnowflakeIoT$10005$addilo$foo+0x3c>
  10067e:	2787a783          	lw	a5,632(a5)
  100682:	00150493          	addi	s1,a0,1
  100686:	c242                	sw	a6,4(sp)
  100688:	c03e                	sw	a5,0(sp)
  10068a:	31010b93          	addi	s7,sp,784
  10068e:	4781                	li	a5,0
  100690:	8c9a                	mv	s9,t1
  100692:	00fb86b3          	add	a3,s7,a5
  100696:	873e                	mv	a4,a5
  100698:	4501                	li	a0,0
  10069a:	02500613          	li	a2,37
  10069e:	3ff00593          	li	a1,1023
  1006a2:	02ce0a63          	beq	t3,a2,1006d6 <libmin_printf+0x136>
  1006a6:	00e5ef63          	bltu	a1,a4,1006c4 <libmin_printf+0x124>
  1006aa:	0485                	addi	s1,s1,1
  1006ac:	01c68023          	sb	t3,0(a3)
  1006b0:	fff4ce03          	lbu	t3,-1(s1)
  1006b4:	0705                	addi	a4,a4,1
  1006b6:	0685                	addi	a3,a3,1
  1006b8:	f40e08e3          	beqz	t3,100608 <libmin_printf+0x68>
  1006bc:	4505                	li	a0,1
  1006be:	b7d5                	j	1006a2 <libmin_printf+0x102>
  1006c0:	4781                	li	a5,0
  1006c2:	bfa5                	j	10063a <libmin_printf+0x9a>
  1006c4:	0004ce03          	lbu	t3,0(s1)
  1006c8:	0705                	addi	a4,a4,1
  1006ca:	0485                	addi	s1,s1,1
  1006cc:	0685                	addi	a3,a3,1
  1006ce:	f20e0de3          	beqz	t3,100608 <libmin_printf+0x68>
  1006d2:	4505                	li	a0,1
  1006d4:	b7f9                	j	1006a2 <libmin_printf+0x102>
  1006d6:	3c0503e3          	beqz	a0,10129c <libmin_printf+0xcfc>
  1006da:	c73a                	sw	a4,140(sp)
  1006dc:	0004c783          	lbu	a5,0(s1)
  1006e0:	d785                	beqz	a5,100608 <libmin_printf+0x68>
  1006e2:	00105737          	lui	a4,0x105
  1006e6:	00148d93          	addi	s11,s1,1
  1006ea:	4981                	li	s3,0
  1006ec:	4641                	li	a2,16
  1006ee:	2a470693          	addi	a3,a4,676 # 1052a4 <.SnowflakeIoT$20000$jtab$017>
  1006f2:	fe078713          	addi	a4,a5,-32
  1006f6:	0ff77713          	andi	a4,a4,255
  1006fa:	00e66663          	bltu	a2,a4,100706 <libmin_printf+0x166>
  1006fe:	070a                	slli	a4,a4,0x2
  100700:	9736                	add	a4,a4,a3
  100702:	4318                	lw	a4,0(a4)
  100704:	8702                	jr	a4
  100706:	4901                	li	s2,0
  100708:	001056b7          	lui	a3,0x105
  10070c:	7386a703          	lw	a4,1848(a3) # 105738 <_pctype>
  100710:	00179613          	slli	a2,a5,0x1
  100714:	9732                	add	a4,a4,a2
  100716:	00075703          	lhu	a4,0(a4)
  10071a:	8b11                	andi	a4,a4,4
  10071c:	c73d                	beqz	a4,10078a <libmin_printf+0x1ea>
  10071e:	00291713          	slli	a4,s2,0x2
  100722:	fd078613          	addi	a2,a5,-48
  100726:	000dc783          	lbu	a5,0(s11)
  10072a:	974a                	add	a4,a4,s2
  10072c:	0706                	slli	a4,a4,0x1
  10072e:	00e60933          	add	s2,a2,a4
  100732:	0d85                	addi	s11,s11,1
  100734:	ffe1                	bnez	a5,10070c <libmin_printf+0x16c>
  100736:	47ba                	lw	a5,140(sp)
  100738:	b5f9                	j	100606 <libmin_printf+0x66>
  10073a:	000dc783          	lbu	a5,0(s11)
  10073e:	0109e993          	ori	s3,s3,16
  100742:	0d85                	addi	s11,s11,1
  100744:	f7dd                	bnez	a5,1006f2 <libmin_printf+0x152>
  100746:	47ba                	lw	a5,140(sp)
  100748:	bd7d                	j	100606 <libmin_printf+0x66>
  10074a:	000dc783          	lbu	a5,0(s11)
  10074e:	0019e993          	ori	s3,s3,1
  100752:	0d85                	addi	s11,s11,1
  100754:	ffd9                	bnez	a5,1006f2 <libmin_printf+0x152>
  100756:	47ba                	lw	a5,140(sp)
  100758:	b57d                	j	100606 <libmin_printf+0x66>
  10075a:	000dc783          	lbu	a5,0(s11)
  10075e:	0029e993          	ori	s3,s3,2
  100762:	0d85                	addi	s11,s11,1
  100764:	f7d9                	bnez	a5,1006f2 <libmin_printf+0x152>
  100766:	47ba                	lw	a5,140(sp)
  100768:	bd79                	j	100606 <libmin_printf+0x66>
  10076a:	000dc783          	lbu	a5,0(s11)
  10076e:	0089e993          	ori	s3,s3,8
  100772:	0d85                	addi	s11,s11,1
  100774:	ffbd                	bnez	a5,1006f2 <libmin_printf+0x152>
  100776:	47ba                	lw	a5,140(sp)
  100778:	b579                	j	100606 <libmin_printf+0x66>
  10077a:	000dc783          	lbu	a5,0(s11)
  10077e:	0049e993          	ori	s3,s3,4
  100782:	0d85                	addi	s11,s11,1
  100784:	f7bd                	bnez	a5,1006f2 <libmin_printf+0x152>
  100786:	47ba                	lw	a5,140(sp)
  100788:	bdbd                	j	100606 <libmin_printf+0x66>
  10078a:	02a00713          	li	a4,42
  10078e:	2ee789e3          	beq	a5,a4,101280 <libmin_printf+0xce0>
  100792:	02e00713          	li	a4,46
  100796:	547d                	li	s0,-1
  100798:	24e782e3          	beq	a5,a4,1011dc <libmin_printf+0xc3c>
  10079c:	06800713          	li	a4,104
  1007a0:	2ae78ce3          	beq	a5,a4,101258 <libmin_printf+0xcb8>
  1007a4:	06c00713          	li	a4,108
  1007a8:	28e78ee3          	beq	a5,a4,101244 <libmin_printf+0xca4>
  1007ac:	04c00713          	li	a4,76
  1007b0:	2ae78ee3          	beq	a5,a4,10126c <libmin_printf+0xccc>
  1007b4:	4701                	li	a4,0
  1007b6:	fdb78793          	addi	a5,a5,-37
  1007ba:	0ff7f793          	andi	a5,a5,255
  1007be:	05300693          	li	a3,83
  1007c2:	001d8493          	addi	s1,s11,1
  1007c6:	04f6e063          	bltu	a3,a5,100806 <libmin_printf+0x266>
  1007ca:	001056b7          	lui	a3,0x105
  1007ce:	078a                	slli	a5,a5,0x2
  1007d0:	2e868693          	addi	a3,a3,744 # 1052e8 <.SnowflakeIoT$20001$jtab$084>
  1007d4:	97b6                	add	a5,a5,a3
  1007d6:	439c                	lw	a5,0(a5)
  1007d8:	8782                	jr	a5
  1007da:	0209e993          	ori	s3,s3,32
  1007de:	4785                	li	a5,1
  1007e0:	0409e813          	ori	a6,s3,64
  1007e4:	00f70863          	beq	a4,a5,1007f4 <libmin_printf+0x254>
  1007e8:	4789                	li	a5,2
  1007ea:	00f70563          	beq	a4,a5,1007f4 <libmin_printf+0x254>
  1007ee:	4791                	li	a5,4
  1007f0:	46f70de3          	beq	a4,a5,10146a <libmin_printf+0xeca>
  1007f4:	000ca603          	lw	a2,0(s9)
  1007f8:	0c91                	addi	s9,s9,4
  1007fa:	87a2                	mv	a5,s0
  1007fc:	874a                	mv	a4,s2
  1007fe:	46c1                	li	a3,16
  100800:	016c                	addi	a1,sp,140
  100802:	855e                	mv	a0,s7
  100804:	3a79                	jal	1001a2 <fmtint.constprop.0> // return address ra ?
  100806:	47ba                	lw	a5,140(sp)
  100808:	000dce03          	lbu	t3,0(s11)
  10080c:	de0e0de3          	beqz	t3,100606 <libmin_printf+0x66>
  100810:	b549                	j	100692 <libmin_printf+0xf2>
  100812:	478d                	li	a5,3
  100814:	2af701e3          	beq	a4,a5,1012b6 <libmin_printf+0xd16>
  100818:	007c8313          	addi	t1,s9,7
  10081c:	ff837313          	andi	t1,t1,-8
  100820:	47ba                	lw	a5,140(sp)
  100822:	00830c93          	addi	s9,t1,8
  100826:	b7cd                	j	100808 <libmin_printf+0x268>
  100828:	4785                	li	a5,1
  10082a:	00f70863          	beq	a4,a5,10083a <libmin_printf+0x29a>
  10082e:	4789                	li	a5,2
  100830:	00f70563          	beq	a4,a5,10083a <libmin_printf+0x29a>
  100834:	4791                	li	a5,4
  100836:	44f704e3          	beq	a4,a5,10147e <libmin_printf+0xede>
  10083a:	000ca603          	lw	a2,0(s9)
  10083e:	0c91                	addi	s9,s9,4
  100840:	884e                	mv	a6,s3
  100842:	87a2                	mv	a5,s0
  100844:	874a                	mv	a4,s2
  100846:	46a9                	li	a3,10
  100848:	016c                	addi	a1,sp,140
  10084a:	855e                	mv	a0,s7
  10084c:	3a99                	jal	1001a2 <fmtint.constprop.0>
  10084e:	bf65                	j	100806 <libmin_printf+0x266>
  100850:	47ba                	lw	a5,140(sp)
  100852:	3ff00713          	li	a4,1023
  100856:	00f76963          	bltu	a4,a5,100868 <libmin_printf+0x2c8>
  10085a:	71010713          	addi	a4,sp,1808
  10085e:	02500693          	li	a3,37
  100862:	973e                	add	a4,a4,a5
  100864:	c0d70023          	sb	a3,-1024(a4)
  100868:	0785                	addi	a5,a5,1
  10086a:	c73e                	sw	a5,140(sp)
  10086c:	bf71                	j	100808 <libmin_printf+0x268>
  10086e:	4605                	li	a2,1
  100870:	47ba                	lw	a5,140(sp)
  100872:	004c8693          	addi	a3,s9,4
  100876:	3cc701e3          	beq	a4,a2,101438 <libmin_printf+0xe98>
  10087a:	4609                	li	a2,2
  10087c:	3ac708e3          	beq	a4,a2,10142c <libmin_printf+0xe8c>
  100880:	4611                	li	a2,4
  100882:	3cc702e3          	beq	a4,a2,101446 <libmin_printf+0xea6>
  100886:	000ca703          	lw	a4,0(s9)
  10088a:	8cb6                	mv	s9,a3
  10088c:	c31c                	sw	a5,0(a4)
  10088e:	47ba                	lw	a5,140(sp)
  100890:	bfa5                	j	100808 <libmin_printf+0x268>
  100892:	478d                	li	a5,3
  100894:	36f70ee3          	beq	a4,a5,101410 <libmin_printf+0xe70>
  100898:	007c8313          	addi	t1,s9,7
  10089c:	ff837313          	andi	t1,t1,-8
  1008a0:	00032583          	lw	a1,0(t1)
  1008a4:	00432603          	lw	a2,4(t1)
  1008a8:	07010c13          	addi	s8,sp,112
  1008ac:	8562                	mv	a0,s8
  1008ae:	00830c93          	addi	s9,t1,8
  1008b2:	54a040ef          	jal	ra,104dfc <__extenddftf2>
  1008b6:	5756                	lw	a4,116(sp)
  1008b8:	5d46                	lw	s10,112(sp)
  1008ba:	5b66                	lw	s6,120(sp)
  1008bc:	5af6                	lw	s5,124(sp)
  1008be:	240445e3          	bltz	s0,101308 <libmin_printf+0xd68>
  1008c2:	47c1                	li	a5,16
  1008c4:	8a22                	mv	s4,s0
  1008c6:	0087d363          	bge	a5,s0,1008cc <libmin_printf+0x32c>
  1008ca:	4a41                	li	s4,16
  1008cc:	108c                	addi	a1,sp,96
  1008ce:	8562                	mv	a0,s8
  1008d0:	daba                	sw	a4,116(sp)
  1008d2:	c43a                	sw	a4,8(sp)
  1008d4:	d8ea                	sw	s10,112(sp)
  1008d6:	dcda                	sw	s6,120(sp)
  1008d8:	ded6                	sw	s5,124(sp)
  1008da:	d082                	sw	zero,96(sp)
  1008dc:	d282                	sw	zero,100(sp)
  1008de:	d482                	sw	zero,104(sp)
  1008e0:	d682                	sw	zero,108(sp)
  1008e2:	08b020ef          	jal	ra,10316c <__letf2>
  1008e6:	4722                	lw	a4,8(sp)
  1008e8:	220547e3          	bltz	a0,101316 <libmin_printf+0xd76>
  1008ec:	8562                	mv	a0,s8
  1008ee:	daba                	sw	a4,116(sp)
  1008f0:	d8ea                	sw	s10,112(sp)
  1008f2:	dcda                	sw	s6,120(sp)
  1008f4:	ded6                	sw	s5,124(sp)
  1008f6:	656040ef          	jal	ra,104f4c <__trunctfdf2>
  1008fa:	0029f793          	andi	a5,s3,2
  1008fe:	872a                	mv	a4,a0
  100900:	882e                	mv	a6,a1
  100902:	2e0792e3          	bnez	a5,1013e6 <libmin_printf+0xe46>
  100906:	0049f793          	andi	a5,s3,4
  10090a:	cc3e                	sw	a5,24(sp)
  10090c:	ce02                	sw	zero,28(sp)
  10090e:	c791                	beqz	a5,10091a <libmin_printf+0x37a>
  100910:	4785                	li	a5,1
  100912:	ce3e                	sw	a5,28(sp)
  100914:	02000793          	li	a5,32
  100918:	cc3e                	sw	a5,24(sp)
  10091a:	853a                	mv	a0,a4
  10091c:	85c2                	mv	a1,a6
  10091e:	0910                	addi	a2,sp,144
  100920:	c83a                	sw	a4,16(sp)
  100922:	c442                	sw	a6,8(sp)
  100924:	3cb9                	jal	100382 <my_modf.isra.0>
  100926:	4822                	lw	a6,8(sp)
  100928:	4742                	lw	a4,16(sp)
  10092a:	400402e3          	beqz	s0,10152e <libmin_printf+0xf8e>
  10092e:	fffa0793          	addi	a5,s4,-1
  100932:	d23e                	sw	a5,36(sp)
  100934:	3e0788e3          	beqz	a5,101524 <libmin_printf+0xf84>
  100938:	ffea0793          	addi	a5,s4,-2
  10093c:	3c078fe3          	beqz	a5,10151a <libmin_printf+0xf7a>
  100940:	ffda0793          	addi	a5,s4,-3
  100944:	3c0784e3          	beqz	a5,10150c <libmin_printf+0xf6c>
  100948:	ffca0793          	addi	a5,s4,-4
  10094c:	520788e3          	beqz	a5,10167c <libmin_printf+0x10dc>
  100950:	ffba0793          	addi	a5,s4,-5
  100954:	50078de3          	beqz	a5,10166e <libmin_printf+0x10ce>
  100958:	ffaa0793          	addi	a5,s4,-6
  10095c:	500782e3          	beqz	a5,101660 <libmin_printf+0x10c0>
  100960:	ff9a0793          	addi	a5,s4,-7
  100964:	4e0787e3          	beqz	a5,101652 <libmin_printf+0x10b2>
  100968:	ff8a0793          	addi	a5,s4,-8
  10096c:	520787e3          	beqz	a5,10169a <libmin_printf+0x10fa>
  100970:	ff7a0793          	addi	a5,s4,-9
  100974:	50078be3          	beqz	a5,10168a <libmin_printf+0x10ea>
  100978:	ff6a0793          	addi	a5,s4,-10
  10097c:	520787e3          	beqz	a5,1016aa <libmin_printf+0x110a>
  100980:	ff5a0793          	addi	a5,s4,-11
  100984:	4a078fe3          	beqz	a5,101642 <libmin_printf+0x10a2>
  100988:	ff4a0793          	addi	a5,s4,-12
  10098c:	5c078ee3          	beqz	a5,101768 <libmin_printf+0x11c8>
  100990:	ff3a0793          	addi	a5,s4,-13
  100994:	5c0782e3          	beqz	a5,101758 <libmin_printf+0x11b8>
  100998:	ff2a0793          	addi	a5,s4,-14
  10099c:	5a0786e3          	beqz	a5,101748 <libmin_printf+0x11a8>
  1009a0:	4685                	li	a3,1
  1009a2:	58d78be3          	beq	a5,a3,101738 <libmin_printf+0x1198>
  1009a6:	001056b7          	lui	a3,0x105
  1009aa:	5f86a783          	lw	a5,1528(a3) # 1055f8 <__clz_tab+0x148>
  1009ae:	5fc6ad03          	lw	s10,1532(a3)
  1009b2:	4b5a                	lw	s6,148(sp)
  1009b4:	4aca                	lw	s5,144(sp)
  1009b6:	85c2                	mv	a1,a6
  1009b8:	86da                	mv	a3,s6
  1009ba:	853a                	mv	a0,a4
  1009bc:	8656                	mv	a2,s5
  1009be:	c43e                	sw	a5,8(sp)
  1009c0:	5af010ef          	jal	ra,10276e <__subdf3>
  1009c4:	862e                	mv	a2,a1
  1009c6:	85aa                	mv	a1,a0
  1009c8:	8562                	mv	a0,s8
  1009ca:	432040ef          	jal	ra,104dfc <__extenddftf2>
  1009ce:	5746                	lw	a4,112(sp)
  1009d0:	089c                	addi	a5,sp,80
  1009d2:	85be                	mv	a1,a5
  1009d4:	c8ba                	sw	a4,80(sp)
  1009d6:	5756                	lw	a4,116(sp)
  1009d8:	d03e                	sw	a5,32(sp)
  1009da:	47a2                	lw	a5,8(sp)
  1009dc:	caba                	sw	a4,84(sp)
  1009de:	5766                	lw	a4,120(sp)
  1009e0:	0090                	addi	a2,sp,64
  1009e2:	1088                	addi	a0,sp,96
  1009e4:	ccba                	sw	a4,88(sp)
  1009e6:	5776                	lw	a4,124(sp)
  1009e8:	c4be                	sw	a5,72(sp)
  1009ea:	c6ea                	sw	s10,76(sp)
  1009ec:	ceba                	sw	a4,92(sp)
  1009ee:	c082                	sw	zero,64(sp)
  1009f0:	c282                	sw	zero,68(sp)
  1009f2:	06f020ef          	jal	ra,103260 <__multf3>
  1009f6:	5e06                	lw	t3,96(sp)
  1009f8:	5816                	lw	a6,100(sp)
  1009fa:	56a6                	lw	a3,104(sp)
  1009fc:	5736                	lw	a4,108(sp)
  1009fe:	8562                	mv	a0,s8
  100a00:	d8f2                	sw	t3,112(sp)
  100a02:	d672                	sw	t3,44(sp)
  100a04:	dac2                	sw	a6,116(sp)
  100a06:	d442                	sw	a6,40(sp)
  100a08:	dcb6                	sw	a3,120(sp)
  100a0a:	ca36                	sw	a3,20(sp)
  100a0c:	deba                	sw	a4,124(sp)
  100a0e:	c83a                	sw	a4,16(sp)
  100a10:	1be040ef          	jal	ra,104bce <__fixtfdi>
  100a14:	87ae                	mv	a5,a1
  100a16:	863e                	mv	a2,a5
  100a18:	85aa                	mv	a1,a0
  100a1a:	8d2a                	mv	s10,a0
  100a1c:	8562                	mv	a0,s8
  100a1e:	c43e                	sw	a5,8(sp)
  100a20:	2c2040ef          	jal	ra,104ce2 <__floatditf>
  100a24:	4742                	lw	a4,16(sp)
  100a26:	5e32                	lw	t3,44(sp)
  100a28:	5822                	lw	a6,40(sp)
  100a2a:	ceba                	sw	a4,92(sp)
  100a2c:	5746                	lw	a4,112(sp)
  100a2e:	46d2                	lw	a3,20(sp)
  100a30:	5582                	lw	a1,32(sp)
  100a32:	c0ba                	sw	a4,64(sp)
  100a34:	5756                	lw	a4,116(sp)
  100a36:	109c                	addi	a5,sp,96
  100a38:	853e                	mv	a0,a5
  100a3a:	c2ba                	sw	a4,68(sp)
  100a3c:	5766                	lw	a4,120(sp)
  100a3e:	0090                	addi	a2,sp,64
  100a40:	c8f2                	sw	t3,80(sp)
  100a42:	c4ba                	sw	a4,72(sp)
  100a44:	5776                	lw	a4,124(sp)
  100a46:	cac2                	sw	a6,84(sp)
  100a48:	ccb6                	sw	a3,88(sp)
  100a4a:	c6ba                	sw	a4,76(sp)
  100a4c:	322030ef          	jal	ra,103d6e <__subtf3>
  100a50:	5706                	lw	a4,96(sp)
  100a52:	5502                	lw	a0,32(sp)
  100a54:	009c                	addi	a5,sp,64
  100a56:	c8ba                	sw	a4,80(sp)
  100a58:	5716                	lw	a4,100(sp)
  100a5a:	85be                	mv	a1,a5
  100a5c:	c082                	sw	zero,64(sp)
  100a5e:	caba                	sw	a4,84(sp)
  100a60:	5726                	lw	a4,104(sp)
  100a62:	c282                	sw	zero,68(sp)
  100a64:	c482                	sw	zero,72(sp)
  100a66:	ccba                	sw	a4,88(sp)
  100a68:	5736                	lw	a4,108(sp)
  100a6a:	ceba                	sw	a4,92(sp)
  100a6c:	3ffe0737          	lui	a4,0x3ffe0
  100a70:	c6ba                	sw	a4,76(sp)
  100a72:	606020ef          	jal	ra,103078 <__getf2>
  100a76:	47a2                	lw	a5,8(sp)
  100a78:	14054be3          	bltz	a0,1013ce <libmin_printf+0xe2e>
  100a7c:	001d0513          	addi	a0,s10,1
  100a80:	01a535b3          	sltu	a1,a0,s10
  100a84:	95be                	add	a1,a1,a5
  100a86:	476020ef          	jal	ra,102efc <__floatdidf>
  100a8a:	87ae                	mv	a5,a1
  100a8c:	872a                	mv	a4,a0
  100a8e:	85aa                	mv	a1,a0
  100a90:	863e                	mv	a2,a5
  100a92:	8562                	mv	a0,s8
  100a94:	cf3e                	sw	a5,156(sp)
  100a96:	cd3a                	sw	a4,152(sp)
  100a98:	364040ef          	jal	ra,104dfc <__extenddftf2>
  100a9c:	57d6                	lw	a5,116(sp)
  100a9e:	5d46                	lw	s10,112(sp)
  100aa0:	c43e                	sw	a5,8(sp)
  100aa2:	57e6                	lw	a5,120(sp)
  100aa4:	c83e                	sw	a5,16(sp)
  100aa6:	57f6                	lw	a5,124(sp)
  100aa8:	ca3e                	sw	a5,20(sp)
  100aaa:	5792                	lw	a5,36(sp)
  100aac:	200783e3          	beqz	a5,1014b2 <libmin_printf+0xf12>
  100ab0:	ffea0793          	addi	a5,s4,-2
  100ab4:	d23e                	sw	a5,36(sp)
  100ab6:	500788e3          	beqz	a5,1017c6 <libmin_printf+0x1226>
  100aba:	ffda0793          	addi	a5,s4,-3
  100abe:	4e078de3          	beqz	a5,1017b8 <libmin_printf+0x1218>
  100ac2:	ffca0793          	addi	a5,s4,-4
  100ac6:	460782e3          	beqz	a5,10172a <libmin_printf+0x118a>
  100aca:	ffba0793          	addi	a5,s4,-5
  100ace:	440787e3          	beqz	a5,10171c <libmin_printf+0x117c>
  100ad2:	ffaa0793          	addi	a5,s4,-6
  100ad6:	42078ce3          	beqz	a5,10170e <libmin_printf+0x116e>
  100ada:	ff9a0793          	addi	a5,s4,-7
  100ade:	420781e3          	beqz	a5,101700 <libmin_printf+0x1160>
  100ae2:	ff8a0793          	addi	a5,s4,-8
  100ae6:	400785e3          	beqz	a5,1016f0 <libmin_printf+0x1150>
  100aea:	ff7a0793          	addi	a5,s4,-9
  100aee:	3e0789e3          	beqz	a5,1016e0 <libmin_printf+0x1140>
  100af2:	ff6a0793          	addi	a5,s4,-10
  100af6:	3c078de3          	beqz	a5,1016d0 <libmin_printf+0x1130>
  100afa:	ff5a0793          	addi	a5,s4,-11
  100afe:	3c0781e3          	beqz	a5,1016c0 <libmin_printf+0x1120>
  100b02:	ff4a0793          	addi	a5,s4,-12
  100b06:	4a0781e3          	beqz	a5,1017a8 <libmin_printf+0x1208>
  100b0a:	ff3a0793          	addi	a5,s4,-13
  100b0e:	480785e3          	beqz	a5,101798 <libmin_printf+0x11f8>
  100b12:	ff2a0793          	addi	a5,s4,-14
  100b16:	460789e3          	beqz	a5,101788 <libmin_printf+0x11e8>
  100b1a:	4705                	li	a4,1
  100b1c:	44e78ee3          	beq	a5,a4,101778 <libmin_printf+0x11d8>
  100b20:	001057b7          	lui	a5,0x105
  100b24:	5f87a703          	lw	a4,1528(a5) # 1055f8 <__clz_tab+0x148>
  100b28:	5fc7a783          	lw	a5,1532(a5)
  100b2c:	46a2                	lw	a3,8(sp)
  100b2e:	108c                	addi	a1,sp,96
  100b30:	8562                	mv	a0,s8
  100b32:	dab6                	sw	a3,116(sp)
  100b34:	46c2                	lw	a3,16(sp)
  100b36:	d8ea                	sw	s10,112(sp)
  100b38:	d082                	sw	zero,96(sp)
  100b3a:	dcb6                	sw	a3,120(sp)
  100b3c:	46d2                	lw	a3,20(sp)
  100b3e:	d282                	sw	zero,100(sp)
  100b40:	d4ba                	sw	a4,104(sp)
  100b42:	deb6                	sw	a3,124(sp)
  100b44:	d6be                	sw	a5,108(sp)
  100b46:	532020ef          	jal	ra,103078 <__getf2>
  100b4a:	0c054a63          	bltz	a0,100c1e <libmin_printf+0x67e>
  100b4e:	001057b7          	lui	a5,0x105
  100b52:	2707a603          	lw	a2,624(a5) # 105270 <.SnowflakeIoT$10005$addilo$foo+0x30>
  100b56:	2747a683          	lw	a3,628(a5)
  100b5a:	8556                	mv	a0,s5
  100b5c:	85da                	mv	a1,s6
  100b5e:	010010ef          	jal	ra,101b6e <__adddf3>
  100b62:	5792                	lw	a5,36(sp)
  100b64:	c92a                	sw	a0,144(sp)
  100b66:	cb2e                	sw	a1,148(sp)
  100b68:	8aaa                	mv	s5,a0
  100b6a:	8b2e                	mv	s6,a1
  100b6c:	540782e3          	beqz	a5,1018b0 <libmin_printf+0x1310>
  100b70:	ffda0793          	addi	a5,s4,-3
  100b74:	520786e3          	beqz	a5,1018a0 <libmin_printf+0x1300>
  100b78:	ffca0793          	addi	a5,s4,-4
  100b7c:	50078ae3          	beqz	a5,101890 <libmin_printf+0x12f0>
  100b80:	ffba0793          	addi	a5,s4,-5
  100b84:	4e078ee3          	beqz	a5,101880 <libmin_printf+0x12e0>
  100b88:	ffaa0793          	addi	a5,s4,-6
  100b8c:	4e0782e3          	beqz	a5,101870 <libmin_printf+0x12d0>
  100b90:	ff9a0793          	addi	a5,s4,-7
  100b94:	4c0786e3          	beqz	a5,101860 <libmin_printf+0x12c0>
  100b98:	ff8a0793          	addi	a5,s4,-8
  100b9c:	4a0789e3          	beqz	a5,10184e <libmin_printf+0x12ae>
  100ba0:	ff7a0793          	addi	a5,s4,-9
  100ba4:	48078ce3          	beqz	a5,10183c <libmin_printf+0x129c>
  100ba8:	ff6a0793          	addi	a5,s4,-10
  100bac:	46078fe3          	beqz	a5,10182a <libmin_printf+0x128a>
  100bb0:	ff5a0793          	addi	a5,s4,-11
  100bb4:	460782e3          	beqz	a5,101818 <libmin_printf+0x1278>
  100bb8:	ff4a0793          	addi	a5,s4,-12
  100bbc:	440785e3          	beqz	a5,101806 <libmin_printf+0x1266>
  100bc0:	ff3a0793          	addi	a5,s4,-13
  100bc4:	420788e3          	beqz	a5,1017f4 <libmin_printf+0x1254>
  100bc8:	ff2a0793          	addi	a5,s4,-14
  100bcc:	40078be3          	beqz	a5,1017e2 <libmin_printf+0x1242>
  100bd0:	4705                	li	a4,1
  100bd2:	3ee78fe3          	beq	a5,a4,1017d0 <libmin_printf+0x1230>
  100bd6:	001057b7          	lui	a5,0x105
  100bda:	5f87a703          	lw	a4,1528(a5) # 1055f8 <__clz_tab+0x148>
  100bde:	5fc7a783          	lw	a5,1532(a5)
  100be2:	4681                	li	a3,0
  100be4:	4822                	lw	a6,8(sp)
  100be6:	5602                	lw	a2,32(sp)
  100be8:	108c                	addi	a1,sp,96
  100bea:	d2c2                	sw	a6,100(sp)
  100bec:	4842                	lw	a6,16(sp)
  100bee:	8562                	mv	a0,s8
  100bf0:	cab6                	sw	a3,84(sp)
  100bf2:	d4c2                	sw	a6,104(sp)
  100bf4:	4852                	lw	a6,20(sp)
  100bf6:	ccba                	sw	a4,88(sp)
  100bf8:	cebe                	sw	a5,92(sp)
  100bfa:	d6c2                	sw	a6,108(sp)
  100bfc:	d0ea                	sw	s10,96(sp)
  100bfe:	c882                	sw	zero,80(sp)
  100c00:	16e030ef          	jal	ra,103d6e <__subtf3>
  100c04:	57c6                	lw	a5,112(sp)
  100c06:	1088                	addi	a0,sp,96
  100c08:	d0be                	sw	a5,96(sp)
  100c0a:	57d6                	lw	a5,116(sp)
  100c0c:	d2be                	sw	a5,100(sp)
  100c0e:	57e6                	lw	a5,120(sp)
  100c10:	d4be                	sw	a5,104(sp)
  100c12:	57f6                	lw	a5,124(sp)
  100c14:	d6be                	sw	a5,108(sp)
  100c16:	336040ef          	jal	ra,104f4c <__trunctfdf2>
  100c1a:	cd2a                	sw	a0,152(sp)
  100c1c:	cf2e                	sw	a1,156(sp)
  100c1e:	00105c37          	lui	s8,0x105
  100c22:	4d01                	li	s10,0
  100c24:	5d4c0c13          	addi	s8,s8,1492 # 1055d4 <__clz_tab+0x124>
  100c28:	c426                	sw	s1,8(sp)
  100c2a:	c822                	sw	s0,16(sp)
  100c2c:	a029                	j	100c36 <libmin_printf+0x696>
  100c2e:	13700793          	li	a5,311
  100c32:	7afd0263          	beq	s10,a5,1013d6 <libmin_printf+0xe36>
  100c36:	4602                	lw	a2,0(sp)
  100c38:	4692                	lw	a3,4(sp)
  100c3a:	8556                	mv	a0,s5
  100c3c:	85da                	mv	a1,s6
  100c3e:	6f0010ef          	jal	ra,10232e <__muldf3>
  100c42:	0910                	addi	a2,sp,144
  100c44:	84aa                	mv	s1,a0
  100c46:	842e                	mv	s0,a1
  100c48:	f3aff0ef          	jal	ra,100382 <my_modf.isra.0>
  100c4c:	4b5a                	lw	s6,148(sp)
  100c4e:	4aca                	lw	s5,144(sp)
  100c50:	8526                	mv	a0,s1
  100c52:	86da                	mv	a3,s6
  100c54:	8656                	mv	a2,s5
  100c56:	85a2                	mv	a1,s0
  100c58:	317010ef          	jal	ra,10276e <__subdf3>
  100c5c:	001057b7          	lui	a5,0x105
  100c60:	2887a603          	lw	a2,648(a5) # 105288 <.SnowflakeIoT$10005$addilo$foo+0x48>
  100c64:	28c7a683          	lw	a3,652(a5)
  100c68:	0d05                	addi	s10,s10,1
  100c6a:	705000ef          	jal	ra,101b6e <__adddf3>
  100c6e:	001057b7          	lui	a5,0x105
  100c72:	2807a603          	lw	a2,640(a5) # 105280 <.SnowflakeIoT$10005$addilo$foo+0x40>
  100c76:	2847a683          	lw	a3,644(a5)
  100c7a:	6b4010ef          	jal	ra,10232e <__muldf3>
  100c7e:	10c020ef          	jal	ra,102d8a <__fixdfsi>
  100c82:	00ac07b3          	add	a5,s8,a0
  100c86:	0007c703          	lbu	a4,0(a5)
  100c8a:	111c                	addi	a5,sp,160
  100c8c:	97ea                	add	a5,a5,s10
  100c8e:	8556                	mv	a0,s5
  100c90:	85da                	mv	a1,s6
  100c92:	4601                	li	a2,0
  100c94:	4681                	li	a3,0
  100c96:	fee78fa3          	sb	a4,-1(a5)
  100c9a:	4de010ef          	jal	ra,102178 <__eqdf2>
  100c9e:	f941                	bnez	a0,100c2e <libmin_printf+0x68e>
  100ca0:	13700793          	li	a5,311
  100ca4:	44a2                	lw	s1,8(sp)
  100ca6:	4442                	lw	s0,16(sp)
  100ca8:	72fd0c63          	beq	s10,a5,1013e0 <libmin_printf+0xe40>
  100cac:	47fa                	lw	a5,156(sp)
  100cae:	476a                	lw	a4,152(sp)
  100cb0:	4601                	li	a2,0
  100cb2:	85be                	mv	a1,a5
  100cb4:	c63e                	sw	a5,12(sp)
  100cb6:	71010793          	addi	a5,sp,1808
  100cba:	01a78833          	add	a6,a5,s10
  100cbe:	4681                	li	a3,0
  100cc0:	853a                	mv	a0,a4
  100cc2:	98080823          	sb	zero,-1648(a6)
  100cc6:	c43a                	sw	a4,8(sp)
  100cc8:	4b0010ef          	jal	ra,102178 <__eqdf2>
  100ccc:	64050263          	beqz	a0,101310 <libmin_printf+0xd70>
  100cd0:	4722                	lw	a4,8(sp)
  100cd2:	47b2                	lw	a5,12(sp)
  100cd4:	4a81                	li	s5,0
  100cd6:	1d810b13          	addi	s6,sp,472
  100cda:	c826                	sw	s1,16(sp)
  100cdc:	ca22                	sw	s0,20(sp)
  100cde:	a039                	j	100cec <libmin_printf+0x74c>
  100ce0:	13700693          	li	a3,311
  100ce4:	4722                	lw	a4,8(sp)
  100ce6:	47b2                	lw	a5,12(sp)
  100ce8:	00da8be3          	beq	s5,a3,1014fe <libmin_printf+0xf5e>
  100cec:	4602                	lw	a2,0(sp)
  100cee:	4692                	lw	a3,4(sp)
  100cf0:	853a                	mv	a0,a4
  100cf2:	85be                	mv	a1,a5
  100cf4:	63a010ef          	jal	ra,10232e <__muldf3>
  100cf8:	0930                	addi	a2,sp,152
  100cfa:	84aa                	mv	s1,a0
  100cfc:	842e                	mv	s0,a1
  100cfe:	e84ff0ef          	jal	ra,100382 <my_modf.isra.0>
  100d02:	476a                	lw	a4,152(sp)
  100d04:	47fa                	lw	a5,156(sp)
  100d06:	8526                	mv	a0,s1
  100d08:	863a                	mv	a2,a4
  100d0a:	86be                	mv	a3,a5
  100d0c:	85a2                	mv	a1,s0
  100d0e:	c43a                	sw	a4,8(sp)
  100d10:	c63e                	sw	a5,12(sp)
  100d12:	25d010ef          	jal	ra,10276e <__subdf3>
  100d16:	001057b7          	lui	a5,0x105
  100d1a:	2887a603          	lw	a2,648(a5) # 105288 <.SnowflakeIoT$10005$addilo$foo+0x48>
  100d1e:	28c7a683          	lw	a3,652(a5)
  100d22:	0a85                	addi	s5,s5,1
  100d24:	64b000ef          	jal	ra,101b6e <__adddf3>
  100d28:	001057b7          	lui	a5,0x105
  100d2c:	2807a603          	lw	a2,640(a5) # 105280 <.SnowflakeIoT$10005$addilo$foo+0x40>
  100d30:	2847a683          	lw	a3,644(a5)
  100d34:	5fa010ef          	jal	ra,10232e <__muldf3>
  100d38:	052020ef          	jal	ra,102d8a <__fixdfsi>
  100d3c:	00ac06b3          	add	a3,s8,a0
  100d40:	0006c883          	lbu	a7,0(a3)
  100d44:	4722                	lw	a4,8(sp)
  100d46:	47b2                	lw	a5,12(sp)
  100d48:	015b0833          	add	a6,s6,s5
  100d4c:	4601                	li	a2,0
  100d4e:	4681                	li	a3,0
  100d50:	853a                	mv	a0,a4
  100d52:	85be                	mv	a1,a5
  100d54:	ff180fa3          	sb	a7,-1(a6)
  100d58:	420010ef          	jal	ra,102178 <__eqdf2>
  100d5c:	f151                	bnez	a0,100ce0 <libmin_printf+0x740>
  100d5e:	13700793          	li	a5,311
  100d62:	44c2                	lw	s1,16(sp)
  100d64:	4452                	lw	s0,20(sp)
  100d66:	415a0eb3          	sub	t4,s4,s5
  100d6a:	72fa8b63          	beq	s5,a5,1014a0 <libmin_printf+0xf00>
  100d6e:	47f2                	lw	a5,28(sp)
  100d70:	41a90633          	sub	a2,s2,s10
  100d74:	41460633          	sub	a2,a2,s4
  100d78:	167d                	addi	a2,a2,-1
  100d7a:	8e1d                	sub	a2,a2,a5
  100d7c:	71010793          	addi	a5,sp,1808
  100d80:	97d6                	add	a5,a5,s5
  100d82:	fffec593          	not	a1,t4
  100d86:	fff64713          	not	a4,a2
  100d8a:	85fd                	srai	a1,a1,0x1f
  100d8c:	877d                	srai	a4,a4,0x1f
  100d8e:	ac078423          	sb	zero,-1336(a5)
  100d92:	0019f693          	andi	a3,s3,1
  100d96:	47ba                	lw	a5,140(sp)
  100d98:	00bef5b3          	and	a1,t4,a1
  100d9c:	8f71                	and	a4,a4,a2
  100d9e:	58068d63          	beqz	a3,101338 <libmin_printf+0xd98>
  100da2:	40e00733          	neg	a4,a4
  100da6:	4662                	lw	a2,24(sp)
  100da8:	ca19                	beqz	a2,100dbe <libmin_printf+0x81e>
  100daa:	3ff00693          	li	a3,1023
  100dae:	00f6e763          	bltu	a3,a5,100dbc <libmin_printf+0x81c>
  100db2:	71010693          	addi	a3,sp,1808
  100db6:	96be                	add	a3,a3,a5
  100db8:	c0c68023          	sb	a2,-1024(a3)
  100dbc:	0785                	addi	a5,a5,1
  100dbe:	1114                	addi	a3,sp,160
  100dc0:	96ea                	add	a3,a3,s10
  100dc2:	00fb8633          	add	a2,s7,a5
  100dc6:	00f68fb3          	add	t6,a3,a5
  100dca:	3ff00f13          	li	t5,1023
  100dce:	40df8533          	sub	a0,t6,a3
  100dd2:	00af6663          	bltu	t5,a0,100dde <libmin_printf+0x83e>
  100dd6:	fff6c503          	lbu	a0,-1(a3)
  100dda:	00a60023          	sb	a0,0(a2)
  100dde:	16fd                	addi	a3,a3,-1
  100de0:	1108                	addi	a0,sp,160
  100de2:	0605                	addi	a2,a2,1
  100de4:	fed515e3          	bne	a0,a3,100dce <libmin_printf+0x82e>
  100de8:	97ea                	add	a5,a5,s10
  100dea:	c73e                	sw	a5,140(sp)
  100dec:	c831                	beqz	s0,100e40 <libmin_printf+0x8a0>
  100dee:	3ff00693          	li	a3,1023
  100df2:	00f6e963          	bltu	a3,a5,100e04 <libmin_printf+0x864>
  100df6:	71010693          	addi	a3,sp,1808
  100dfa:	02e00613          	li	a2,46
  100dfe:	96be                	add	a3,a3,a5
  100e00:	c0c68023          	sb	a2,-1024(a3)
  100e04:	00178513          	addi	a0,a5,1
  100e08:	c72a                	sw	a0,140(sp)
  100e0a:	6a0a8063          	beqz	s5,1014aa <libmin_printf+0xf0a>
  100e0e:	1d810b13          	addi	s6,sp,472
  100e12:	4605                	li	a2,1
  100e14:	015b06b3          	add	a3,s6,s5
  100e18:	97de                	add	a5,a5,s7
  100e1a:	41760633          	sub	a2,a2,s7
  100e1e:	3ff00f13          	li	t5,1023
  100e22:	00f60833          	add	a6,a2,a5
  100e26:	010f6663          	bltu	t5,a6,100e32 <libmin_printf+0x892>
  100e2a:	fff6c803          	lbu	a6,-1(a3)
  100e2e:	010780a3          	sb	a6,1(a5)
  100e32:	16fd                	addi	a3,a3,-1
  100e34:	0785                	addi	a5,a5,1
  100e36:	fedb16e3          	bne	s6,a3,100e22 <libmin_printf+0x882>
  100e3a:	015507b3          	add	a5,a0,s5
  100e3e:	c73e                	sw	a5,140(sp)
  100e40:	21d05663          	blez	t4,10104c <libmin_printf+0xaac>
  100e44:	3ff00693          	li	a3,1023
  100e48:	00f6e963          	bltu	a3,a5,100e5a <libmin_printf+0x8ba>
  100e4c:	71010693          	addi	a3,sp,1808
  100e50:	03000613          	li	a2,48
  100e54:	96be                	add	a3,a3,a5
  100e56:	c0c68023          	sb	a2,-1024(a3)
  100e5a:	fff58613          	addi	a2,a1,-1
  100e5e:	00178693          	addi	a3,a5,1
  100e62:	1e060363          	beqz	a2,101048 <libmin_printf+0xaa8>
  100e66:	3ff00613          	li	a2,1023
  100e6a:	00d66963          	bltu	a2,a3,100e7c <libmin_printf+0x8dc>
  100e6e:	71010613          	addi	a2,sp,1808
  100e72:	96b2                	add	a3,a3,a2
  100e74:	03000613          	li	a2,48
  100e78:	c0c68023          	sb	a2,-1024(a3)
  100e7c:	ffe58613          	addi	a2,a1,-2
  100e80:	00278693          	addi	a3,a5,2
  100e84:	1c060263          	beqz	a2,101048 <libmin_printf+0xaa8>
  100e88:	3ff00613          	li	a2,1023
  100e8c:	00d66963          	bltu	a2,a3,100e9e <libmin_printf+0x8fe>
  100e90:	71010613          	addi	a2,sp,1808
  100e94:	96b2                	add	a3,a3,a2
  100e96:	03000613          	li	a2,48
  100e9a:	c0c68023          	sb	a2,-1024(a3)
  100e9e:	ffd58613          	addi	a2,a1,-3
  100ea2:	00378693          	addi	a3,a5,3
  100ea6:	1a060163          	beqz	a2,101048 <libmin_printf+0xaa8>
  100eaa:	3ff00613          	li	a2,1023
  100eae:	00d66963          	bltu	a2,a3,100ec0 <libmin_printf+0x920>
  100eb2:	71010613          	addi	a2,sp,1808
  100eb6:	96b2                	add	a3,a3,a2
  100eb8:	03000613          	li	a2,48
  100ebc:	c0c68023          	sb	a2,-1024(a3)
  100ec0:	ffc58613          	addi	a2,a1,-4
  100ec4:	00478693          	addi	a3,a5,4
  100ec8:	18060063          	beqz	a2,101048 <libmin_printf+0xaa8>
  100ecc:	3ff00613          	li	a2,1023
  100ed0:	00d66963          	bltu	a2,a3,100ee2 <libmin_printf+0x942>
  100ed4:	71010613          	addi	a2,sp,1808
  100ed8:	96b2                	add	a3,a3,a2
  100eda:	03000613          	li	a2,48
  100ede:	c0c68023          	sb	a2,-1024(a3)
  100ee2:	ffb58613          	addi	a2,a1,-5
  100ee6:	00578693          	addi	a3,a5,5
  100eea:	14060f63          	beqz	a2,101048 <libmin_printf+0xaa8>
  100eee:	3ff00613          	li	a2,1023
  100ef2:	00d66963          	bltu	a2,a3,100f04 <libmin_printf+0x964>
  100ef6:	71010613          	addi	a2,sp,1808
  100efa:	96b2                	add	a3,a3,a2
  100efc:	03000613          	li	a2,48
  100f00:	c0c68023          	sb	a2,-1024(a3)
  100f04:	ffa58613          	addi	a2,a1,-6
  100f08:	00678693          	addi	a3,a5,6
  100f0c:	12060e63          	beqz	a2,101048 <libmin_printf+0xaa8>
  100f10:	3ff00613          	li	a2,1023
  100f14:	00d66963          	bltu	a2,a3,100f26 <libmin_printf+0x986>
  100f18:	71010613          	addi	a2,sp,1808
  100f1c:	96b2                	add	a3,a3,a2
  100f1e:	03000613          	li	a2,48
  100f22:	c0c68023          	sb	a2,-1024(a3)
  100f26:	ff958613          	addi	a2,a1,-7
  100f2a:	00778693          	addi	a3,a5,7
  100f2e:	10060d63          	beqz	a2,101048 <libmin_printf+0xaa8>
  100f32:	3ff00613          	li	a2,1023
  100f36:	00d66963          	bltu	a2,a3,100f48 <libmin_printf+0x9a8>
  100f3a:	71010613          	addi	a2,sp,1808
  100f3e:	96b2                	add	a3,a3,a2
  100f40:	03000613          	li	a2,48
  100f44:	c0c68023          	sb	a2,-1024(a3)
  100f48:	ff858613          	addi	a2,a1,-8
  100f4c:	00878693          	addi	a3,a5,8
  100f50:	ce65                	beqz	a2,101048 <libmin_printf+0xaa8>
  100f52:	3ff00613          	li	a2,1023
  100f56:	00d66963          	bltu	a2,a3,100f68 <libmin_printf+0x9c8>
  100f5a:	71010613          	addi	a2,sp,1808
  100f5e:	96b2                	add	a3,a3,a2
  100f60:	03000613          	li	a2,48
  100f64:	c0c68023          	sb	a2,-1024(a3)
  100f68:	ff758613          	addi	a2,a1,-9
  100f6c:	00978693          	addi	a3,a5,9
  100f70:	ce61                	beqz	a2,101048 <libmin_printf+0xaa8>
  100f72:	3ff00613          	li	a2,1023
  100f76:	00d66963          	bltu	a2,a3,100f88 <libmin_printf+0x9e8>
  100f7a:	71010613          	addi	a2,sp,1808
  100f7e:	96b2                	add	a3,a3,a2
  100f80:	03000613          	li	a2,48
  100f84:	c0c68023          	sb	a2,-1024(a3)
  100f88:	ff658613          	addi	a2,a1,-10
  100f8c:	00a78693          	addi	a3,a5,10
  100f90:	ce45                	beqz	a2,101048 <libmin_printf+0xaa8>
  100f92:	3ff00613          	li	a2,1023
  100f96:	00d66963          	bltu	a2,a3,100fa8 <libmin_printf+0xa08>
  100f9a:	71010613          	addi	a2,sp,1808
  100f9e:	96b2                	add	a3,a3,a2
  100fa0:	03000613          	li	a2,48
  100fa4:	c0c68023          	sb	a2,-1024(a3)
  100fa8:	ff558613          	addi	a2,a1,-11
  100fac:	00b78693          	addi	a3,a5,11
  100fb0:	ce41                	beqz	a2,101048 <libmin_printf+0xaa8>
  100fb2:	3ff00613          	li	a2,1023
  100fb6:	00d66963          	bltu	a2,a3,100fc8 <libmin_printf+0xa28>
  100fba:	71010613          	addi	a2,sp,1808
  100fbe:	96b2                	add	a3,a3,a2
  100fc0:	03000613          	li	a2,48
  100fc4:	c0c68023          	sb	a2,-1024(a3)
  100fc8:	ff458613          	addi	a2,a1,-12
  100fcc:	00c78693          	addi	a3,a5,12
  100fd0:	ce25                	beqz	a2,101048 <libmin_printf+0xaa8>
  100fd2:	3ff00613          	li	a2,1023
  100fd6:	00d66963          	bltu	a2,a3,100fe8 <libmin_printf+0xa48>
  100fda:	71010613          	addi	a2,sp,1808
  100fde:	96b2                	add	a3,a3,a2
  100fe0:	03000613          	li	a2,48
  100fe4:	c0c68023          	sb	a2,-1024(a3)
  100fe8:	ff358613          	addi	a2,a1,-13
  100fec:	00d78693          	addi	a3,a5,13
  100ff0:	ce21                	beqz	a2,101048 <libmin_printf+0xaa8>
  100ff2:	3ff00613          	li	a2,1023
  100ff6:	00d66963          	bltu	a2,a3,101008 <libmin_printf+0xa68>
  100ffa:	71010613          	addi	a2,sp,1808
  100ffe:	96b2                	add	a3,a3,a2
  101000:	03000613          	li	a2,48
  101004:	c0c68023          	sb	a2,-1024(a3)
  101008:	ff258613          	addi	a2,a1,-14
  10100c:	00e78693          	addi	a3,a5,14
  101010:	ce05                	beqz	a2,101048 <libmin_printf+0xaa8>
  101012:	3ff00513          	li	a0,1023
  101016:	00d56963          	bltu	a0,a3,101028 <libmin_printf+0xa88>
  10101a:	71010513          	addi	a0,sp,1808
  10101e:	96aa                	add	a3,a3,a0
  101020:	03000513          	li	a0,48
  101024:	c0a68023          	sb	a0,-1024(a3)
  101028:	4505                	li	a0,1
  10102a:	00f78693          	addi	a3,a5,15
  10102e:	00a60d63          	beq	a2,a0,101048 <libmin_printf+0xaa8>
  101032:	3ff00613          	li	a2,1023
  101036:	00d66963          	bltu	a2,a3,101048 <libmin_printf+0xaa8>
  10103a:	71010613          	addi	a2,sp,1808
  10103e:	96b2                	add	a3,a3,a2
  101040:	03000613          	li	a2,48
  101044:	c0c68023          	sb	a2,-1024(a3)
  101048:	97ae                	add	a5,a5,a1
  10104a:	c73e                	sw	a5,140(sp)
  10104c:	fa070d63          	beqz	a4,100806 <libmin_printf+0x266>
  101050:	00fb86b3          	add	a3,s7,a5
  101054:	40e78733          	sub	a4,a5,a4
  101058:	3ff00613          	li	a2,1023
  10105c:	02000593          	li	a1,32
  101060:	00f66463          	bltu	a2,a5,101068 <libmin_printf+0xac8>
  101064:	00b68023          	sb	a1,0(a3)
  101068:	0785                	addi	a5,a5,1
  10106a:	0685                	addi	a3,a3,1
  10106c:	fee79ae3          	bne	a5,a4,101060 <libmin_printf+0xac0>
  101070:	c73e                	sw	a5,140(sp)
  101072:	f96ff06f          	j	100808 <libmin_printf+0x268>
  101076:	47ba                	lw	a5,140(sp)
  101078:	3ff00693          	li	a3,1023
  10107c:	004c8713          	addi	a4,s9,4
  101080:	00f6e963          	bltu	a3,a5,101092 <libmin_printf+0xaf2>
  101084:	000ca603          	lw	a2,0(s9)
  101088:	71010693          	addi	a3,sp,1808
  10108c:	96be                	add	a3,a3,a5
  10108e:	c0c68023          	sb	a2,-1024(a3)
  101092:	0785                	addi	a5,a5,1
  101094:	c73e                	sw	a5,140(sp)
  101096:	8cba                	mv	s9,a4
  101098:	f70ff06f          	j	100808 <libmin_printf+0x268>
  10109c:	002d8713          	addi	a4,s11,2
  1010a0:	47ba                	lw	a5,140(sp)
  1010a2:	8da6                	mv	s11,s1
  1010a4:	84ba                	mv	s1,a4
  1010a6:	f62ff06f          	j	100808 <libmin_printf+0x268>
  1010aa:	4785                	li	a5,1
  1010ac:	0409e813          	ori	a6,s3,64
  1010b0:	00f70863          	beq	a4,a5,1010c0 <libmin_printf+0xb20>
  1010b4:	4789                	li	a5,2
  1010b6:	00f70563          	beq	a4,a5,1010c0 <libmin_printf+0xb20>
  1010ba:	4791                	li	a5,4
  1010bc:	38f70d63          	beq	a4,a5,101456 <libmin_printf+0xeb6>
  1010c0:	000ca603          	lw	a2,0(s9)
  1010c4:	0c91                	addi	s9,s9,4
  1010c6:	f7cff06f          	j	100842 <libmin_printf+0x2a2>
  1010ca:	57fd                	li	a5,-1
  1010cc:	000caa03          	lw	s4,0(s9)
  1010d0:	0c91                	addi	s9,s9,4
  1010d2:	10f40063          	beq	s0,a5,1011d2 <libmin_printf+0xc32>
  1010d6:	01205763          	blez	s2,1010e4 <libmin_printf+0xb44>
  1010da:	00044563          	bltz	s0,1010e4 <libmin_printf+0xb44>
  1010de:	01245363          	bge	s0,s2,1010e4 <libmin_printf+0xb44>
  1010e2:	844a                	mv	s0,s2
  1010e4:	320a0163          	beqz	s4,101406 <libmin_printf+0xe66>
  1010e8:	000a4783          	lbu	a5,0(s4)
  1010ec:	3c078163          	beqz	a5,1014ae <libmin_printf+0xf0e>
  1010f0:	4781                	li	a5,0
  1010f2:	0785                	addi	a5,a5,1
  1010f4:	00fa0733          	add	a4,s4,a5
  1010f8:	00074703          	lbu	a4,0(a4) # 3ffe0000 <fromhost+0x3fea7ff0>
  1010fc:	fb7d                	bnez	a4,1010f2 <libmin_printf+0xb52>
  1010fe:	40f907b3          	sub	a5,s2,a5
  101102:	fff7c713          	not	a4,a5
  101106:	877d                	srai	a4,a4,0x1f
  101108:	0019f993          	andi	s3,s3,1
  10110c:	8f7d                	and	a4,a4,a5
  10110e:	1a099863          	bnez	s3,1012be <libmin_printf+0xd1e>
  101112:	38f05163          	blez	a5,101494 <libmin_printf+0xef4>
  101116:	ee805863          	blez	s0,100806 <libmin_printf+0x266>
  10111a:	47ba                	lw	a5,140(sp)
  10111c:	853a                	mv	a0,a4
  10111e:	408705b3          	sub	a1,a4,s0
  101122:	00fb86b3          	add	a3,s7,a5
  101126:	3ff00613          	li	a2,1023
  10112a:	02000813          	li	a6,32
  10112e:	00f66463          	bltu	a2,a5,101136 <libmin_printf+0xb96>
  101132:	01068023          	sb	a6,0(a3)
  101136:	177d                	addi	a4,a4,-1
  101138:	0785                	addi	a5,a5,1
  10113a:	40e509b3          	sub	s3,a0,a4
  10113e:	34070a63          	beqz	a4,101492 <libmin_printf+0xef2>
  101142:	0685                	addi	a3,a3,1
  101144:	feb715e3          	bne	a4,a1,10112e <libmin_printf+0xb8e>
  101148:	c73e                	sw	a5,140(sp)
  10114a:	000a4683          	lbu	a3,0(s4)
  10114e:	ea068d63          	beqz	a3,100808 <libmin_printf+0x268>
  101152:	ea89da63          	bge	s3,s0,100806 <libmin_printf+0x266>
  101156:	463a                	lw	a2,140(sp)
  101158:	3ff00e13          	li	t3,1023
  10115c:	00c40833          	add	a6,s0,a2
  101160:	41380833          	sub	a6,a6,s3
  101164:	00cb85b3          	add	a1,s7,a2
  101168:	87b2                	mv	a5,a2
  10116a:	40c989b3          	sub	s3,s3,a2
  10116e:	00fe6463          	bltu	t3,a5,101176 <libmin_printf+0xbd6>
  101172:	00d58023          	sb	a3,0(a1)
  101176:	0785                	addi	a5,a5,1
  101178:	40c786b3          	sub	a3,a5,a2
  10117c:	c73e                	sw	a5,140(sp)
  10117e:	96d2                	add	a3,a3,s4
  101180:	0006c683          	lbu	a3,0(a3)
  101184:	00f98533          	add	a0,s3,a5
  101188:	14068363          	beqz	a3,1012ce <libmin_printf+0xd2e>
  10118c:	0585                	addi	a1,a1,1
  10118e:	ff0790e3          	bne	a5,a6,10116e <libmin_printf+0xbce>
  101192:	e74ff06f          	j	100806 <libmin_printf+0x266>
  101196:	000ca603          	lw	a2,0(s9)
  10119a:	884e                	mv	a6,s3
  10119c:	0c91                	addi	s9,s9,4
  10119e:	e5cff06f          	j	1007fa <libmin_printf+0x25a>
  1011a2:	4785                	li	a5,1
  1011a4:	0409e813          	ori	a6,s3,64
  1011a8:	00f70863          	beq	a4,a5,1011b8 <libmin_printf+0xc18>
  1011ac:	4789                	li	a5,2
  1011ae:	00f70563          	beq	a4,a5,1011b8 <libmin_printf+0xc18>
  1011b2:	4791                	li	a5,4
  1011b4:	24f70063          	beq	a4,a5,1013f4 <libmin_printf+0xe54>
  1011b8:	000ca603          	lw	a2,0(s9)
  1011bc:	0c91                	addi	s9,s9,4
  1011be:	87a2                	mv	a5,s0
  1011c0:	874a                	mv	a4,s2
  1011c2:	46a1                	li	a3,8
  1011c4:	016c                	addi	a1,sp,140
  1011c6:	855e                	mv	a0,s7
  1011c8:	fdbfe0ef          	jal	ra,1001a2 <fmtint.constprop.0>
  1011cc:	47ba                	lw	a5,140(sp)
  1011ce:	e3aff06f          	j	100808 <libmin_printf+0x268>
  1011d2:	8552                	mv	a0,s4
  1011d4:	70e000ef          	jal	ra,1018e2 <libmin_strlen>
  1011d8:	842a                	mv	s0,a0
  1011da:	bdf5                	j	1010d6 <libmin_printf+0xb36>
  1011dc:	000dc783          	lbu	a5,0(s11)
  1011e0:	001d8893          	addi	a7,s11,1
  1011e4:	d4078963          	beqz	a5,100736 <libmin_printf+0x196>
  1011e8:	8dc6                	mv	s11,a7
  1011ea:	7386a703          	lw	a4,1848(a3)
  1011ee:	00179613          	slli	a2,a5,0x1
  1011f2:	9732                	add	a4,a4,a2
  1011f4:	00075703          	lhu	a4,0(a4)
  1011f8:	8b11                	andi	a4,a4,4
  1011fa:	c31d                	beqz	a4,101220 <libmin_printf+0xc80>
  1011fc:	fff44713          	not	a4,s0
  101200:	877d                	srai	a4,a4,0x1f
  101202:	8c79                	and	s0,s0,a4
  101204:	fd078613          	addi	a2,a5,-48
  101208:	00241713          	slli	a4,s0,0x2
  10120c:	000dc783          	lbu	a5,0(s11)
  101210:	943a                	add	s0,s0,a4
  101212:	0406                	slli	s0,s0,0x1
  101214:	9432                	add	s0,s0,a2
  101216:	0d85                	addi	s11,s11,1
  101218:	fbe9                	bnez	a5,1011ea <libmin_printf+0xc4a>
  10121a:	47ba                	lw	a5,140(sp)
  10121c:	beaff06f          	j	100606 <libmin_printf+0x66>
  101220:	02a00713          	li	a4,42
  101224:	d6e79c63          	bne	a5,a4,10079c <libmin_printf+0x1fc>
  101228:	000dc783          	lbu	a5,0(s11)
  10122c:	000ca403          	lw	s0,0(s9)
  101230:	004c8313          	addi	t1,s9,4
  101234:	001d8893          	addi	a7,s11,1
  101238:	ce078f63          	beqz	a5,100736 <libmin_printf+0x196>
  10123c:	8dc6                	mv	s11,a7
  10123e:	8c9a                	mv	s9,t1
  101240:	d5cff06f          	j	10079c <libmin_printf+0x1fc>
  101244:	000dc783          	lbu	a5,0(s11)
  101248:	04e78d63          	beq	a5,a4,1012a2 <libmin_printf+0xd02>
  10124c:	0d85                	addi	s11,s11,1
  10124e:	ce078463          	beqz	a5,100736 <libmin_printf+0x196>
  101252:	4709                	li	a4,2
  101254:	d62ff06f          	j	1007b6 <libmin_printf+0x216>
  101258:	000dc783          	lbu	a5,0(s11)
  10125c:	001d8893          	addi	a7,s11,1
  101260:	cc078b63          	beqz	a5,100736 <libmin_printf+0x196>
  101264:	8dc6                	mv	s11,a7
  101266:	4705                	li	a4,1
  101268:	d4eff06f          	j	1007b6 <libmin_printf+0x216>
  10126c:	000dc783          	lbu	a5,0(s11)
  101270:	001d8893          	addi	a7,s11,1
  101274:	cc078163          	beqz	a5,100736 <libmin_printf+0x196>
  101278:	8dc6                	mv	s11,a7
  10127a:	470d                	li	a4,3
  10127c:	d3aff06f          	j	1007b6 <libmin_printf+0x216>
  101280:	000dc783          	lbu	a5,0(s11)
  101284:	000ca903          	lw	s2,0(s9)
  101288:	004c8313          	addi	t1,s9,4
  10128c:	001d8893          	addi	a7,s11,1
  101290:	ca078363          	beqz	a5,100736 <libmin_printf+0x196>
  101294:	8dc6                	mv	s11,a7
  101296:	8c9a                	mv	s9,t1
  101298:	cfaff06f          	j	100792 <libmin_printf+0x1f2>
  10129c:	873e                	mv	a4,a5
  10129e:	c3eff06f          	j	1006dc <libmin_printf+0x13c>
  1012a2:	001dc783          	lbu	a5,1(s11)
  1012a6:	002d8893          	addi	a7,s11,2
  1012aa:	c8078663          	beqz	a5,100736 <libmin_printf+0x196>
  1012ae:	8dc6                	mv	s11,a7
  1012b0:	4711                	li	a4,4
  1012b2:	d04ff06f          	j	1007b6 <libmin_printf+0x216>
  1012b6:	47ba                	lw	a5,140(sp)
  1012b8:	0c91                	addi	s9,s9,4
  1012ba:	d4eff06f          	j	100808 <libmin_printf+0x268>
  1012be:	000a4683          	lbu	a3,0(s4)
  1012c2:	40e00733          	neg	a4,a4
  1012c6:	4981                	li	s3,0
  1012c8:	4501                	li	a0,0
  1012ca:	e80694e3          	bnez	a3,101152 <libmin_printf+0xbb2>
  1012ce:	d2075c63          	bgez	a4,100806 <libmin_printf+0x266>
  1012d2:	47ba                	lw	a5,140(sp)
  1012d4:	d2855a63          	bge	a0,s0,100808 <libmin_printf+0x268>
  1012d8:	00f40633          	add	a2,s0,a5
  1012dc:	3ff00593          	li	a1,1023
  1012e0:	02000813          	li	a6,32
  1012e4:	00fb86b3          	add	a3,s7,a5
  1012e8:	8e09                	sub	a2,a2,a0
  1012ea:	40e78733          	sub	a4,a5,a4
  1012ee:	00f5e463          	bltu	a1,a5,1012f6 <libmin_printf+0xd56>
  1012f2:	01068023          	sb	a6,0(a3)
  1012f6:	0785                	addi	a5,a5,1
  1012f8:	d6e78963          	beq	a5,a4,10086a <libmin_printf+0x2ca>
  1012fc:	0685                	addi	a3,a3,1
  1012fe:	fec798e3          	bne	a5,a2,1012ee <libmin_printf+0xd4e>
  101302:	c73e                	sw	a5,140(sp)
  101304:	d04ff06f          	j	100808 <libmin_printf+0x268>
  101308:	4a19                	li	s4,6
  10130a:	4419                	li	s0,6
  10130c:	dc0ff06f          	j	1008cc <libmin_printf+0x32c>
  101310:	8ed2                	mv	t4,s4
  101312:	4a81                	li	s5,0
  101314:	bca9                	j	100d6e <libmin_printf+0x7ce>
  101316:	800007b7          	lui	a5,0x80000
  10131a:	0157cab3          	xor	s5,a5,s5
  10131e:	8562                	mv	a0,s8
  101320:	ded6                	sw	s5,124(sp)
  101322:	42b030ef          	jal	ra,104f4c <__trunctfdf2>
  101326:	4785                	li	a5,1
  101328:	ce3e                	sw	a5,28(sp)
  10132a:	02d00793          	li	a5,45
  10132e:	872a                	mv	a4,a0
  101330:	882e                	mv	a6,a1
  101332:	cc3e                	sw	a5,24(sp)
  101334:	de6ff06f          	j	10091a <libmin_printf+0x37a>
  101338:	0109f993          	andi	s3,s3,16
  10133c:	04098563          	beqz	s3,101386 <libmin_printf+0xde6>
  101340:	a6c053e3          	blez	a2,100da6 <libmin_printf+0x806>
  101344:	4662                	lw	a2,24(sp)
  101346:	ce19                	beqz	a2,101364 <libmin_printf+0xdc4>
  101348:	3ff00693          	li	a3,1023
  10134c:	00f6e763          	bltu	a3,a5,10135a <libmin_printf+0xdba>
  101350:	71010693          	addi	a3,sp,1808
  101354:	96be                	add	a3,a3,a5
  101356:	c0c68023          	sb	a2,-1024(a3)
  10135a:	0785                	addi	a5,a5,1
  10135c:	c73e                	sw	a5,140(sp)
  10135e:	177d                	addi	a4,a4,-1
  101360:	a4070fe3          	beqz	a4,100dbe <libmin_printf+0x81e>
  101364:	00fb86b3          	add	a3,s7,a5
  101368:	973e                	add	a4,a4,a5
  10136a:	3ff00513          	li	a0,1023
  10136e:	03000613          	li	a2,48
  101372:	00f56463          	bltu	a0,a5,10137a <libmin_printf+0xdda>
  101376:	00c68023          	sb	a2,0(a3)
  10137a:	0785                	addi	a5,a5,1
  10137c:	0685                	addi	a3,a3,1
  10137e:	fef71ae3          	bne	a4,a5,101372 <libmin_printf+0xdd2>
  101382:	4701                	li	a4,0
  101384:	bc2d                	j	100dbe <libmin_printf+0x81e>
  101386:	a2c050e3          	blez	a2,100da6 <libmin_printf+0x806>
  10138a:	00fb8533          	add	a0,s7,a5
  10138e:	86ba                	mv	a3,a4
  101390:	00f702b3          	add	t0,a4,a5
  101394:	3ff00f93          	li	t6,1023
  101398:	02000393          	li	t2,32
  10139c:	40d28833          	sub	a6,t0,a3
  1013a0:	010fe463          	bltu	t6,a6,1013a8 <libmin_printf+0xe08>
  1013a4:	00750023          	sb	t2,0(a0)
  1013a8:	16fd                	addi	a3,a3,-1
  1013aa:	0505                	addi	a0,a0,1
  1013ac:	fae5                	bnez	a3,10139c <libmin_printf+0xdfc>
  1013ae:	fff70693          	addi	a3,a4,-1
  1013b2:	0785                	addi	a5,a5,1
  1013b4:	4501                	li	a0,0
  1013b6:	00c05363          	blez	a2,1013bc <libmin_printf+0xe1c>
  1013ba:	8536                	mv	a0,a3
  1013bc:	97aa                	add	a5,a5,a0
  1013be:	00e04363          	bgtz	a4,1013c4 <libmin_printf+0xe24>
  1013c2:	4705                	li	a4,1
  1013c4:	40e68733          	sub	a4,a3,a4
  1013c8:	0705                	addi	a4,a4,1
  1013ca:	c73e                	sw	a5,140(sp)
  1013cc:	bae9                	j	100da6 <libmin_printf+0x806>
  1013ce:	856a                	mv	a0,s10
  1013d0:	85be                	mv	a1,a5
  1013d2:	eb4ff06f          	j	100a86 <libmin_printf+0x4e6>
  1013d6:	44a2                	lw	s1,8(sp)
  1013d8:	4442                	lw	s0,16(sp)
  1013da:	13600d13          	li	s10,310
  1013de:	b0f9                	j	100cac <libmin_printf+0x70c>
  1013e0:	13600d13          	li	s10,310
  1013e4:	b0e1                	j	100cac <libmin_printf+0x70c>
  1013e6:	4785                	li	a5,1
  1013e8:	ce3e                	sw	a5,28(sp)
  1013ea:	02b00793          	li	a5,43
  1013ee:	cc3e                	sw	a5,24(sp)
  1013f0:	d2aff06f          	j	10091a <libmin_printf+0x37a>
  1013f4:	007c8313          	addi	t1,s9,7
  1013f8:	ff837313          	andi	t1,t1,-8
  1013fc:	00032603          	lw	a2,0(t1)
  101400:	00830c93          	addi	s9,t1,8
  101404:	bb6d                	j	1011be <libmin_printf+0xc1e>
  101406:	00105a37          	lui	s4,0x105
  10140a:	5e8a0a13          	addi	s4,s4,1512 # 1055e8 <__clz_tab+0x138>
  10140e:	b1cd                	j	1010f0 <libmin_printf+0xb50>
  101410:	000ca783          	lw	a5,0(s9)
  101414:	07010c13          	addi	s8,sp,112
  101418:	0c91                	addi	s9,s9,4
  10141a:	0007ad03          	lw	s10,0(a5) # 80000000 <fromhost+0x7fec7ff0>
  10141e:	43d8                	lw	a4,4(a5)
  101420:	0087ab03          	lw	s6,8(a5)
  101424:	00c7aa83          	lw	s5,12(a5)
  101428:	c96ff06f          	j	1008be <libmin_printf+0x31e>
  10142c:	000ca703          	lw	a4,0(s9)
  101430:	8cb6                	mv	s9,a3
  101432:	c31c                	sw	a5,0(a4)
  101434:	bd4ff06f          	j	100808 <libmin_printf+0x268>
  101438:	000ca703          	lw	a4,0(s9)
  10143c:	8cb6                	mv	s9,a3
  10143e:	00f71023          	sh	a5,0(a4)
  101442:	bc6ff06f          	j	100808 <libmin_printf+0x268>
  101446:	000ca703          	lw	a4,0(s9)
  10144a:	8cb6                	mv	s9,a3
  10144c:	c31c                	sw	a5,0(a4)
  10144e:	00072223          	sw	zero,4(a4)
  101452:	bb6ff06f          	j	100808 <libmin_printf+0x268>
  101456:	007c8313          	addi	t1,s9,7
  10145a:	ff837313          	andi	t1,t1,-8
  10145e:	00032603          	lw	a2,0(t1)
  101462:	00830c93          	addi	s9,t1,8
  101466:	bdcff06f          	j	100842 <libmin_printf+0x2a2>
  10146a:	007c8313          	addi	t1,s9,7
  10146e:	ff837313          	andi	t1,t1,-8
  101472:	00032603          	lw	a2,0(t1)
  101476:	00830c93          	addi	s9,t1,8
  10147a:	b80ff06f          	j	1007fa <libmin_printf+0x25a>
  10147e:	007c8313          	addi	t1,s9,7
  101482:	ff837313          	andi	t1,t1,-8
  101486:	00032603          	lw	a2,0(t1)
  10148a:	00830c93          	addi	s9,t1,8
  10148e:	bb2ff06f          	j	100840 <libmin_printf+0x2a0>
  101492:	c73e                	sw	a5,140(sp)
  101494:	000a4683          	lbu	a3,0(s4)
  101498:	ca069de3          	bnez	a3,101152 <libmin_printf+0xbb2>
  10149c:	b6aff06f          	j	100806 <libmin_printf+0x266>
  1014a0:	ecaa0e93          	addi	t4,s4,-310
  1014a4:	13600a93          	li	s5,310
  1014a8:	b0d9                	j	100d6e <libmin_printf+0x7ce>
  1014aa:	87aa                	mv	a5,a0
  1014ac:	ba51                	j	100e40 <libmin_printf+0x8a0>
  1014ae:	4781                	li	a5,0
  1014b0:	b1b9                	j	1010fe <libmin_printf+0xb5e>
  1014b2:	47a2                	lw	a5,8(sp)
  1014b4:	108c                	addi	a1,sp,96
  1014b6:	8562                	mv	a0,s8
  1014b8:	dabe                	sw	a5,116(sp)
  1014ba:	47c2                	lw	a5,16(sp)
  1014bc:	d8ea                	sw	s10,112(sp)
  1014be:	d082                	sw	zero,96(sp)
  1014c0:	dcbe                	sw	a5,120(sp)
  1014c2:	47d2                	lw	a5,20(sp)
  1014c4:	d282                	sw	zero,100(sp)
  1014c6:	d482                	sw	zero,104(sp)
  1014c8:	debe                	sw	a5,124(sp)
  1014ca:	400247b7          	lui	a5,0x40024
  1014ce:	d6be                	sw	a5,108(sp)
  1014d0:	3a9010ef          	jal	ra,103078 <__getf2>
  1014d4:	f4054563          	bltz	a0,100c1e <libmin_printf+0x67e>
  1014d8:	001057b7          	lui	a5,0x105
  1014dc:	2747a683          	lw	a3,628(a5) # 105274 <.SnowflakeIoT$10005$addilo$foo+0x34>
  1014e0:	2707a603          	lw	a2,624(a5)
  1014e4:	8556                	mv	a0,s5
  1014e6:	85da                	mv	a1,s6
  1014e8:	2559                	jal	101b6e <__adddf3>
  1014ea:	8aaa                	mv	s5,a0
  1014ec:	8b2e                	mv	s6,a1
  1014ee:	c92a                	sw	a0,144(sp)
  1014f0:	cb2e                	sw	a1,148(sp)
  1014f2:	4681                	li	a3,0
  1014f4:	4701                	li	a4,0
  1014f6:	400247b7          	lui	a5,0x40024
  1014fa:	eeaff06f          	j	100be4 <libmin_printf+0x644>
  1014fe:	44c2                	lw	s1,16(sp)
  101500:	4452                	lw	s0,20(sp)
  101502:	ecaa0e93          	addi	t4,s4,-310
  101506:	13600a93          	li	s5,310
  10150a:	b095                	j	100d6e <libmin_printf+0x7ce>
  10150c:	001057b7          	lui	a5,0x105
  101510:	62c7ad03          	lw	s10,1580(a5) # 10562c <__clz_tab+0x17c>
  101514:	4781                	li	a5,0
  101516:	c9cff06f          	j	1009b2 <libmin_printf+0x412>
  10151a:	4781                	li	a5,0
  10151c:	40059d37          	lui	s10,0x40059
  101520:	c92ff06f          	j	1009b2 <libmin_printf+0x412>
  101524:	4781                	li	a5,0
  101526:	40024d37          	lui	s10,0x40024
  10152a:	c88ff06f          	j	1009b2 <libmin_printf+0x412>
  10152e:	4b5a                	lw	s6,148(sp)
  101530:	4aca                	lw	s5,144(sp)
  101532:	853a                	mv	a0,a4
  101534:	86da                	mv	a3,s6
  101536:	8656                	mv	a2,s5
  101538:	85c2                	mv	a1,a6
  10153a:	234010ef          	jal	ra,10276e <__subdf3>
  10153e:	8d2a                	mv	s10,a0
  101540:	c42e                	sw	a1,8(sp)
  101542:	115010ef          	jal	ra,102e56 <__fixdfdi>
  101546:	4622                	lw	a2,8(sp)
  101548:	882a                	mv	a6,a0
  10154a:	86ae                	mv	a3,a1
  10154c:	8562                	mv	a0,s8
  10154e:	85ea                	mv	a1,s10
  101550:	c436                	sw	a3,8(sp)
  101552:	8d42                	mv	s10,a6
  101554:	0a9030ef          	jal	ra,104dfc <__extenddftf2>
  101558:	46a2                	lw	a3,8(sp)
  10155a:	5e46                	lw	t3,112(sp)
  10155c:	5856                	lw	a6,116(sp)
  10155e:	57e6                	lw	a5,120(sp)
  101560:	5776                	lw	a4,124(sp)
  101562:	8636                	mv	a2,a3
  101564:	85ea                	mv	a1,s10
  101566:	1088                	addi	a0,sp,96
  101568:	d436                	sw	a3,40(sp)
  10156a:	d272                	sw	t3,36(sp)
  10156c:	ca42                	sw	a6,20(sp)
  10156e:	c83e                	sw	a5,16(sp)
  101570:	c43a                	sw	a4,8(sp)
  101572:	770030ef          	jal	ra,104ce2 <__floatditf>
  101576:	4722                	lw	a4,8(sp)
  101578:	089c                	addi	a5,sp,80
  10157a:	5e12                	lw	t3,36(sp)
  10157c:	c6ba                	sw	a4,76(sp)
  10157e:	5706                	lw	a4,96(sp)
  101580:	4852                	lw	a6,20(sp)
  101582:	853e                	mv	a0,a5
  101584:	d83a                	sw	a4,48(sp)
  101586:	5716                	lw	a4,100(sp)
  101588:	d03e                	sw	a5,32(sp)
  10158a:	47c2                	lw	a5,16(sp)
  10158c:	da3a                	sw	a4,52(sp)
  10158e:	5726                	lw	a4,104(sp)
  101590:	1810                	addi	a2,sp,48
  101592:	008c                	addi	a1,sp,64
  101594:	dc3a                	sw	a4,56(sp)
  101596:	5736                	lw	a4,108(sp)
  101598:	c0f2                	sw	t3,64(sp)
  10159a:	c2c2                	sw	a6,68(sp)
  10159c:	c4be                	sw	a5,72(sp)
  10159e:	de3a                	sw	a4,60(sp)
  1015a0:	7ce020ef          	jal	ra,103d6e <__subtf3>
  1015a4:	4746                	lw	a4,80(sp)
  1015a6:	180c                	addi	a1,sp,48
  1015a8:	0088                	addi	a0,sp,64
  1015aa:	c0ba                	sw	a4,64(sp)
  1015ac:	4756                	lw	a4,84(sp)
  1015ae:	d802                	sw	zero,48(sp)
  1015b0:	da02                	sw	zero,52(sp)
  1015b2:	c2ba                	sw	a4,68(sp)
  1015b4:	4766                	lw	a4,88(sp)
  1015b6:	dc02                	sw	zero,56(sp)
  1015b8:	c4ba                	sw	a4,72(sp)
  1015ba:	4776                	lw	a4,92(sp)
  1015bc:	c6ba                	sw	a4,76(sp)
  1015be:	3ffe0737          	lui	a4,0x3ffe0
  1015c2:	de3a                	sw	a4,60(sp)
  1015c4:	2b5010ef          	jal	ra,103078 <__getf2>
  1015c8:	56a2                	lw	a3,40(sp)
  1015ca:	0e054863          	bltz	a0,1016ba <libmin_printf+0x111a>
  1015ce:	001d0513          	addi	a0,s10,1 # 40024001 <fromhost+0x3feebff1>
  1015d2:	01a535b3          	sltu	a1,a0,s10
  1015d6:	95b6                	add	a1,a1,a3
  1015d8:	125010ef          	jal	ra,102efc <__floatdidf>
  1015dc:	87ae                	mv	a5,a1
  1015de:	872a                	mv	a4,a0
  1015e0:	863e                	mv	a2,a5
  1015e2:	d42a                	sw	a0,40(sp)
  1015e4:	d22e                	sw	a1,36(sp)
  1015e6:	85aa                	mv	a1,a0
  1015e8:	8562                	mv	a0,s8
  1015ea:	cd3a                	sw	a4,152(sp)
  1015ec:	cf3e                	sw	a5,156(sp)
  1015ee:	00f030ef          	jal	ra,104dfc <__extenddftf2>
  1015f2:	57d6                	lw	a5,116(sp)
  1015f4:	5722                	lw	a4,40(sp)
  1015f6:	5d46                	lw	s10,112(sp)
  1015f8:	c43e                	sw	a5,8(sp)
  1015fa:	57e6                	lw	a5,120(sp)
  1015fc:	853a                	mv	a0,a4
  1015fe:	c83e                	sw	a5,16(sp)
  101600:	57f6                	lw	a5,124(sp)
  101602:	ca3e                	sw	a5,20(sp)
  101604:	5792                	lw	a5,36(sp)
  101606:	85be                	mv	a1,a5
  101608:	001057b7          	lui	a5,0x105
  10160c:	2707a603          	lw	a2,624(a5) # 105270 <.SnowflakeIoT$10005$addilo$foo+0x30>
  101610:	2747a683          	lw	a3,628(a5)
  101614:	3cf000ef          	jal	ra,1021e2 <__gedf2>
  101618:	e0054363          	bltz	a0,100c1e <libmin_printf+0x67e>
  10161c:	001057b7          	lui	a5,0x105
  101620:	2747a683          	lw	a3,628(a5) # 105274 <.SnowflakeIoT$10005$addilo$foo+0x34>
  101624:	2707a603          	lw	a2,624(a5)
  101628:	8556                	mv	a0,s5
  10162a:	85da                	mv	a1,s6
  10162c:	2389                	jal	101b6e <__adddf3>
  10162e:	8aaa                	mv	s5,a0
  101630:	8b2e                	mv	s6,a1
  101632:	c92a                	sw	a0,144(sp)
  101634:	cb2e                	sw	a1,148(sp)
  101636:	4681                	li	a3,0
  101638:	4701                	li	a4,0
  10163a:	3fff07b7          	lui	a5,0x3fff0
  10163e:	da6ff06f          	j	100be4 <libmin_printf+0x644>
  101642:	001057b7          	lui	a5,0x105
  101646:	6ac7ad03          	lw	s10,1708(a5) # 1056ac <__clz_tab+0x1fc>
  10164a:	6e8007b7          	lui	a5,0x6e800
  10164e:	b64ff06f          	j	1009b2 <libmin_printf+0x412>
  101652:	001057b7          	lui	a5,0x105
  101656:	66c7ad03          	lw	s10,1644(a5) # 10566c <__clz_tab+0x1bc>
  10165a:	4781                	li	a5,0
  10165c:	b56ff06f          	j	1009b2 <libmin_printf+0x412>
  101660:	001057b7          	lui	a5,0x105
  101664:	65c7ad03          	lw	s10,1628(a5) # 10565c <__clz_tab+0x1ac>
  101668:	4781                	li	a5,0
  10166a:	b48ff06f          	j	1009b2 <libmin_printf+0x412>
  10166e:	001057b7          	lui	a5,0x105
  101672:	64c7ad03          	lw	s10,1612(a5) # 10564c <__clz_tab+0x19c>
  101676:	4781                	li	a5,0
  101678:	b3aff06f          	j	1009b2 <libmin_printf+0x412>
  10167c:	001057b7          	lui	a5,0x105
  101680:	63c7ad03          	lw	s10,1596(a5) # 10563c <__clz_tab+0x18c>
  101684:	4781                	li	a5,0
  101686:	b2cff06f          	j	1009b2 <libmin_printf+0x412>
  10168a:	001057b7          	lui	a5,0x105
  10168e:	68c7ad03          	lw	s10,1676(a5) # 10568c <__clz_tab+0x1dc>
  101692:	500007b7          	lui	a5,0x50000
  101696:	b1cff06f          	j	1009b2 <libmin_printf+0x412>
  10169a:	001057b7          	lui	a5,0x105
  10169e:	67c7ad03          	lw	s10,1660(a5) # 10567c <__clz_tab+0x1cc>
  1016a2:	400007b7          	lui	a5,0x40000
  1016a6:	b0cff06f          	j	1009b2 <libmin_printf+0x412>
  1016aa:	001057b7          	lui	a5,0x105
  1016ae:	69c7ad03          	lw	s10,1692(a5) # 10569c <__clz_tab+0x1ec>
  1016b2:	f20007b7          	lui	a5,0xf2000
  1016b6:	afcff06f          	j	1009b2 <libmin_printf+0x412>
  1016ba:	856a                	mv	a0,s10
  1016bc:	85b6                	mv	a1,a3
  1016be:	bf29                	j	1015d8 <libmin_printf+0x1038>
  1016c0:	001057b7          	lui	a5,0x105
  1016c4:	6ac7a783          	lw	a5,1708(a5) # 1056ac <__clz_tab+0x1fc>
  1016c8:	6e800737          	lui	a4,0x6e800
  1016cc:	c60ff06f          	j	100b2c <libmin_printf+0x58c>
  1016d0:	001057b7          	lui	a5,0x105
  1016d4:	69c7a783          	lw	a5,1692(a5) # 10569c <__clz_tab+0x1ec>
  1016d8:	f2000737          	lui	a4,0xf2000
  1016dc:	c50ff06f          	j	100b2c <libmin_printf+0x58c>
  1016e0:	001057b7          	lui	a5,0x105
  1016e4:	68c7a783          	lw	a5,1676(a5) # 10568c <__clz_tab+0x1dc>
  1016e8:	50000737          	lui	a4,0x50000
  1016ec:	c40ff06f          	j	100b2c <libmin_printf+0x58c>
  1016f0:	001057b7          	lui	a5,0x105
  1016f4:	67c7a783          	lw	a5,1660(a5) # 10567c <__clz_tab+0x1cc>
  1016f8:	40000737          	lui	a4,0x40000
  1016fc:	c30ff06f          	j	100b2c <libmin_printf+0x58c>
  101700:	001057b7          	lui	a5,0x105
  101704:	66c7a783          	lw	a5,1644(a5) # 10566c <__clz_tab+0x1bc>
  101708:	4701                	li	a4,0
  10170a:	c22ff06f          	j	100b2c <libmin_printf+0x58c>
  10170e:	001057b7          	lui	a5,0x105
  101712:	65c7a783          	lw	a5,1628(a5) # 10565c <__clz_tab+0x1ac>
  101716:	4701                	li	a4,0
  101718:	c14ff06f          	j	100b2c <libmin_printf+0x58c>
  10171c:	001057b7          	lui	a5,0x105
  101720:	64c7a783          	lw	a5,1612(a5) # 10564c <__clz_tab+0x19c>
  101724:	4701                	li	a4,0
  101726:	c06ff06f          	j	100b2c <libmin_printf+0x58c>
  10172a:	001057b7          	lui	a5,0x105
  10172e:	63c7a783          	lw	a5,1596(a5) # 10563c <__clz_tab+0x18c>
  101732:	4701                	li	a4,0
  101734:	bf8ff06f          	j	100b2c <libmin_printf+0x58c>
  101738:	001057b7          	lui	a5,0x105
  10173c:	60c7ad03          	lw	s10,1548(a5) # 10560c <__clz_tab+0x15c>
  101740:	526347b7          	lui	a5,0x52634
  101744:	a6eff06f          	j	1009b2 <libmin_printf+0x412>
  101748:	001057b7          	lui	a5,0x105
  10174c:	61c7ad03          	lw	s10,1564(a5) # 10561c <__clz_tab+0x16c>
  101750:	41e907b7          	lui	a5,0x41e90
  101754:	a5eff06f          	j	1009b2 <libmin_printf+0x412>
  101758:	001057b7          	lui	a5,0x105
  10175c:	6cc7ad03          	lw	s10,1740(a5) # 1056cc <__clz_tab+0x21c>
  101760:	ce5407b7          	lui	a5,0xce540
  101764:	a4eff06f          	j	1009b2 <libmin_printf+0x412>
  101768:	001057b7          	lui	a5,0x105
  10176c:	6bc7ad03          	lw	s10,1724(a5) # 1056bc <__clz_tab+0x20c>
  101770:	4a2007b7          	lui	a5,0x4a200
  101774:	a3eff06f          	j	1009b2 <libmin_printf+0x412>
  101778:	001057b7          	lui	a5,0x105
  10177c:	60c7a783          	lw	a5,1548(a5) # 10560c <__clz_tab+0x15c>
  101780:	52634737          	lui	a4,0x52634
  101784:	ba8ff06f          	j	100b2c <libmin_printf+0x58c>
  101788:	001057b7          	lui	a5,0x105
  10178c:	61c7a783          	lw	a5,1564(a5) # 10561c <__clz_tab+0x16c>
  101790:	41e90737          	lui	a4,0x41e90
  101794:	b98ff06f          	j	100b2c <libmin_printf+0x58c>
  101798:	001057b7          	lui	a5,0x105
  10179c:	6cc7a783          	lw	a5,1740(a5) # 1056cc <__clz_tab+0x21c>
  1017a0:	ce540737          	lui	a4,0xce540
  1017a4:	b88ff06f          	j	100b2c <libmin_printf+0x58c>
  1017a8:	001057b7          	lui	a5,0x105
  1017ac:	6bc7a783          	lw	a5,1724(a5) # 1056bc <__clz_tab+0x20c>
  1017b0:	4a200737          	lui	a4,0x4a200
  1017b4:	b78ff06f          	j	100b2c <libmin_printf+0x58c>
  1017b8:	001057b7          	lui	a5,0x105
  1017bc:	62c7a783          	lw	a5,1580(a5) # 10562c <__clz_tab+0x17c>
  1017c0:	4701                	li	a4,0
  1017c2:	b6aff06f          	j	100b2c <libmin_printf+0x58c>
  1017c6:	4701                	li	a4,0
  1017c8:	400597b7          	lui	a5,0x40059
  1017cc:	b60ff06f          	j	100b2c <libmin_printf+0x58c>
  1017d0:	4030c7b7          	lui	a5,0x4030c
  1017d4:	4681                	li	a3,0
  1017d6:	52634737          	lui	a4,0x52634
  1017da:	6bf78793          	addi	a5,a5,1727 # 4030c6bf <fromhost+0x401d46af>
  1017de:	c06ff06f          	j	100be4 <libmin_printf+0x644>
  1017e2:	001057b7          	lui	a5,0x105
  1017e6:	61c7a783          	lw	a5,1564(a5) # 10561c <__clz_tab+0x16c>
  1017ea:	4681                	li	a3,0
  1017ec:	41e90737          	lui	a4,0x41e90
  1017f0:	bf4ff06f          	j	100be4 <libmin_printf+0x644>
  1017f4:	001057b7          	lui	a5,0x105
  1017f8:	6cc7a783          	lw	a5,1740(a5) # 1056cc <__clz_tab+0x21c>
  1017fc:	4681                	li	a3,0
  1017fe:	ce540737          	lui	a4,0xce540
  101802:	be2ff06f          	j	100be4 <libmin_printf+0x644>
  101806:	001057b7          	lui	a5,0x105
  10180a:	6bc7a783          	lw	a5,1724(a5) # 1056bc <__clz_tab+0x20c>
  10180e:	4681                	li	a3,0
  101810:	4a200737          	lui	a4,0x4a200
  101814:	bd0ff06f          	j	100be4 <libmin_printf+0x644>
  101818:	001057b7          	lui	a5,0x105
  10181c:	6ac7a783          	lw	a5,1708(a5) # 1056ac <__clz_tab+0x1fc>
  101820:	4681                	li	a3,0
  101822:	6e800737          	lui	a4,0x6e800
  101826:	bbeff06f          	j	100be4 <libmin_printf+0x644>
  10182a:	001057b7          	lui	a5,0x105
  10182e:	69c7a783          	lw	a5,1692(a5) # 10569c <__clz_tab+0x1ec>
  101832:	4681                	li	a3,0
  101834:	f2000737          	lui	a4,0xf2000
  101838:	bacff06f          	j	100be4 <libmin_printf+0x644>
  10183c:	001057b7          	lui	a5,0x105
  101840:	68c7a783          	lw	a5,1676(a5) # 10568c <__clz_tab+0x1dc>
  101844:	4681                	li	a3,0
  101846:	50000737          	lui	a4,0x50000
  10184a:	b9aff06f          	j	100be4 <libmin_printf+0x644>
  10184e:	001057b7          	lui	a5,0x105
  101852:	67c7a783          	lw	a5,1660(a5) # 10567c <__clz_tab+0x1cc>
  101856:	4681                	li	a3,0
  101858:	40000737          	lui	a4,0x40000
  10185c:	b88ff06f          	j	100be4 <libmin_printf+0x644>
  101860:	001057b7          	lui	a5,0x105
  101864:	66c7a783          	lw	a5,1644(a5) # 10566c <__clz_tab+0x1bc>
  101868:	4681                	li	a3,0
  10186a:	4701                	li	a4,0
  10186c:	b78ff06f          	j	100be4 <libmin_printf+0x644>
  101870:	001057b7          	lui	a5,0x105
  101874:	65c7a783          	lw	a5,1628(a5) # 10565c <__clz_tab+0x1ac>
  101878:	4681                	li	a3,0
  10187a:	4701                	li	a4,0
  10187c:	b68ff06f          	j	100be4 <libmin_printf+0x644>
  101880:	001057b7          	lui	a5,0x105
  101884:	64c7a783          	lw	a5,1612(a5) # 10564c <__clz_tab+0x19c>
  101888:	4681                	li	a3,0
  10188a:	4701                	li	a4,0
  10188c:	b58ff06f          	j	100be4 <libmin_printf+0x644>
  101890:	001057b7          	lui	a5,0x105
  101894:	63c7a783          	lw	a5,1596(a5) # 10563c <__clz_tab+0x18c>
  101898:	4681                	li	a3,0
  10189a:	4701                	li	a4,0
  10189c:	b48ff06f          	j	100be4 <libmin_printf+0x644>
  1018a0:	001057b7          	lui	a5,0x105
  1018a4:	62c7a783          	lw	a5,1580(a5) # 10562c <__clz_tab+0x17c>
  1018a8:	4681                	li	a3,0
  1018aa:	4701                	li	a4,0
  1018ac:	b38ff06f          	j	100be4 <libmin_printf+0x644>
  1018b0:	4681                	li	a3,0
  1018b2:	4701                	li	a4,0
  1018b4:	400597b7          	lui	a5,0x40059
  1018b8:	b2cff06f          	j	100be4 <libmin_printf+0x644>

001018bc <libmin_success>:
  1018bc:	a4a5                	j	101b24 <libtarg_success>

001018be <_isctype>:
  1018be:	00150713          	addi	a4,a0,1
  1018c2:	10000793          	li	a5,256
  1018c6:	00e7ec63          	bltu	a5,a4,1018de <_isctype+0x20>
  1018ca:	001057b7          	lui	a5,0x105
  1018ce:	7387a783          	lw	a5,1848(a5) # 105738 <_pctype>
  1018d2:	0506                	slli	a0,a0,0x1
  1018d4:	953e                	add	a0,a0,a5
  1018d6:	00055503          	lhu	a0,0(a0)
  1018da:	8d6d                	and	a0,a0,a1
  1018dc:	8082                	ret
  1018de:	4501                	li	a0,0
  1018e0:	8082                	ret

001018e2 <libmin_strlen>:
  1018e2:	cd01                	beqz	a0,1018fa <libmin_strlen+0x18>
  1018e4:	00054783          	lbu	a5,0(a0)
  1018e8:	cb89                	beqz	a5,1018fa <libmin_strlen+0x18>
  1018ea:	87aa                	mv	a5,a0
  1018ec:	0017c703          	lbu	a4,1(a5)
  1018f0:	0785                	addi	a5,a5,1
  1018f2:	ff6d                	bnez	a4,1018ec <libmin_strlen+0xa>
  1018f4:	40a78533          	sub	a0,a5,a0
  1018f8:	8082                	ret
  1018fa:	4501                	li	a0,0
  1018fc:	8082                	ret

001018fe <libmin_memset>:
  1018fe:	10060263          	beqz	a2,101a02 <libmin_memset+0x104>
  101902:	0ff5f593          	andi	a1,a1,255
  101906:	00c507b3          	add	a5,a0,a2
  10190a:	feb78fa3          	sb	a1,-1(a5)
  10190e:	00b50023          	sb	a1,0(a0)
  101912:	4709                	li	a4,2
  101914:	0ec77763          	bgeu	a4,a2,101a02 <libmin_memset+0x104>
  101918:	feb78f23          	sb	a1,-2(a5)
  10191c:	00b500a3          	sb	a1,1(a0)
  101920:	feb78ea3          	sb	a1,-3(a5)
  101924:	00b50123          	sb	a1,2(a0)
  101928:	4719                	li	a4,6
  10192a:	0cc77c63          	bgeu	a4,a2,101a02 <libmin_memset+0x104>
  10192e:	feb78e23          	sb	a1,-4(a5)
  101932:	00b501a3          	sb	a1,3(a0)
  101936:	47a1                	li	a5,8
  101938:	0cc7f563          	bgeu	a5,a2,101a02 <libmin_memset+0x104>
  10193c:	40a007b3          	neg	a5,a0
  101940:	0037fe13          	andi	t3,a5,3
  101944:	41c60633          	sub	a2,a2,t3
  101948:	01c50733          	add	a4,a0,t3
  10194c:	9a71                	andi	a2,a2,-4
  10194e:	40e007b3          	neg	a5,a4
  101952:	fff60893          	addi	a7,a2,-1
  101956:	4695                	li	a3,5
  101958:	8b8d                	andi	a5,a5,3
  10195a:	0b16f863          	bgeu	a3,a7,101a0a <libmin_memset+0x10c>
  10195e:	c3dd                	beqz	a5,101a04 <libmin_memset+0x106>
  101960:	00b70023          	sb	a1,0(a4) # 40000000 <fromhost+0x3fec7ff0>
  101964:	4685                	li	a3,1
  101966:	00170313          	addi	t1,a4,1
  10196a:	02d78163          	beq	a5,a3,10198c <libmin_memset+0x8e>
  10196e:	00b700a3          	sb	a1,1(a4)
  101972:	468d                	li	a3,3
  101974:	ffe60893          	addi	a7,a2,-2
  101978:	00270313          	addi	t1,a4,2
  10197c:	00d79863          	bne	a5,a3,10198c <libmin_memset+0x8e>
  101980:	00b70123          	sb	a1,2(a4)
  101984:	ffd60893          	addi	a7,a2,-3
  101988:	00370313          	addi	t1,a4,3
  10198c:	00859813          	slli	a6,a1,0x8
  101990:	8e1d                	sub	a2,a2,a5
  101992:	0105e833          	or	a6,a1,a6
  101996:	01059693          	slli	a3,a1,0x10
  10199a:	97f2                	add	a5,a5,t3
  10199c:	00d866b3          	or	a3,a6,a3
  1019a0:	01859713          	slli	a4,a1,0x18
  1019a4:	97aa                	add	a5,a5,a0
  1019a6:	ffc67813          	andi	a6,a2,-4
  1019aa:	8f55                	or	a4,a4,a3
  1019ac:	00f806b3          	add	a3,a6,a5
  1019b0:	c398                	sw	a4,0(a5)
  1019b2:	0791                	addi	a5,a5,4
  1019b4:	fed79ee3          	bne	a5,a3,1019b0 <libmin_memset+0xb2>
  1019b8:	ffc67713          	andi	a4,a2,-4
  1019bc:	40e888b3          	sub	a7,a7,a4
  1019c0:	00e307b3          	add	a5,t1,a4
  1019c4:	02e60f63          	beq	a2,a4,101a02 <libmin_memset+0x104>
  1019c8:	00b78023          	sb	a1,0(a5)
  1019cc:	18fd                	addi	a7,a7,-1
  1019ce:	0785                	addi	a5,a5,1
  1019d0:	02088963          	beqz	a7,101a02 <libmin_memset+0x104>
  1019d4:	00b78023          	sb	a1,0(a5)
  1019d8:	fff88713          	addi	a4,a7,-1
  1019dc:	c31d                	beqz	a4,101a02 <libmin_memset+0x104>
  1019de:	00b780a3          	sb	a1,1(a5)
  1019e2:	ffe88713          	addi	a4,a7,-2
  1019e6:	cf11                	beqz	a4,101a02 <libmin_memset+0x104>
  1019e8:	00b78123          	sb	a1,2(a5)
  1019ec:	ffd88713          	addi	a4,a7,-3
  1019f0:	cb09                	beqz	a4,101a02 <libmin_memset+0x104>
  1019f2:	00b781a3          	sb	a1,3(a5)
  1019f6:	4711                	li	a4,4
  1019f8:	00e88563          	beq	a7,a4,101a02 <libmin_memset+0x104>
  1019fc:	00b78223          	sb	a1,4(a5)
  101a00:	8082                	ret
  101a02:	8082                	ret
  101a04:	833a                	mv	t1,a4
  101a06:	88b2                	mv	a7,a2
  101a08:	b751                	j	10198c <libmin_memset+0x8e>
  101a0a:	00b70023          	sb	a1,0(a4)
  101a0e:	00170793          	addi	a5,a4,1
  101a12:	b7c9                	j	1019d4 <libmin_memset+0xd6>

00101a14 <libmin_memcpy>:
  101a14:	c659                	beqz	a2,101aa2 <libmin_memcpy+0x8e>
  101a16:	00158693          	addi	a3,a1,1
  101a1a:	40d507b3          	sub	a5,a0,a3
  101a1e:	fff60713          	addi	a4,a2,-1
  101a22:	0037b793          	sltiu	a5,a5,3
  101a26:	00973713          	sltiu	a4,a4,9
  101a2a:	0017c793          	xori	a5,a5,1
  101a2e:	00174713          	xori	a4,a4,1
  101a32:	8ff9                	and	a5,a5,a4
  101a34:	cfa9                	beqz	a5,101a8e <libmin_memcpy+0x7a>
  101a36:	00b567b3          	or	a5,a0,a1
  101a3a:	8b8d                	andi	a5,a5,3
  101a3c:	eba9                	bnez	a5,101a8e <libmin_memcpy+0x7a>
  101a3e:	ffc67813          	andi	a6,a2,-4
  101a42:	87ae                	mv	a5,a1
  101a44:	872a                	mv	a4,a0
  101a46:	982e                	add	a6,a6,a1
  101a48:	4394                	lw	a3,0(a5)
  101a4a:	0791                	addi	a5,a5,4
  101a4c:	0711                	addi	a4,a4,4
  101a4e:	fed72e23          	sw	a3,-4(a4)
  101a52:	ff079be3          	bne	a5,a6,101a48 <libmin_memcpy+0x34>
  101a56:	ffc67793          	andi	a5,a2,-4
  101a5a:	00367693          	andi	a3,a2,3
  101a5e:	00f50733          	add	a4,a0,a5
  101a62:	95be                	add	a1,a1,a5
  101a64:	02f60f63          	beq	a2,a5,101aa2 <libmin_memcpy+0x8e>
  101a68:	0005c603          	lbu	a2,0(a1)
  101a6c:	fff68793          	addi	a5,a3,-1
  101a70:	00c70023          	sb	a2,0(a4)
  101a74:	c79d                	beqz	a5,101aa2 <libmin_memcpy+0x8e>
  101a76:	0015c603          	lbu	a2,1(a1)
  101a7a:	4789                	li	a5,2
  101a7c:	00c700a3          	sb	a2,1(a4)
  101a80:	02f68163          	beq	a3,a5,101aa2 <libmin_memcpy+0x8e>
  101a84:	0025c783          	lbu	a5,2(a1)
  101a88:	00f70123          	sb	a5,2(a4)
  101a8c:	8082                	ret
  101a8e:	962a                	add	a2,a2,a0
  101a90:	87aa                	mv	a5,a0
  101a92:	fff6c703          	lbu	a4,-1(a3)
  101a96:	0785                	addi	a5,a5,1
  101a98:	0685                	addi	a3,a3,1
  101a9a:	fee78fa3          	sb	a4,-1(a5)
  101a9e:	fec79ae3          	bne	a5,a2,101a92 <libmin_memcpy+0x7e>
  101aa2:	8082                	ret

00101aa4 <simple_putchar>:
  101aa4:	00020737          	lui	a4,0x20
  101aa8:	c308                	sw	a0,0(a4)
  101aaa:	8082                	ret

00101aac <simple_halt>:
  101aac:	000207b7          	lui	a5,0x20
  101ab0:	4705                	li	a4,1
  101ab2:	c798                	sw	a4,8(a5)
  101ab4:	8082                	ret

00101ab6 <memset>:
  101ab6:	b5a1                	j	1018fe <libmin_memset>

00101ab8 <memcpy>:
  101ab8:	bfb1                	j	101a14 <libmin_memcpy>

00101aba <simple_get_mepc>:
  101aba:	34102573          	csrr	a0,mepc
  101abe:	8082                	ret

00101ac0 <simple_get_mcause>:
  101ac0:	34202573          	csrr	a0,mcause
  101ac4:	8082                	ret

00101ac6 <simple_get_mtval>:
  101ac6:	34302573          	csrr	a0,mtval
  101aca:	8082                	ret

00101acc <simple_exc_handler>:
  101acc:	00105537          	lui	a0,0x105
  101ad0:	1141                	addi	sp,sp,-16
  101ad2:	6d050513          	addi	a0,a0,1744 # 1056d0 <__clz_tab+0x220>
  101ad6:	c606                	sw	ra,12(sp)
  101ad8:	ac9fe0ef          	jal	ra,1005a0 <libmin_printf>
  101adc:	00105537          	lui	a0,0x105
  101ae0:	6e050513          	addi	a0,a0,1760 # 1056e0 <__clz_tab+0x230>
  101ae4:	abdfe0ef          	jal	ra,1005a0 <libmin_printf>
  101ae8:	341025f3          	csrr	a1,mepc
  101aec:	34202673          	csrr	a2,mcause
  101af0:	343026f3          	csrr	a3,mtval
  101af4:	00105537          	lui	a0,0x105
  101af8:	6f050513          	addi	a0,a0,1776 # 1056f0 <__clz_tab+0x240>
  101afc:	aa5fe0ef          	jal	ra,1005a0 <libmin_printf>
  101b00:	000207b7          	lui	a5,0x20
  101b04:	4705                	li	a4,1
  101b06:	c798                	sw	a4,8(a5)
  101b08:	a001                	j	101b08 <simple_exc_handler+0x3c>

00101b0a <simple_timer_handler>:
  101b0a:	00105537          	lui	a0,0x105
  101b0e:	1141                	addi	sp,sp,-16
  101b10:	71c50513          	addi	a0,a0,1820 # 10571c <__clz_tab+0x26c>
  101b14:	c606                	sw	ra,12(sp)
  101b16:	a8bfe0ef          	jal	ra,1005a0 <libmin_printf>
  101b1a:	000207b7          	lui	a5,0x20
  101b1e:	4705                	li	a4,1
  101b20:	c798                	sw	a4,8(a5)
  101b22:	a001                	j	101b22 <simple_timer_handler+0x18>

00101b24 <libtarg_success>:
  101b24:	000207b7          	lui	a5,0x20
  101b28:	4705                	li	a4,1
  101b2a:	c798                	sw	a4,8(a5)
  101b2c:	8082                	ret

00101b2e <libtarg_fail>:
  101b2e:	000207b7          	lui	a5,0x20
  101b32:	4705                	li	a4,1
  101b34:	c798                	sw	a4,8(a5)
  101b36:	8082                	ret

00101b38 <libtarg_putc>:
  101b38:	000207b7          	lui	a5,0x20
  101b3c:	c388                	sw	a0,0(a5)
  101b3e:	8082                	ret

00101b40 <libtarg_sbrk>:
  101b40:	00106637          	lui	a2,0x106
  101b44:	94062683          	lw	a3,-1728(a2) # 105940 <__heap_ptr>
  101b48:	001067b7          	lui	a5,0x106
  101b4c:	872a                	mv	a4,a0
  101b4e:	94478793          	addi	a5,a5,-1724 # 105944 <__heap>
  101b52:	00f68533          	add	a0,a3,a5
  101b56:	cb19                	beqz	a4,101b6c <libtarg_sbrk+0x2c>
  101b58:	9736                	add	a4,a4,a3
  101b5a:	94e62023          	sw	a4,-1728(a2)
  101b5e:	67a1                	lui	a5,0x8
  101b60:	00f76663          	bltu	a4,a5,101b6c <libtarg_sbrk+0x2c>
  101b64:	000207b7          	lui	a5,0x20
  101b68:	4705                	li	a4,1
  101b6a:	c798                	sw	a4,8(a5)
  101b6c:	8082                	ret

00101b6e <__adddf3>:
  101b6e:	00100837          	lui	a6,0x100
  101b72:	187d                	addi	a6,a6,-1
  101b74:	1101                	addi	sp,sp,-32
  101b76:	00b877b3          	and	a5,a6,a1
  101b7a:	0145d713          	srli	a4,a1,0x14
  101b7e:	00d87833          	and	a6,a6,a3
  101b82:	0146d313          	srli	t1,a3,0x14
  101b86:	cc22                	sw	s0,24(sp)
  101b88:	078e                	slli	a5,a5,0x3
  101b8a:	7ff77413          	andi	s0,a4,2047
  101b8e:	01d55713          	srli	a4,a0,0x1d
  101b92:	080e                	slli	a6,a6,0x3
  101b94:	ca26                	sw	s1,20(sp)
  101b96:	8fd9                	or	a5,a5,a4
  101b98:	01f5d493          	srli	s1,a1,0x1f
  101b9c:	01d65713          	srli	a4,a2,0x1d
  101ba0:	7ff37313          	andi	t1,t1,2047
  101ba4:	ce06                	sw	ra,28(sp)
  101ba6:	c84a                	sw	s2,16(sp)
  101ba8:	c64e                	sw	s3,12(sp)
  101baa:	82fd                	srli	a3,a3,0x1f
  101bac:	01076733          	or	a4,a4,a6
  101bb0:	00351593          	slli	a1,a0,0x3
  101bb4:	060e                	slli	a2,a2,0x3
  101bb6:	40640833          	sub	a6,s0,t1
  101bba:	22d49863          	bne	s1,a3,101dea <__adddf3+0x27c>
  101bbe:	0f005363          	blez	a6,101ca4 <__adddf3+0x136>
  101bc2:	02031863          	bnez	t1,101bf2 <__adddf3+0x84>
  101bc6:	00c766b3          	or	a3,a4,a2
  101bca:	58068363          	beqz	a3,102150 <__adddf3+0x5e2>
  101bce:	fff80513          	addi	a0,a6,-1 # fffff <tohost+0xdfff7>
  101bd2:	e909                	bnez	a0,101be4 <__adddf3+0x76>
  101bd4:	962e                	add	a2,a2,a1
  101bd6:	00b63533          	sltu	a0,a2,a1
  101bda:	97ba                	add	a5,a5,a4
  101bdc:	97aa                	add	a5,a5,a0
  101bde:	85b2                	mv	a1,a2
  101be0:	4405                	li	s0,1
  101be2:	a8b9                	j	101c40 <__adddf3+0xd2>
  101be4:	7ff00693          	li	a3,2047
  101be8:	00d81d63          	bne	a6,a3,101c02 <__adddf3+0x94>
  101bec:	7ff00413          	li	s0,2047
  101bf0:	a24d                	j	101d92 <__adddf3+0x224>
  101bf2:	7ff00693          	li	a3,2047
  101bf6:	18d40e63          	beq	s0,a3,101d92 <__adddf3+0x224>
  101bfa:	008006b7          	lui	a3,0x800
  101bfe:	8f55                	or	a4,a4,a3
  101c00:	8542                	mv	a0,a6
  101c02:	03800693          	li	a3,56
  101c06:	08a6cb63          	blt	a3,a0,101c9c <__adddf3+0x12e>
  101c0a:	46fd                	li	a3,31
  101c0c:	06a6c263          	blt	a3,a0,101c70 <__adddf3+0x102>
  101c10:	02000813          	li	a6,32
  101c14:	40a80833          	sub	a6,a6,a0
  101c18:	010716b3          	sll	a3,a4,a6
  101c1c:	00a658b3          	srl	a7,a2,a0
  101c20:	01061633          	sll	a2,a2,a6
  101c24:	0116e6b3          	or	a3,a3,a7
  101c28:	00c03633          	snez	a2,a2
  101c2c:	8e55                	or	a2,a2,a3
  101c2e:	00a75733          	srl	a4,a4,a0
  101c32:	962e                	add	a2,a2,a1
  101c34:	00b63533          	sltu	a0,a2,a1
  101c38:	973e                	add	a4,a4,a5
  101c3a:	00a707b3          	add	a5,a4,a0
  101c3e:	85b2                	mv	a1,a2
  101c40:	00800737          	lui	a4,0x800
  101c44:	8f7d                	and	a4,a4,a5
  101c46:	14070663          	beqz	a4,101d92 <__adddf3+0x224>
  101c4a:	0405                	addi	s0,s0,1
  101c4c:	7ff00713          	li	a4,2047
  101c50:	48e40d63          	beq	s0,a4,1020ea <__adddf3+0x57c>
  101c54:	ff800737          	lui	a4,0xff800
  101c58:	177d                	addi	a4,a4,-1
  101c5a:	8ff9                	and	a5,a5,a4
  101c5c:	0015f513          	andi	a0,a1,1
  101c60:	0015d713          	srli	a4,a1,0x1
  101c64:	8d59                	or	a0,a0,a4
  101c66:	01f79593          	slli	a1,a5,0x1f
  101c6a:	8dc9                	or	a1,a1,a0
  101c6c:	8385                	srli	a5,a5,0x1
  101c6e:	a215                	j	101d92 <__adddf3+0x224>
  101c70:	fe050693          	addi	a3,a0,-32
  101c74:	02000893          	li	a7,32
  101c78:	00d756b3          	srl	a3,a4,a3
  101c7c:	4801                	li	a6,0
  101c7e:	01150863          	beq	a0,a7,101c8e <__adddf3+0x120>
  101c82:	04000813          	li	a6,64
  101c86:	40a80533          	sub	a0,a6,a0
  101c8a:	00a71833          	sll	a6,a4,a0
  101c8e:	00c86633          	or	a2,a6,a2
  101c92:	00c03633          	snez	a2,a2
  101c96:	8e55                	or	a2,a2,a3
  101c98:	4701                	li	a4,0
  101c9a:	bf61                	j	101c32 <__adddf3+0xc4>
  101c9c:	8e59                	or	a2,a2,a4
  101c9e:	00c03633          	snez	a2,a2
  101ca2:	bfdd                	j	101c98 <__adddf3+0x12a>
  101ca4:	0a080b63          	beqz	a6,101d5a <__adddf3+0x1ec>
  101ca8:	40830533          	sub	a0,t1,s0
  101cac:	e40d                	bnez	s0,101cd6 <__adddf3+0x168>
  101cae:	00b7e6b3          	or	a3,a5,a1
  101cb2:	42068363          	beqz	a3,1020d8 <__adddf3+0x56a>
  101cb6:	fff50693          	addi	a3,a0,-1
  101cba:	e699                	bnez	a3,101cc8 <__adddf3+0x15a>
  101cbc:	95b2                	add	a1,a1,a2
  101cbe:	97ba                	add	a5,a5,a4
  101cc0:	00c5b633          	sltu	a2,a1,a2
  101cc4:	97b2                	add	a5,a5,a2
  101cc6:	bf29                	j	101be0 <__adddf3+0x72>
  101cc8:	7ff00813          	li	a6,2047
  101ccc:	01051d63          	bne	a0,a6,101ce6 <__adddf3+0x178>
  101cd0:	87ba                	mv	a5,a4
  101cd2:	85b2                	mv	a1,a2
  101cd4:	bf21                	j	101bec <__adddf3+0x7e>
  101cd6:	7ff00693          	li	a3,2047
  101cda:	fed30be3          	beq	t1,a3,101cd0 <__adddf3+0x162>
  101cde:	008006b7          	lui	a3,0x800
  101ce2:	8fd5                	or	a5,a5,a3
  101ce4:	86aa                	mv	a3,a0
  101ce6:	03800513          	li	a0,56
  101cea:	06d54363          	blt	a0,a3,101d50 <__adddf3+0x1e2>
  101cee:	457d                	li	a0,31
  101cf0:	02d54b63          	blt	a0,a3,101d26 <__adddf3+0x1b8>
  101cf4:	02000813          	li	a6,32
  101cf8:	40d80833          	sub	a6,a6,a3
  101cfc:	01079533          	sll	a0,a5,a6
  101d00:	00d5d8b3          	srl	a7,a1,a3
  101d04:	010595b3          	sll	a1,a1,a6
  101d08:	01156533          	or	a0,a0,a7
  101d0c:	00b035b3          	snez	a1,a1
  101d10:	8d4d                	or	a0,a0,a1
  101d12:	00d7d7b3          	srl	a5,a5,a3
  101d16:	00c505b3          	add	a1,a0,a2
  101d1a:	97ba                	add	a5,a5,a4
  101d1c:	00c5b633          	sltu	a2,a1,a2
  101d20:	97b2                	add	a5,a5,a2
  101d22:	841a                	mv	s0,t1
  101d24:	bf31                	j	101c40 <__adddf3+0xd2>
  101d26:	fe068513          	addi	a0,a3,-32 # 7fffe0 <fromhost+0x6c7fd0>
  101d2a:	02000893          	li	a7,32
  101d2e:	00a7d833          	srl	a6,a5,a0
  101d32:	4501                	li	a0,0
  101d34:	01168763          	beq	a3,a7,101d42 <__adddf3+0x1d4>
  101d38:	04000513          	li	a0,64
  101d3c:	8d15                	sub	a0,a0,a3
  101d3e:	00a79533          	sll	a0,a5,a0
  101d42:	8d4d                	or	a0,a0,a1
  101d44:	00a03533          	snez	a0,a0
  101d48:	00a86533          	or	a0,a6,a0
  101d4c:	4781                	li	a5,0
  101d4e:	b7e1                	j	101d16 <__adddf3+0x1a8>
  101d50:	00b7e533          	or	a0,a5,a1
  101d54:	00a03533          	snez	a0,a0
  101d58:	bfd5                	j	101d4c <__adddf3+0x1de>
  101d5a:	00140693          	addi	a3,s0,1
  101d5e:	7fe6f513          	andi	a0,a3,2046
  101d62:	e13d                	bnez	a0,101dc8 <__adddf3+0x25a>
  101d64:	00b7e6b3          	or	a3,a5,a1
  101d68:	e429                	bnez	s0,101db2 <__adddf3+0x244>
  101d6a:	36068b63          	beqz	a3,1020e0 <__adddf3+0x572>
  101d6e:	00c766b3          	or	a3,a4,a2
  101d72:	c285                	beqz	a3,101d92 <__adddf3+0x224>
  101d74:	962e                	add	a2,a2,a1
  101d76:	97ba                	add	a5,a5,a4
  101d78:	00b63533          	sltu	a0,a2,a1
  101d7c:	97aa                	add	a5,a5,a0
  101d7e:	00800737          	lui	a4,0x800
  101d82:	8f7d                	and	a4,a4,a5
  101d84:	85b2                	mv	a1,a2
  101d86:	c711                	beqz	a4,101d92 <__adddf3+0x224>
  101d88:	ff800737          	lui	a4,0xff800
  101d8c:	177d                	addi	a4,a4,-1
  101d8e:	8ff9                	and	a5,a5,a4
  101d90:	4405                	li	s0,1
  101d92:	0075f713          	andi	a4,a1,7
  101d96:	34070c63          	beqz	a4,1020ee <__adddf3+0x580>
  101d9a:	00f5f713          	andi	a4,a1,15
  101d9e:	4691                	li	a3,4
  101da0:	34d70763          	beq	a4,a3,1020ee <__adddf3+0x580>
  101da4:	00458713          	addi	a4,a1,4
  101da8:	00b73533          	sltu	a0,a4,a1
  101dac:	97aa                	add	a5,a5,a0
  101dae:	85ba                	mv	a1,a4
  101db0:	ae3d                	j	1020ee <__adddf3+0x580>
  101db2:	de99                	beqz	a3,101cd0 <__adddf3+0x162>
  101db4:	8e59                	or	a2,a2,a4
  101db6:	e2060be3          	beqz	a2,101bec <__adddf3+0x7e>
  101dba:	4481                	li	s1,0
  101dbc:	004007b7          	lui	a5,0x400
  101dc0:	4581                	li	a1,0
  101dc2:	7ff00413          	li	s0,2047
  101dc6:	a625                	j	1020ee <__adddf3+0x580>
  101dc8:	7ff00513          	li	a0,2047
  101dcc:	30a68d63          	beq	a3,a0,1020e6 <__adddf3+0x578>
  101dd0:	962e                	add	a2,a2,a1
  101dd2:	00b63533          	sltu	a0,a2,a1
  101dd6:	97ba                	add	a5,a5,a4
  101dd8:	97aa                	add	a5,a5,a0
  101dda:	01f79513          	slli	a0,a5,0x1f
  101dde:	8205                	srli	a2,a2,0x1
  101de0:	00c565b3          	or	a1,a0,a2
  101de4:	8385                	srli	a5,a5,0x1
  101de6:	8436                	mv	s0,a3
  101de8:	b76d                	j	101d92 <__adddf3+0x224>
  101dea:	0d005663          	blez	a6,101eb6 <__adddf3+0x348>
  101dee:	08031163          	bnez	t1,101e70 <__adddf3+0x302>
  101df2:	00c766b3          	or	a3,a4,a2
  101df6:	34068d63          	beqz	a3,102150 <__adddf3+0x5e2>
  101dfa:	fff80513          	addi	a0,a6,-1
  101dfe:	e911                	bnez	a0,101e12 <__adddf3+0x2a4>
  101e00:	40c58633          	sub	a2,a1,a2
  101e04:	00c5b533          	sltu	a0,a1,a2
  101e08:	8f99                	sub	a5,a5,a4
  101e0a:	8f89                	sub	a5,a5,a0
  101e0c:	85b2                	mv	a1,a2
  101e0e:	4405                	li	s0,1
  101e10:	a0b1                	j	101e5c <__adddf3+0x2ee>
  101e12:	7ff00693          	li	a3,2047
  101e16:	dcd80be3          	beq	a6,a3,101bec <__adddf3+0x7e>
  101e1a:	03800693          	li	a3,56
  101e1e:	08a6c863          	blt	a3,a0,101eae <__adddf3+0x340>
  101e22:	46fd                	li	a3,31
  101e24:	04a6cf63          	blt	a3,a0,101e82 <__adddf3+0x314>
  101e28:	02000813          	li	a6,32
  101e2c:	40a80833          	sub	a6,a6,a0
  101e30:	010716b3          	sll	a3,a4,a6
  101e34:	00a658b3          	srl	a7,a2,a0
  101e38:	01061633          	sll	a2,a2,a6
  101e3c:	0116e6b3          	or	a3,a3,a7
  101e40:	00c03633          	snez	a2,a2
  101e44:	8e55                	or	a2,a2,a3
  101e46:	00a75733          	srl	a4,a4,a0
  101e4a:	40c58633          	sub	a2,a1,a2
  101e4e:	00c5b533          	sltu	a0,a1,a2
  101e52:	40e78733          	sub	a4,a5,a4
  101e56:	40a707b3          	sub	a5,a4,a0
  101e5a:	85b2                	mv	a1,a2
  101e5c:	00800937          	lui	s2,0x800
  101e60:	0127f733          	and	a4,a5,s2
  101e64:	d71d                	beqz	a4,101d92 <__adddf3+0x224>
  101e66:	197d                	addi	s2,s2,-1
  101e68:	0127f933          	and	s2,a5,s2
  101e6c:	89ae                	mv	s3,a1
  101e6e:	aa5d                	j	102024 <__adddf3+0x4b6>
  101e70:	7ff00693          	li	a3,2047
  101e74:	f0d40fe3          	beq	s0,a3,101d92 <__adddf3+0x224>
  101e78:	008006b7          	lui	a3,0x800
  101e7c:	8f55                	or	a4,a4,a3
  101e7e:	8542                	mv	a0,a6
  101e80:	bf69                	j	101e1a <__adddf3+0x2ac>
  101e82:	fe050693          	addi	a3,a0,-32
  101e86:	02000893          	li	a7,32
  101e8a:	00d756b3          	srl	a3,a4,a3
  101e8e:	4801                	li	a6,0
  101e90:	01150863          	beq	a0,a7,101ea0 <__adddf3+0x332>
  101e94:	04000813          	li	a6,64
  101e98:	40a80533          	sub	a0,a6,a0
  101e9c:	00a71833          	sll	a6,a4,a0
  101ea0:	00c86633          	or	a2,a6,a2
  101ea4:	00c03633          	snez	a2,a2
  101ea8:	8e55                	or	a2,a2,a3
  101eaa:	4701                	li	a4,0
  101eac:	bf79                	j	101e4a <__adddf3+0x2dc>
  101eae:	8e59                	or	a2,a2,a4
  101eb0:	00c03633          	snez	a2,a2
  101eb4:	bfdd                	j	101eaa <__adddf3+0x33c>
  101eb6:	0c080563          	beqz	a6,101f80 <__adddf3+0x412>
  101eba:	40830533          	sub	a0,t1,s0
  101ebe:	e81d                	bnez	s0,101ef4 <__adddf3+0x386>
  101ec0:	00b7e833          	or	a6,a5,a1
  101ec4:	28080863          	beqz	a6,102154 <__adddf3+0x5e6>
  101ec8:	fff50813          	addi	a6,a0,-1
  101ecc:	00081b63          	bnez	a6,101ee2 <__adddf3+0x374>
  101ed0:	40b605b3          	sub	a1,a2,a1
  101ed4:	40f707b3          	sub	a5,a4,a5
  101ed8:	00b63633          	sltu	a2,a2,a1
  101edc:	8f91                	sub	a5,a5,a2
  101ede:	84b6                	mv	s1,a3
  101ee0:	b73d                	j	101e0e <__adddf3+0x2a0>
  101ee2:	7ff00893          	li	a7,2047
  101ee6:	03151063          	bne	a0,a7,101f06 <__adddf3+0x398>
  101eea:	87ba                	mv	a5,a4
  101eec:	85b2                	mv	a1,a2
  101eee:	7ff00413          	li	s0,2047
  101ef2:	a07d                	j	101fa0 <__adddf3+0x432>
  101ef4:	7ff00813          	li	a6,2047
  101ef8:	ff0309e3          	beq	t1,a6,101eea <__adddf3+0x37c>
  101efc:	00800837          	lui	a6,0x800
  101f00:	0107e7b3          	or	a5,a5,a6
  101f04:	882a                	mv	a6,a0
  101f06:	03800513          	li	a0,56
  101f0a:	07054663          	blt	a0,a6,101f76 <__adddf3+0x408>
  101f0e:	457d                	li	a0,31
  101f10:	03054d63          	blt	a0,a6,101f4a <__adddf3+0x3dc>
  101f14:	02000893          	li	a7,32
  101f18:	410888b3          	sub	a7,a7,a6
  101f1c:	01179533          	sll	a0,a5,a7
  101f20:	0105de33          	srl	t3,a1,a6
  101f24:	011595b3          	sll	a1,a1,a7
  101f28:	01c56533          	or	a0,a0,t3
  101f2c:	00b035b3          	snez	a1,a1
  101f30:	8d4d                	or	a0,a0,a1
  101f32:	0107d7b3          	srl	a5,a5,a6
  101f36:	40a605b3          	sub	a1,a2,a0
  101f3a:	40f707b3          	sub	a5,a4,a5
  101f3e:	00b63633          	sltu	a2,a2,a1
  101f42:	8f91                	sub	a5,a5,a2
  101f44:	841a                	mv	s0,t1
  101f46:	84b6                	mv	s1,a3
  101f48:	bf11                	j	101e5c <__adddf3+0x2ee>
  101f4a:	fe080513          	addi	a0,a6,-32 # 7fffe0 <fromhost+0x6c7fd0>
  101f4e:	02000e13          	li	t3,32
  101f52:	00a7d8b3          	srl	a7,a5,a0
  101f56:	4501                	li	a0,0
  101f58:	01c80863          	beq	a6,t3,101f68 <__adddf3+0x3fa>
  101f5c:	04000513          	li	a0,64
  101f60:	41050533          	sub	a0,a0,a6
  101f64:	00a79533          	sll	a0,a5,a0
  101f68:	8d4d                	or	a0,a0,a1
  101f6a:	00a03533          	snez	a0,a0
  101f6e:	00a8e533          	or	a0,a7,a0
  101f72:	4781                	li	a5,0
  101f74:	b7c9                	j	101f36 <__adddf3+0x3c8>
  101f76:	00b7e533          	or	a0,a5,a1
  101f7a:	00a03533          	snez	a0,a0
  101f7e:	bfd5                	j	101f72 <__adddf3+0x404>
  101f80:	00140513          	addi	a0,s0,1
  101f84:	7fe57513          	andi	a0,a0,2046
  101f88:	e925                	bnez	a0,101ff8 <__adddf3+0x48a>
  101f8a:	00b7e833          	or	a6,a5,a1
  101f8e:	00c76533          	or	a0,a4,a2
  101f92:	e821                	bnez	s0,101fe2 <__adddf3+0x474>
  101f94:	00081863          	bnez	a6,101fa4 <__adddf3+0x436>
  101f98:	1c050263          	beqz	a0,10215c <__adddf3+0x5ee>
  101f9c:	87ba                	mv	a5,a4
  101f9e:	85b2                	mv	a1,a2
  101fa0:	84b6                	mv	s1,a3
  101fa2:	bbc5                	j	101d92 <__adddf3+0x224>
  101fa4:	de0507e3          	beqz	a0,101d92 <__adddf3+0x224>
  101fa8:	40c58833          	sub	a6,a1,a2
  101fac:	0105b8b3          	sltu	a7,a1,a6
  101fb0:	40e78533          	sub	a0,a5,a4
  101fb4:	41150533          	sub	a0,a0,a7
  101fb8:	008008b7          	lui	a7,0x800
  101fbc:	011578b3          	and	a7,a0,a7
  101fc0:	00088a63          	beqz	a7,101fd4 <__adddf3+0x466>
  101fc4:	40b605b3          	sub	a1,a2,a1
  101fc8:	40f707b3          	sub	a5,a4,a5
  101fcc:	00b63633          	sltu	a2,a2,a1
  101fd0:	8f91                	sub	a5,a5,a2
  101fd2:	b7f9                	j	101fa0 <__adddf3+0x432>
  101fd4:	00a865b3          	or	a1,a6,a0
  101fd8:	18058663          	beqz	a1,102164 <__adddf3+0x5f6>
  101fdc:	87aa                	mv	a5,a0
  101fde:	85c2                	mv	a1,a6
  101fe0:	bb4d                	j	101d92 <__adddf3+0x224>
  101fe2:	00081863          	bnez	a6,101ff2 <__adddf3+0x484>
  101fe6:	18050163          	beqz	a0,102168 <__adddf3+0x5fa>
  101fea:	87ba                	mv	a5,a4
  101fec:	85b2                	mv	a1,a2
  101fee:	84b6                	mv	s1,a3
  101ff0:	bef5                	j	101bec <__adddf3+0x7e>
  101ff2:	be050de3          	beqz	a0,101bec <__adddf3+0x7e>
  101ff6:	b3d1                	j	101dba <__adddf3+0x24c>
  101ff8:	40c589b3          	sub	s3,a1,a2
  101ffc:	0135b533          	sltu	a0,a1,s3
  102000:	40e78933          	sub	s2,a5,a4
  102004:	40a90933          	sub	s2,s2,a0
  102008:	00800537          	lui	a0,0x800
  10200c:	00a97533          	and	a0,s2,a0
  102010:	c925                	beqz	a0,102080 <__adddf3+0x512>
  102012:	40b609b3          	sub	s3,a2,a1
  102016:	40f707b3          	sub	a5,a4,a5
  10201a:	01363633          	sltu	a2,a2,s3
  10201e:	40c78933          	sub	s2,a5,a2
  102022:	84b6                	mv	s1,a3
  102024:	06090463          	beqz	s2,10208c <__adddf3+0x51e>
  102028:	854a                	mv	a0,s2
  10202a:	1b2030ef          	jal	ra,1051dc <__clzsi2>
  10202e:	ff850713          	addi	a4,a0,-8 # 7ffff8 <fromhost+0x6c7fe8>
  102032:	47fd                	li	a5,31
  102034:	06e7c263          	blt	a5,a4,102098 <__adddf3+0x52a>
  102038:	02000793          	li	a5,32
  10203c:	8f99                	sub	a5,a5,a4
  10203e:	00e91933          	sll	s2,s2,a4
  102042:	00f9d7b3          	srl	a5,s3,a5
  102046:	0127e7b3          	or	a5,a5,s2
  10204a:	00e995b3          	sll	a1,s3,a4
  10204e:	06874f63          	blt	a4,s0,1020cc <__adddf3+0x55e>
  102052:	8f01                	sub	a4,a4,s0
  102054:	00170693          	addi	a3,a4,1 # ff800001 <fromhost+0xff6c7ff1>
  102058:	467d                	li	a2,31
  10205a:	04d64563          	blt	a2,a3,1020a4 <__adddf3+0x536>
  10205e:	02000713          	li	a4,32
  102062:	8f15                	sub	a4,a4,a3
  102064:	00e79633          	sll	a2,a5,a4
  102068:	00d5d533          	srl	a0,a1,a3
  10206c:	00e595b3          	sll	a1,a1,a4
  102070:	8e49                	or	a2,a2,a0
  102072:	00b035b3          	snez	a1,a1
  102076:	8dd1                	or	a1,a1,a2
  102078:	00d7d7b3          	srl	a5,a5,a3
  10207c:	4401                	li	s0,0
  10207e:	bb11                	j	101d92 <__adddf3+0x224>
  102080:	0129e5b3          	or	a1,s3,s2
  102084:	f1c5                	bnez	a1,102024 <__adddf3+0x4b6>
  102086:	4781                	li	a5,0
  102088:	4401                	li	s0,0
  10208a:	a8d9                	j	102160 <__adddf3+0x5f2>
  10208c:	854e                	mv	a0,s3
  10208e:	14e030ef          	jal	ra,1051dc <__clzsi2>
  102092:	02050513          	addi	a0,a0,32
  102096:	bf61                	j	10202e <__adddf3+0x4c0>
  102098:	fd850793          	addi	a5,a0,-40
  10209c:	00f997b3          	sll	a5,s3,a5
  1020a0:	4581                	li	a1,0
  1020a2:	b775                	j	10204e <__adddf3+0x4e0>
  1020a4:	1705                	addi	a4,a4,-31
  1020a6:	02000613          	li	a2,32
  1020aa:	00e7d733          	srl	a4,a5,a4
  1020ae:	4501                	li	a0,0
  1020b0:	00c68763          	beq	a3,a2,1020be <__adddf3+0x550>
  1020b4:	04000513          	li	a0,64
  1020b8:	8d15                	sub	a0,a0,a3
  1020ba:	00a79533          	sll	a0,a5,a0
  1020be:	8d4d                	or	a0,a0,a1
  1020c0:	00a03533          	snez	a0,a0
  1020c4:	00a765b3          	or	a1,a4,a0
  1020c8:	4781                	li	a5,0
  1020ca:	bf4d                	j	10207c <__adddf3+0x50e>
  1020cc:	8c19                	sub	s0,s0,a4
  1020ce:	ff800737          	lui	a4,0xff800
  1020d2:	177d                	addi	a4,a4,-1
  1020d4:	8ff9                	and	a5,a5,a4
  1020d6:	b975                	j	101d92 <__adddf3+0x224>
  1020d8:	87ba                	mv	a5,a4
  1020da:	85b2                	mv	a1,a2
  1020dc:	842a                	mv	s0,a0
  1020de:	b955                	j	101d92 <__adddf3+0x224>
  1020e0:	87ba                	mv	a5,a4
  1020e2:	85b2                	mv	a1,a2
  1020e4:	b17d                	j	101d92 <__adddf3+0x224>
  1020e6:	7ff00413          	li	s0,2047
  1020ea:	4781                	li	a5,0
  1020ec:	4581                	li	a1,0
  1020ee:	00800737          	lui	a4,0x800
  1020f2:	8f7d                	and	a4,a4,a5
  1020f4:	cb11                	beqz	a4,102108 <__adddf3+0x59a>
  1020f6:	0405                	addi	s0,s0,1
  1020f8:	7ff00713          	li	a4,2047
  1020fc:	06e40b63          	beq	s0,a4,102172 <__adddf3+0x604>
  102100:	ff800737          	lui	a4,0xff800
  102104:	177d                	addi	a4,a4,-1
  102106:	8ff9                	and	a5,a5,a4
  102108:	01d79713          	slli	a4,a5,0x1d
  10210c:	0035d513          	srli	a0,a1,0x3
  102110:	8d59                	or	a0,a0,a4
  102112:	7ff00713          	li	a4,2047
  102116:	838d                	srli	a5,a5,0x3
  102118:	00e41963          	bne	s0,a4,10212a <__adddf3+0x5bc>
  10211c:	8d5d                	or	a0,a0,a5
  10211e:	4781                	li	a5,0
  102120:	c509                	beqz	a0,10212a <__adddf3+0x5bc>
  102122:	000807b7          	lui	a5,0x80
  102126:	4501                	li	a0,0
  102128:	4481                	li	s1,0
  10212a:	01441713          	slli	a4,s0,0x14
  10212e:	7ff006b7          	lui	a3,0x7ff00
  102132:	07b2                	slli	a5,a5,0xc
  102134:	40f2                	lw	ra,28(sp)
  102136:	4462                	lw	s0,24(sp)
  102138:	8f75                	and	a4,a4,a3
  10213a:	83b1                	srli	a5,a5,0xc
  10213c:	04fe                	slli	s1,s1,0x1f
  10213e:	8fd9                	or	a5,a5,a4
  102140:	0097e733          	or	a4,a5,s1
  102144:	4942                	lw	s2,16(sp)
  102146:	44d2                	lw	s1,20(sp)
  102148:	49b2                	lw	s3,12(sp)
  10214a:	85ba                	mv	a1,a4
  10214c:	6105                	addi	sp,sp,32
  10214e:	8082                	ret
  102150:	8442                	mv	s0,a6
  102152:	b181                	j	101d92 <__adddf3+0x224>
  102154:	87ba                	mv	a5,a4
  102156:	85b2                	mv	a1,a2
  102158:	842a                	mv	s0,a0
  10215a:	b599                	j	101fa0 <__adddf3+0x432>
  10215c:	4781                	li	a5,0
  10215e:	4581                	li	a1,0
  102160:	4481                	li	s1,0
  102162:	b771                	j	1020ee <__adddf3+0x580>
  102164:	4781                	li	a5,0
  102166:	bfed                	j	102160 <__adddf3+0x5f2>
  102168:	4581                	li	a1,0
  10216a:	4481                	li	s1,0
  10216c:	004007b7          	lui	a5,0x400
  102170:	b989                	j	101dc2 <__adddf3+0x254>
  102172:	4781                	li	a5,0
  102174:	4581                	li	a1,0
  102176:	bf49                	j	102108 <__adddf3+0x59a>

00102178 <__eqdf2>:
  102178:	0145d713          	srli	a4,a1,0x14
  10217c:	001007b7          	lui	a5,0x100
  102180:	17fd                	addi	a5,a5,-1
  102182:	0146d813          	srli	a6,a3,0x14
  102186:	832a                	mv	t1,a0
  102188:	8eaa                	mv	t4,a0
  10218a:	7ff77713          	andi	a4,a4,2047
  10218e:	7ff00513          	li	a0,2047
  102192:	00b7f8b3          	and	a7,a5,a1
  102196:	8f32                	mv	t5,a2
  102198:	8ff5                	and	a5,a5,a3
  10219a:	81fd                	srli	a1,a1,0x1f
  10219c:	7ff87813          	andi	a6,a6,2047
  1021a0:	82fd                	srli	a3,a3,0x1f
  1021a2:	00a71a63          	bne	a4,a0,1021b6 <__eqdf2+0x3e>
  1021a6:	0068ee33          	or	t3,a7,t1
  1021aa:	4505                	li	a0,1
  1021ac:	000e1463          	bnez	t3,1021b4 <__eqdf2+0x3c>
  1021b0:	00e80563          	beq	a6,a4,1021ba <__eqdf2+0x42>
  1021b4:	8082                	ret
  1021b6:	00a81563          	bne	a6,a0,1021c0 <__eqdf2+0x48>
  1021ba:	8e5d                	or	a2,a2,a5
  1021bc:	4505                	li	a0,1
  1021be:	fa7d                	bnez	a2,1021b4 <__eqdf2+0x3c>
  1021c0:	4505                	li	a0,1
  1021c2:	ff0719e3          	bne	a4,a6,1021b4 <__eqdf2+0x3c>
  1021c6:	fef897e3          	bne	a7,a5,1021b4 <__eqdf2+0x3c>
  1021ca:	ffee95e3          	bne	t4,t5,1021b4 <__eqdf2+0x3c>
  1021ce:	00d58863          	beq	a1,a3,1021de <__eqdf2+0x66>
  1021d2:	f36d                	bnez	a4,1021b4 <__eqdf2+0x3c>
  1021d4:	0068e533          	or	a0,a7,t1
  1021d8:	00a03533          	snez	a0,a0
  1021dc:	8082                	ret
  1021de:	4501                	li	a0,0
  1021e0:	8082                	ret

001021e2 <__gedf2>:
  1021e2:	00100737          	lui	a4,0x100
  1021e6:	177d                	addi	a4,a4,-1
  1021e8:	0145d813          	srli	a6,a1,0x14
  1021ec:	00b778b3          	and	a7,a4,a1
  1021f0:	87aa                	mv	a5,a0
  1021f2:	832a                	mv	t1,a0
  1021f4:	7ff87813          	andi	a6,a6,2047
  1021f8:	01f5d513          	srli	a0,a1,0x1f
  1021fc:	7ff00e93          	li	t4,2047
  102200:	0146d593          	srli	a1,a3,0x14
  102204:	8f75                	and	a4,a4,a3
  102206:	8e32                	mv	t3,a2
  102208:	7ff5f593          	andi	a1,a1,2047
  10220c:	82fd                	srli	a3,a3,0x1f
  10220e:	01d81863          	bne	a6,t4,10221e <__gedf2+0x3c>
  102212:	00f8eeb3          	or	t4,a7,a5
  102216:	060e8463          	beqz	t4,10227e <__gedf2+0x9c>
  10221a:	5579                	li	a0,-2
  10221c:	8082                	ret
  10221e:	01d59663          	bne	a1,t4,10222a <__gedf2+0x48>
  102222:	00c76eb3          	or	t4,a4,a2
  102226:	fe0e9ae3          	bnez	t4,10221a <__gedf2+0x38>
  10222a:	04081c63          	bnez	a6,102282 <__gedf2+0xa0>
  10222e:	00f8e7b3          	or	a5,a7,a5
  102232:	0017b793          	seqz	a5,a5
  102236:	e199                	bnez	a1,10223c <__gedf2+0x5a>
  102238:	8e59                	or	a2,a2,a4
  10223a:	ce0d                	beqz	a2,102274 <__gedf2+0x92>
  10223c:	eb81                	bnez	a5,10224c <__gedf2+0x6a>
  10223e:	00d51463          	bne	a0,a3,102246 <__gedf2+0x64>
  102242:	0105d963          	bge	a1,a6,102254 <__gedf2+0x72>
  102246:	c50d                	beqz	a0,102270 <__gedf2+0x8e>
  102248:	557d                	li	a0,-1
  10224a:	8082                	ret
  10224c:	557d                	li	a0,-1
  10224e:	c691                	beqz	a3,10225a <__gedf2+0x78>
  102250:	8536                	mv	a0,a3
  102252:	8082                	ret
  102254:	00b85463          	bge	a6,a1,10225c <__gedf2+0x7a>
  102258:	d965                	beqz	a0,102248 <__gedf2+0x66>
  10225a:	8082                	ret
  10225c:	ff1765e3          	bltu	a4,a7,102246 <__gedf2+0x64>
  102260:	00e89c63          	bne	a7,a4,102278 <__gedf2+0x96>
  102264:	fe6e61e3          	bltu	t3,t1,102246 <__gedf2+0x64>
  102268:	ffc368e3          	bltu	t1,t3,102258 <__gedf2+0x76>
  10226c:	4501                	li	a0,0
  10226e:	8082                	ret
  102270:	4505                	li	a0,1
  102272:	8082                	ret
  102274:	ffe5                	bnez	a5,10226c <__gedf2+0x8a>
  102276:	bfc1                	j	102246 <__gedf2+0x64>
  102278:	fee8e0e3          	bltu	a7,a4,102258 <__gedf2+0x76>
  10227c:	bfc5                	j	10226c <__gedf2+0x8a>
  10227e:	fb0582e3          	beq	a1,a6,102222 <__gedf2+0x40>
  102282:	fdd5                	bnez	a1,10223e <__gedf2+0x5c>
  102284:	4781                	li	a5,0
  102286:	bf4d                	j	102238 <__gedf2+0x56>

00102288 <__ledf2>:
  102288:	00100737          	lui	a4,0x100
  10228c:	177d                	addi	a4,a4,-1
  10228e:	0145d813          	srli	a6,a1,0x14
  102292:	00b778b3          	and	a7,a4,a1
  102296:	87aa                	mv	a5,a0
  102298:	832a                	mv	t1,a0
  10229a:	7ff87813          	andi	a6,a6,2047
  10229e:	01f5d513          	srli	a0,a1,0x1f
  1022a2:	7ff00e93          	li	t4,2047
  1022a6:	0146d593          	srli	a1,a3,0x14
  1022aa:	8f75                	and	a4,a4,a3
  1022ac:	8e32                	mv	t3,a2
  1022ae:	7ff5f593          	andi	a1,a1,2047
  1022b2:	82fd                	srli	a3,a3,0x1f
  1022b4:	01d81863          	bne	a6,t4,1022c4 <__ledf2+0x3c>
  1022b8:	00f8eeb3          	or	t4,a7,a5
  1022bc:	060e8463          	beqz	t4,102324 <__ledf2+0x9c>
  1022c0:	4509                	li	a0,2
  1022c2:	8082                	ret
  1022c4:	01d59663          	bne	a1,t4,1022d0 <__ledf2+0x48>
  1022c8:	00c76eb3          	or	t4,a4,a2
  1022cc:	fe0e9ae3          	bnez	t4,1022c0 <__ledf2+0x38>
  1022d0:	04081c63          	bnez	a6,102328 <__ledf2+0xa0>
  1022d4:	00f8e7b3          	or	a5,a7,a5
  1022d8:	0017b793          	seqz	a5,a5
  1022dc:	e199                	bnez	a1,1022e2 <__ledf2+0x5a>
  1022de:	8e59                	or	a2,a2,a4
  1022e0:	ce0d                	beqz	a2,10231a <__ledf2+0x92>
  1022e2:	eb81                	bnez	a5,1022f2 <__ledf2+0x6a>
  1022e4:	00d51463          	bne	a0,a3,1022ec <__ledf2+0x64>
  1022e8:	0105d963          	bge	a1,a6,1022fa <__ledf2+0x72>
  1022ec:	c50d                	beqz	a0,102316 <__ledf2+0x8e>
  1022ee:	557d                	li	a0,-1
  1022f0:	8082                	ret
  1022f2:	557d                	li	a0,-1
  1022f4:	c691                	beqz	a3,102300 <__ledf2+0x78>
  1022f6:	8536                	mv	a0,a3
  1022f8:	8082                	ret
  1022fa:	00b85463          	bge	a6,a1,102302 <__ledf2+0x7a>
  1022fe:	d965                	beqz	a0,1022ee <__ledf2+0x66>
  102300:	8082                	ret
  102302:	ff1765e3          	bltu	a4,a7,1022ec <__ledf2+0x64>
  102306:	00e89c63          	bne	a7,a4,10231e <__ledf2+0x96>
  10230a:	fe6e61e3          	bltu	t3,t1,1022ec <__ledf2+0x64>
  10230e:	ffc368e3          	bltu	t1,t3,1022fe <__ledf2+0x76>
  102312:	4501                	li	a0,0
  102314:	8082                	ret
  102316:	4505                	li	a0,1
  102318:	8082                	ret
  10231a:	ffe5                	bnez	a5,102312 <__ledf2+0x8a>
  10231c:	bfc1                	j	1022ec <__ledf2+0x64>
  10231e:	fee8e0e3          	bltu	a7,a4,1022fe <__ledf2+0x76>
  102322:	bfc5                	j	102312 <__ledf2+0x8a>
  102324:	fb0582e3          	beq	a1,a6,1022c8 <__ledf2+0x40>
  102328:	fdd5                	bnez	a1,1022e4 <__ledf2+0x5c>
  10232a:	4781                	li	a5,0
  10232c:	bf4d                	j	1022de <__ledf2+0x56>

0010232e <__muldf3>:
  10232e:	7179                	addi	sp,sp,-48
  102330:	ce4e                	sw	s3,28(sp)
  102332:	0145d993          	srli	s3,a1,0x14
  102336:	d422                	sw	s0,40(sp)
  102338:	d226                	sw	s1,36(sp)
  10233a:	cc52                	sw	s4,24(sp)
  10233c:	ca56                	sw	s5,20(sp)
  10233e:	c65e                	sw	s7,12(sp)
  102340:	00c59493          	slli	s1,a1,0xc
  102344:	d606                	sw	ra,44(sp)
  102346:	d04a                	sw	s2,32(sp)
  102348:	c85a                	sw	s6,16(sp)
  10234a:	7ff9f993          	andi	s3,s3,2047
  10234e:	842a                	mv	s0,a0
  102350:	8bb2                	mv	s7,a2
  102352:	8ab6                	mv	s5,a3
  102354:	80b1                	srli	s1,s1,0xc
  102356:	01f5da13          	srli	s4,a1,0x1f
  10235a:	08098063          	beqz	s3,1023da <__muldf3+0xac>
  10235e:	7ff00793          	li	a5,2047
  102362:	0cf98463          	beq	s3,a5,10242a <__muldf3+0xfc>
  102366:	01d55793          	srli	a5,a0,0x1d
  10236a:	048e                	slli	s1,s1,0x3
  10236c:	8cdd                	or	s1,s1,a5
  10236e:	008007b7          	lui	a5,0x800
  102372:	8cdd                	or	s1,s1,a5
  102374:	00351913          	slli	s2,a0,0x3
  102378:	c0198993          	addi	s3,s3,-1023
  10237c:	4b01                	li	s6,0
  10237e:	014ad513          	srli	a0,s5,0x14
  102382:	00ca9413          	slli	s0,s5,0xc
  102386:	7ff57513          	andi	a0,a0,2047
  10238a:	8031                	srli	s0,s0,0xc
  10238c:	01fada93          	srli	s5,s5,0x1f
  102390:	cd5d                	beqz	a0,10244e <__muldf3+0x120>
  102392:	7ff00793          	li	a5,2047
  102396:	10f50463          	beq	a0,a5,10249e <__muldf3+0x170>
  10239a:	01dbd793          	srli	a5,s7,0x1d
  10239e:	040e                	slli	s0,s0,0x3
  1023a0:	8c5d                	or	s0,s0,a5
  1023a2:	008007b7          	lui	a5,0x800
  1023a6:	8c5d                	or	s0,s0,a5
  1023a8:	c0150513          	addi	a0,a0,-1023
  1023ac:	003b9793          	slli	a5,s7,0x3
  1023b0:	4701                	li	a4,0
  1023b2:	002b1693          	slli	a3,s6,0x2
  1023b6:	8ed9                	or	a3,a3,a4
  1023b8:	954e                	add	a0,a0,s3
  1023ba:	16fd                	addi	a3,a3,-1
  1023bc:	4839                	li	a6,14
  1023be:	015a4633          	xor	a2,s4,s5
  1023c2:	00150593          	addi	a1,a0,1
  1023c6:	0ed86d63          	bltu	a6,a3,1024c0 <__muldf3+0x192>
  1023ca:	00105537          	lui	a0,0x105
  1023ce:	068a                	slli	a3,a3,0x2
  1023d0:	43850513          	addi	a0,a0,1080 # 105438 <.SnowflakeIoT$20001$jtab$084+0x150>
  1023d4:	96aa                	add	a3,a3,a0
  1023d6:	4294                	lw	a3,0(a3)
  1023d8:	8682                	jr	a3
  1023da:	00a4e933          	or	s2,s1,a0
  1023de:	04090f63          	beqz	s2,10243c <__muldf3+0x10e>
  1023e2:	c88d                	beqz	s1,102414 <__muldf3+0xe6>
  1023e4:	8526                	mv	a0,s1
  1023e6:	5f7020ef          	jal	ra,1051dc <__clzsi2>
  1023ea:	ff550713          	addi	a4,a0,-11
  1023ee:	47f1                	li	a5,28
  1023f0:	02e7c763          	blt	a5,a4,10241e <__muldf3+0xf0>
  1023f4:	47f5                	li	a5,29
  1023f6:	ff850913          	addi	s2,a0,-8
  1023fa:	8f99                	sub	a5,a5,a4
  1023fc:	012494b3          	sll	s1,s1,s2
  102400:	00f457b3          	srl	a5,s0,a5
  102404:	8cdd                	or	s1,s1,a5
  102406:	01241933          	sll	s2,s0,s2
  10240a:	c0d00993          	li	s3,-1011
  10240e:	40a989b3          	sub	s3,s3,a0
  102412:	b7ad                	j	10237c <__muldf3+0x4e>
  102414:	5c9020ef          	jal	ra,1051dc <__clzsi2>
  102418:	02050513          	addi	a0,a0,32
  10241c:	b7f9                	j	1023ea <__muldf3+0xbc>
  10241e:	fd850493          	addi	s1,a0,-40
  102422:	009414b3          	sll	s1,s0,s1
  102426:	4901                	li	s2,0
  102428:	b7cd                	j	10240a <__muldf3+0xdc>
  10242a:	00a4e933          	or	s2,s1,a0
  10242e:	00090b63          	beqz	s2,102444 <__muldf3+0x116>
  102432:	892a                	mv	s2,a0
  102434:	7ff00993          	li	s3,2047
  102438:	4b0d                	li	s6,3
  10243a:	b791                	j	10237e <__muldf3+0x50>
  10243c:	4481                	li	s1,0
  10243e:	4981                	li	s3,0
  102440:	4b05                	li	s6,1
  102442:	bf35                	j	10237e <__muldf3+0x50>
  102444:	4481                	li	s1,0
  102446:	7ff00993          	li	s3,2047
  10244a:	4b09                	li	s6,2
  10244c:	bf0d                	j	10237e <__muldf3+0x50>
  10244e:	017467b3          	or	a5,s0,s7
  102452:	cfb1                	beqz	a5,1024ae <__muldf3+0x180>
  102454:	c80d                	beqz	s0,102486 <__muldf3+0x158>
  102456:	8522                	mv	a0,s0
  102458:	585020ef          	jal	ra,1051dc <__clzsi2>
  10245c:	ff550693          	addi	a3,a0,-11
  102460:	47f1                	li	a5,28
  102462:	02d7c863          	blt	a5,a3,102492 <__muldf3+0x164>
  102466:	4775                	li	a4,29
  102468:	ff850793          	addi	a5,a0,-8
  10246c:	8f15                	sub	a4,a4,a3
  10246e:	00f41433          	sll	s0,s0,a5
  102472:	00ebd733          	srl	a4,s7,a4
  102476:	8c59                	or	s0,s0,a4
  102478:	00fb97b3          	sll	a5,s7,a5
  10247c:	c0d00713          	li	a4,-1011
  102480:	40a70533          	sub	a0,a4,a0
  102484:	b735                	j	1023b0 <__muldf3+0x82>
  102486:	855e                	mv	a0,s7
  102488:	555020ef          	jal	ra,1051dc <__clzsi2>
  10248c:	02050513          	addi	a0,a0,32
  102490:	b7f1                	j	10245c <__muldf3+0x12e>
  102492:	fd850413          	addi	s0,a0,-40
  102496:	008b9433          	sll	s0,s7,s0
  10249a:	4781                	li	a5,0
  10249c:	b7c5                	j	10247c <__muldf3+0x14e>
  10249e:	017467b3          	or	a5,s0,s7
  1024a2:	cb91                	beqz	a5,1024b6 <__muldf3+0x188>
  1024a4:	87de                	mv	a5,s7
  1024a6:	7ff00513          	li	a0,2047
  1024aa:	470d                	li	a4,3
  1024ac:	b719                	j	1023b2 <__muldf3+0x84>
  1024ae:	4401                	li	s0,0
  1024b0:	4501                	li	a0,0
  1024b2:	4705                	li	a4,1
  1024b4:	bdfd                	j	1023b2 <__muldf3+0x84>
  1024b6:	4401                	li	s0,0
  1024b8:	7ff00513          	li	a0,2047
  1024bc:	4709                	li	a4,2
  1024be:	bdd5                	j	1023b2 <__muldf3+0x84>
  1024c0:	6f41                	lui	t5,0x10
  1024c2:	ffff0e93          	addi	t4,t5,-1 # ffff <_stack_len+0x7fff>
  1024c6:	01095713          	srli	a4,s2,0x10
  1024ca:	0107d893          	srli	a7,a5,0x10
  1024ce:	01d97933          	and	s2,s2,t4
  1024d2:	01d7f7b3          	and	a5,a5,t4
  1024d6:	03288833          	mul	a6,a7,s2
  1024da:	02f906b3          	mul	a3,s2,a5
  1024de:	02f70fb3          	mul	t6,a4,a5
  1024e2:	01f80333          	add	t1,a6,t6
  1024e6:	0106d813          	srli	a6,a3,0x10
  1024ea:	981a                	add	a6,a6,t1
  1024ec:	03170e33          	mul	t3,a4,a7
  1024f0:	01f87363          	bgeu	a6,t6,1024f6 <__muldf3+0x1c8>
  1024f4:	9e7a                	add	t3,t3,t5
  1024f6:	01085393          	srli	t2,a6,0x10
  1024fa:	01d87833          	and	a6,a6,t4
  1024fe:	01d6f6b3          	and	a3,a3,t4
  102502:	01045f13          	srli	t5,s0,0x10
  102506:	01d472b3          	and	t0,s0,t4
  10250a:	0842                	slli	a6,a6,0x10
  10250c:	9836                	add	a6,a6,a3
  10250e:	02570eb3          	mul	t4,a4,t0
  102512:	025906b3          	mul	a3,s2,t0
  102516:	032f0933          	mul	s2,t5,s2
  10251a:	01d90333          	add	t1,s2,t4
  10251e:	0106d913          	srli	s2,a3,0x10
  102522:	991a                	add	s2,s2,t1
  102524:	03e70733          	mul	a4,a4,t5
  102528:	01d97463          	bgeu	s2,t4,102530 <__muldf3+0x202>
  10252c:	6341                	lui	t1,0x10
  10252e:	971a                	add	a4,a4,t1
  102530:	01095e93          	srli	t4,s2,0x10
  102534:	69c1                	lui	s3,0x10
  102536:	9eba                	add	t4,t4,a4
  102538:	fff98713          	addi	a4,s3,-1 # ffff <_stack_len+0x7fff>
  10253c:	00e97933          	and	s2,s2,a4
  102540:	8ef9                	and	a3,a3,a4
  102542:	0104d413          	srli	s0,s1,0x10
  102546:	0942                	slli	s2,s2,0x10
  102548:	8cf9                	and	s1,s1,a4
  10254a:	02978733          	mul	a4,a5,s1
  10254e:	9936                	add	s2,s2,a3
  102550:	93ca                	add	t2,t2,s2
  102552:	02f40333          	mul	t1,s0,a5
  102556:	029886b3          	mul	a3,a7,s1
  10255a:	028887b3          	mul	a5,a7,s0
  10255e:	006688b3          	add	a7,a3,t1
  102562:	01075693          	srli	a3,a4,0x10
  102566:	96c6                	add	a3,a3,a7
  102568:	0066f363          	bgeu	a3,t1,10256e <__muldf3+0x240>
  10256c:	97ce                	add	a5,a5,s3
  10256e:	0106d893          	srli	a7,a3,0x10
  102572:	69c1                	lui	s3,0x10
  102574:	00f88fb3          	add	t6,a7,a5
  102578:	fff98793          	addi	a5,s3,-1 # ffff <_stack_len+0x7fff>
  10257c:	029288b3          	mul	a7,t0,s1
  102580:	8efd                	and	a3,a3,a5
  102582:	8f7d                	and	a4,a4,a5
  102584:	06c2                	slli	a3,a3,0x10
  102586:	96ba                	add	a3,a3,a4
  102588:	025407b3          	mul	a5,s0,t0
  10258c:	029f04b3          	mul	s1,t5,s1
  102590:	028f0333          	mul	t1,t5,s0
  102594:	94be                	add	s1,s1,a5
  102596:	0108d413          	srli	s0,a7,0x10
  10259a:	94a2                	add	s1,s1,s0
  10259c:	00f4f363          	bgeu	s1,a5,1025a2 <__muldf3+0x274>
  1025a0:	934e                	add	t1,t1,s3
  1025a2:	67c1                	lui	a5,0x10
  1025a4:	17fd                	addi	a5,a5,-1
  1025a6:	00f4f733          	and	a4,s1,a5
  1025aa:	00f8f8b3          	and	a7,a7,a5
  1025ae:	0742                	slli	a4,a4,0x10
  1025b0:	9e1e                	add	t3,t3,t2
  1025b2:	9746                	add	a4,a4,a7
  1025b4:	012e3933          	sltu	s2,t3,s2
  1025b8:	9776                	add	a4,a4,t4
  1025ba:	01270433          	add	s0,a4,s2
  1025be:	9e36                	add	t3,t3,a3
  1025c0:	00de36b3          	sltu	a3,t3,a3
  1025c4:	01f408b3          	add	a7,s0,t6
  1025c8:	00d88f33          	add	t5,a7,a3
  1025cc:	01d73733          	sltu	a4,a4,t4
  1025d0:	01243433          	sltu	s0,s0,s2
  1025d4:	8c59                	or	s0,s0,a4
  1025d6:	80c1                	srli	s1,s1,0x10
  1025d8:	01f8b8b3          	sltu	a7,a7,t6
  1025dc:	00df36b3          	sltu	a3,t5,a3
  1025e0:	9426                	add	s0,s0,s1
  1025e2:	00d8e6b3          	or	a3,a7,a3
  1025e6:	9436                	add	s0,s0,a3
  1025e8:	941a                	add	s0,s0,t1
  1025ea:	017f5793          	srli	a5,t5,0x17
  1025ee:	0426                	slli	s0,s0,0x9
  1025f0:	8c5d                	or	s0,s0,a5
  1025f2:	009e1793          	slli	a5,t3,0x9
  1025f6:	0107e7b3          	or	a5,a5,a6
  1025fa:	00f037b3          	snez	a5,a5
  1025fe:	017e5e13          	srli	t3,t3,0x17
  102602:	009f1713          	slli	a4,t5,0x9
  102606:	01c7e7b3          	or	a5,a5,t3
  10260a:	8fd9                	or	a5,a5,a4
  10260c:	01000737          	lui	a4,0x1000
  102610:	8f61                	and	a4,a4,s0
  102612:	cb4d                	beqz	a4,1026c4 <__muldf3+0x396>
  102614:	0017d713          	srli	a4,a5,0x1
  102618:	8b85                	andi	a5,a5,1
  10261a:	8fd9                	or	a5,a5,a4
  10261c:	01f41713          	slli	a4,s0,0x1f
  102620:	8fd9                	or	a5,a5,a4
  102622:	8005                	srli	s0,s0,0x1
  102624:	3ff58693          	addi	a3,a1,1023
  102628:	0ad05063          	blez	a3,1026c8 <__muldf3+0x39a>
  10262c:	0077f713          	andi	a4,a5,7
  102630:	cf01                	beqz	a4,102648 <__muldf3+0x31a>
  102632:	00f7f713          	andi	a4,a5,15
  102636:	4511                	li	a0,4
  102638:	00a70863          	beq	a4,a0,102648 <__muldf3+0x31a>
  10263c:	00478713          	addi	a4,a5,4 # 10004 <_stack_len+0x8004>
  102640:	00f737b3          	sltu	a5,a4,a5
  102644:	943e                	add	s0,s0,a5
  102646:	87ba                	mv	a5,a4
  102648:	01000737          	lui	a4,0x1000
  10264c:	8f61                	and	a4,a4,s0
  10264e:	c719                	beqz	a4,10265c <__muldf3+0x32e>
  102650:	ff000737          	lui	a4,0xff000
  102654:	177d                	addi	a4,a4,-1
  102656:	8c79                	and	s0,s0,a4
  102658:	40058693          	addi	a3,a1,1024
  10265c:	7fe00713          	li	a4,2046
  102660:	0ed74e63          	blt	a4,a3,10275c <__muldf3+0x42e>
  102664:	0037d713          	srli	a4,a5,0x3
  102668:	01d41793          	slli	a5,s0,0x1d
  10266c:	8fd9                	or	a5,a5,a4
  10266e:	800d                	srli	s0,s0,0x3
  102670:	01469713          	slli	a4,a3,0x14
  102674:	0432                	slli	s0,s0,0xc
  102676:	7ff006b7          	lui	a3,0x7ff00
  10267a:	8f75                	and	a4,a4,a3
  10267c:	8031                	srli	s0,s0,0xc
  10267e:	8c59                	or	s0,s0,a4
  102680:	067e                	slli	a2,a2,0x1f
  102682:	50b2                	lw	ra,44(sp)
  102684:	00c46733          	or	a4,s0,a2
  102688:	5422                	lw	s0,40(sp)
  10268a:	5492                	lw	s1,36(sp)
  10268c:	5902                	lw	s2,32(sp)
  10268e:	49f2                	lw	s3,28(sp)
  102690:	4a62                	lw	s4,24(sp)
  102692:	4ad2                	lw	s5,20(sp)
  102694:	4b42                	lw	s6,16(sp)
  102696:	4bb2                	lw	s7,12(sp)
  102698:	853e                	mv	a0,a5
  10269a:	85ba                	mv	a1,a4
  10269c:	6145                	addi	sp,sp,48
  10269e:	8082                	ret
  1026a0:	8652                	mv	a2,s4
  1026a2:	8426                	mv	s0,s1
  1026a4:	87ca                	mv	a5,s2
  1026a6:	875a                	mv	a4,s6
  1026a8:	4689                	li	a3,2
  1026aa:	0ad70963          	beq	a4,a3,10275c <__muldf3+0x42e>
  1026ae:	468d                	li	a3,3
  1026b0:	08d70f63          	beq	a4,a3,10274e <__muldf3+0x420>
  1026b4:	4685                	li	a3,1
  1026b6:	f6d717e3          	bne	a4,a3,102624 <__muldf3+0x2f6>
  1026ba:	4401                	li	s0,0
  1026bc:	4781                	li	a5,0
  1026be:	a09d                	j	102724 <__muldf3+0x3f6>
  1026c0:	8656                	mv	a2,s5
  1026c2:	b7dd                	j	1026a8 <__muldf3+0x37a>
  1026c4:	85aa                	mv	a1,a0
  1026c6:	bfb9                	j	102624 <__muldf3+0x2f6>
  1026c8:	4505                	li	a0,1
  1026ca:	8d15                	sub	a0,a0,a3
  1026cc:	03800713          	li	a4,56
  1026d0:	fea745e3          	blt	a4,a0,1026ba <__muldf3+0x38c>
  1026d4:	477d                	li	a4,31
  1026d6:	04a74963          	blt	a4,a0,102728 <__muldf3+0x3fa>
  1026da:	41e58593          	addi	a1,a1,1054
  1026de:	00b41733          	sll	a4,s0,a1
  1026e2:	00a7d6b3          	srl	a3,a5,a0
  1026e6:	00b797b3          	sll	a5,a5,a1
  1026ea:	8f55                	or	a4,a4,a3
  1026ec:	00f037b3          	snez	a5,a5
  1026f0:	8fd9                	or	a5,a5,a4
  1026f2:	00a45433          	srl	s0,s0,a0
  1026f6:	0077f713          	andi	a4,a5,7
  1026fa:	cf01                	beqz	a4,102712 <__muldf3+0x3e4>
  1026fc:	00f7f713          	andi	a4,a5,15
  102700:	4691                	li	a3,4
  102702:	00d70863          	beq	a4,a3,102712 <__muldf3+0x3e4>
  102706:	00478713          	addi	a4,a5,4
  10270a:	00f737b3          	sltu	a5,a4,a5
  10270e:	943e                	add	s0,s0,a5
  102710:	87ba                	mv	a5,a4
  102712:	00800737          	lui	a4,0x800
  102716:	8f61                	and	a4,a4,s0
  102718:	e739                	bnez	a4,102766 <__muldf3+0x438>
  10271a:	01d41713          	slli	a4,s0,0x1d
  10271e:	838d                	srli	a5,a5,0x3
  102720:	8fd9                	or	a5,a5,a4
  102722:	800d                	srli	s0,s0,0x3
  102724:	4681                	li	a3,0
  102726:	b7a9                	j	102670 <__muldf3+0x342>
  102728:	5705                	li	a4,-31
  10272a:	8f15                	sub	a4,a4,a3
  10272c:	02000813          	li	a6,32
  102730:	00e45733          	srl	a4,s0,a4
  102734:	4681                	li	a3,0
  102736:	01050663          	beq	a0,a6,102742 <__muldf3+0x414>
  10273a:	43e58593          	addi	a1,a1,1086
  10273e:	00b416b3          	sll	a3,s0,a1
  102742:	8fd5                	or	a5,a5,a3
  102744:	00f037b3          	snez	a5,a5
  102748:	8fd9                	or	a5,a5,a4
  10274a:	4401                	li	s0,0
  10274c:	b76d                	j	1026f6 <__muldf3+0x3c8>
  10274e:	00080437          	lui	s0,0x80
  102752:	4781                	li	a5,0
  102754:	7ff00693          	li	a3,2047
  102758:	4601                	li	a2,0
  10275a:	bf19                	j	102670 <__muldf3+0x342>
  10275c:	4401                	li	s0,0
  10275e:	4781                	li	a5,0
  102760:	7ff00693          	li	a3,2047
  102764:	b731                	j	102670 <__muldf3+0x342>
  102766:	4401                	li	s0,0
  102768:	4781                	li	a5,0
  10276a:	4685                	li	a3,1
  10276c:	b711                	j	102670 <__muldf3+0x342>

0010276e <__subdf3>:
  10276e:	00100837          	lui	a6,0x100
  102772:	187d                	addi	a6,a6,-1
  102774:	1101                	addi	sp,sp,-32
  102776:	00b877b3          	and	a5,a6,a1
  10277a:	0145d713          	srli	a4,a1,0x14
  10277e:	00d87833          	and	a6,a6,a3
  102782:	0146d313          	srli	t1,a3,0x14
  102786:	cc22                	sw	s0,24(sp)
  102788:	078e                	slli	a5,a5,0x3
  10278a:	7ff77413          	andi	s0,a4,2047
  10278e:	01d55713          	srli	a4,a0,0x1d
  102792:	ca26                	sw	s1,20(sp)
  102794:	8fd9                	or	a5,a5,a4
  102796:	01f5d493          	srli	s1,a1,0x1f
  10279a:	01d65713          	srli	a4,a2,0x1d
  10279e:	00351593          	slli	a1,a0,0x3
  1027a2:	080e                	slli	a6,a6,0x3
  1027a4:	ce06                	sw	ra,28(sp)
  1027a6:	c84a                	sw	s2,16(sp)
  1027a8:	c64e                	sw	s3,12(sp)
  1027aa:	7ff37313          	andi	t1,t1,2047
  1027ae:	7ff00513          	li	a0,2047
  1027b2:	82fd                	srli	a3,a3,0x1f
  1027b4:	01076733          	or	a4,a4,a6
  1027b8:	060e                	slli	a2,a2,0x3
  1027ba:	00a31563          	bne	t1,a0,1027c4 <__subdf3+0x56>
  1027be:	00c76533          	or	a0,a4,a2
  1027c2:	e119                	bnez	a0,1027c8 <__subdf3+0x5a>
  1027c4:	0016c693          	xori	a3,a3,1
  1027c8:	40640833          	sub	a6,s0,t1
  1027cc:	22969863          	bne	a3,s1,1029fc <__subdf3+0x28e>
  1027d0:	0f005363          	blez	a6,1028b6 <__subdf3+0x148>
  1027d4:	02031863          	bnez	t1,102804 <__subdf3+0x96>
  1027d8:	00c766b3          	or	a3,a4,a2
  1027dc:	58068363          	beqz	a3,102d62 <__subdf3+0x5f4>
  1027e0:	fff80513          	addi	a0,a6,-1 # fffff <tohost+0xdfff7>
  1027e4:	e909                	bnez	a0,1027f6 <__subdf3+0x88>
  1027e6:	962e                	add	a2,a2,a1
  1027e8:	00b63533          	sltu	a0,a2,a1
  1027ec:	97ba                	add	a5,a5,a4
  1027ee:	97aa                	add	a5,a5,a0
  1027f0:	85b2                	mv	a1,a2
  1027f2:	4405                	li	s0,1
  1027f4:	a8b9                	j	102852 <__subdf3+0xe4>
  1027f6:	7ff00693          	li	a3,2047
  1027fa:	00d81d63          	bne	a6,a3,102814 <__subdf3+0xa6>
  1027fe:	7ff00413          	li	s0,2047
  102802:	a24d                	j	1029a4 <__subdf3+0x236>
  102804:	7ff00693          	li	a3,2047
  102808:	18d40e63          	beq	s0,a3,1029a4 <__subdf3+0x236>
  10280c:	008006b7          	lui	a3,0x800
  102810:	8f55                	or	a4,a4,a3
  102812:	8542                	mv	a0,a6
  102814:	03800693          	li	a3,56
  102818:	08a6cb63          	blt	a3,a0,1028ae <__subdf3+0x140>
  10281c:	46fd                	li	a3,31
  10281e:	06a6c263          	blt	a3,a0,102882 <__subdf3+0x114>
  102822:	02000813          	li	a6,32
  102826:	40a80833          	sub	a6,a6,a0
  10282a:	010716b3          	sll	a3,a4,a6
  10282e:	00a658b3          	srl	a7,a2,a0
  102832:	01061633          	sll	a2,a2,a6
  102836:	0116e6b3          	or	a3,a3,a7
  10283a:	00c03633          	snez	a2,a2
  10283e:	8e55                	or	a2,a2,a3
  102840:	00a75733          	srl	a4,a4,a0
  102844:	962e                	add	a2,a2,a1
  102846:	00b63533          	sltu	a0,a2,a1
  10284a:	973e                	add	a4,a4,a5
  10284c:	00a707b3          	add	a5,a4,a0
  102850:	85b2                	mv	a1,a2
  102852:	00800737          	lui	a4,0x800
  102856:	8f7d                	and	a4,a4,a5
  102858:	14070663          	beqz	a4,1029a4 <__subdf3+0x236>
  10285c:	0405                	addi	s0,s0,1
  10285e:	7ff00713          	li	a4,2047
  102862:	48e40d63          	beq	s0,a4,102cfc <__subdf3+0x58e>
  102866:	ff800737          	lui	a4,0xff800
  10286a:	177d                	addi	a4,a4,-1
  10286c:	8ff9                	and	a5,a5,a4
  10286e:	0015f513          	andi	a0,a1,1
  102872:	0015d713          	srli	a4,a1,0x1
  102876:	8d59                	or	a0,a0,a4
  102878:	01f79593          	slli	a1,a5,0x1f
  10287c:	8dc9                	or	a1,a1,a0
  10287e:	8385                	srli	a5,a5,0x1
  102880:	a215                	j	1029a4 <__subdf3+0x236>
  102882:	fe050693          	addi	a3,a0,-32
  102886:	02000893          	li	a7,32
  10288a:	00d756b3          	srl	a3,a4,a3
  10288e:	4801                	li	a6,0
  102890:	01150863          	beq	a0,a7,1028a0 <__subdf3+0x132>
  102894:	04000813          	li	a6,64
  102898:	40a80533          	sub	a0,a6,a0
  10289c:	00a71833          	sll	a6,a4,a0
  1028a0:	00c86633          	or	a2,a6,a2
  1028a4:	00c03633          	snez	a2,a2
  1028a8:	8e55                	or	a2,a2,a3
  1028aa:	4701                	li	a4,0
  1028ac:	bf61                	j	102844 <__subdf3+0xd6>
  1028ae:	8e59                	or	a2,a2,a4
  1028b0:	00c03633          	snez	a2,a2
  1028b4:	bfdd                	j	1028aa <__subdf3+0x13c>
  1028b6:	0a080b63          	beqz	a6,10296c <__subdf3+0x1fe>
  1028ba:	40830533          	sub	a0,t1,s0
  1028be:	e40d                	bnez	s0,1028e8 <__subdf3+0x17a>
  1028c0:	00b7e6b3          	or	a3,a5,a1
  1028c4:	42068363          	beqz	a3,102cea <__subdf3+0x57c>
  1028c8:	fff50693          	addi	a3,a0,-1
  1028cc:	e699                	bnez	a3,1028da <__subdf3+0x16c>
  1028ce:	95b2                	add	a1,a1,a2
  1028d0:	97ba                	add	a5,a5,a4
  1028d2:	00c5b633          	sltu	a2,a1,a2
  1028d6:	97b2                	add	a5,a5,a2
  1028d8:	bf29                	j	1027f2 <__subdf3+0x84>
  1028da:	7ff00813          	li	a6,2047
  1028de:	01051d63          	bne	a0,a6,1028f8 <__subdf3+0x18a>
  1028e2:	87ba                	mv	a5,a4
  1028e4:	85b2                	mv	a1,a2
  1028e6:	bf21                	j	1027fe <__subdf3+0x90>
  1028e8:	7ff00693          	li	a3,2047
  1028ec:	fed30be3          	beq	t1,a3,1028e2 <__subdf3+0x174>
  1028f0:	008006b7          	lui	a3,0x800
  1028f4:	8fd5                	or	a5,a5,a3
  1028f6:	86aa                	mv	a3,a0
  1028f8:	03800513          	li	a0,56
  1028fc:	06d54363          	blt	a0,a3,102962 <__subdf3+0x1f4>
  102900:	457d                	li	a0,31
  102902:	02d54b63          	blt	a0,a3,102938 <__subdf3+0x1ca>
  102906:	02000813          	li	a6,32
  10290a:	40d80833          	sub	a6,a6,a3
  10290e:	01079533          	sll	a0,a5,a6
  102912:	00d5d8b3          	srl	a7,a1,a3
  102916:	010595b3          	sll	a1,a1,a6
  10291a:	01156533          	or	a0,a0,a7
  10291e:	00b035b3          	snez	a1,a1
  102922:	8d4d                	or	a0,a0,a1
  102924:	00d7d7b3          	srl	a5,a5,a3
  102928:	00c505b3          	add	a1,a0,a2
  10292c:	97ba                	add	a5,a5,a4
  10292e:	00c5b633          	sltu	a2,a1,a2
  102932:	97b2                	add	a5,a5,a2
  102934:	841a                	mv	s0,t1
  102936:	bf31                	j	102852 <__subdf3+0xe4>
  102938:	fe068513          	addi	a0,a3,-32 # 7fffe0 <fromhost+0x6c7fd0>
  10293c:	02000893          	li	a7,32
  102940:	00a7d833          	srl	a6,a5,a0
  102944:	4501                	li	a0,0
  102946:	01168763          	beq	a3,a7,102954 <__subdf3+0x1e6>
  10294a:	04000513          	li	a0,64
  10294e:	8d15                	sub	a0,a0,a3
  102950:	00a79533          	sll	a0,a5,a0
  102954:	8d4d                	or	a0,a0,a1
  102956:	00a03533          	snez	a0,a0
  10295a:	00a86533          	or	a0,a6,a0
  10295e:	4781                	li	a5,0
  102960:	b7e1                	j	102928 <__subdf3+0x1ba>
  102962:	00b7e533          	or	a0,a5,a1
  102966:	00a03533          	snez	a0,a0
  10296a:	bfd5                	j	10295e <__subdf3+0x1f0>
  10296c:	00140693          	addi	a3,s0,1 # 80001 <tohost+0x5fff9>
  102970:	7fe6f513          	andi	a0,a3,2046
  102974:	e13d                	bnez	a0,1029da <__subdf3+0x26c>
  102976:	00b7e6b3          	or	a3,a5,a1
  10297a:	e429                	bnez	s0,1029c4 <__subdf3+0x256>
  10297c:	36068b63          	beqz	a3,102cf2 <__subdf3+0x584>
  102980:	00c766b3          	or	a3,a4,a2
  102984:	c285                	beqz	a3,1029a4 <__subdf3+0x236>
  102986:	962e                	add	a2,a2,a1
  102988:	97ba                	add	a5,a5,a4
  10298a:	00b63533          	sltu	a0,a2,a1
  10298e:	97aa                	add	a5,a5,a0
  102990:	00800737          	lui	a4,0x800
  102994:	8f7d                	and	a4,a4,a5
  102996:	85b2                	mv	a1,a2
  102998:	c711                	beqz	a4,1029a4 <__subdf3+0x236>
  10299a:	ff800737          	lui	a4,0xff800
  10299e:	177d                	addi	a4,a4,-1
  1029a0:	8ff9                	and	a5,a5,a4
  1029a2:	4405                	li	s0,1
  1029a4:	0075f713          	andi	a4,a1,7
  1029a8:	34070c63          	beqz	a4,102d00 <__subdf3+0x592>
  1029ac:	00f5f713          	andi	a4,a1,15
  1029b0:	4691                	li	a3,4
  1029b2:	34d70763          	beq	a4,a3,102d00 <__subdf3+0x592>
  1029b6:	00458713          	addi	a4,a1,4
  1029ba:	00b73533          	sltu	a0,a4,a1
  1029be:	97aa                	add	a5,a5,a0
  1029c0:	85ba                	mv	a1,a4
  1029c2:	ae3d                	j	102d00 <__subdf3+0x592>
  1029c4:	de99                	beqz	a3,1028e2 <__subdf3+0x174>
  1029c6:	8e59                	or	a2,a2,a4
  1029c8:	e2060be3          	beqz	a2,1027fe <__subdf3+0x90>
  1029cc:	4481                	li	s1,0
  1029ce:	004007b7          	lui	a5,0x400
  1029d2:	4581                	li	a1,0
  1029d4:	7ff00413          	li	s0,2047
  1029d8:	a625                	j	102d00 <__subdf3+0x592>
  1029da:	7ff00513          	li	a0,2047
  1029de:	30a68d63          	beq	a3,a0,102cf8 <__subdf3+0x58a>
  1029e2:	962e                	add	a2,a2,a1
  1029e4:	00b63533          	sltu	a0,a2,a1
  1029e8:	97ba                	add	a5,a5,a4
  1029ea:	97aa                	add	a5,a5,a0
  1029ec:	01f79513          	slli	a0,a5,0x1f
  1029f0:	8205                	srli	a2,a2,0x1
  1029f2:	00c565b3          	or	a1,a0,a2
  1029f6:	8385                	srli	a5,a5,0x1
  1029f8:	8436                	mv	s0,a3
  1029fa:	b76d                	j	1029a4 <__subdf3+0x236>
  1029fc:	0d005663          	blez	a6,102ac8 <__subdf3+0x35a>
  102a00:	08031163          	bnez	t1,102a82 <__subdf3+0x314>
  102a04:	00c766b3          	or	a3,a4,a2
  102a08:	34068d63          	beqz	a3,102d62 <__subdf3+0x5f4>
  102a0c:	fff80513          	addi	a0,a6,-1
  102a10:	e911                	bnez	a0,102a24 <__subdf3+0x2b6>
  102a12:	40c58633          	sub	a2,a1,a2
  102a16:	00c5b533          	sltu	a0,a1,a2
  102a1a:	8f99                	sub	a5,a5,a4
  102a1c:	8f89                	sub	a5,a5,a0
  102a1e:	85b2                	mv	a1,a2
  102a20:	4405                	li	s0,1
  102a22:	a0b1                	j	102a6e <__subdf3+0x300>
  102a24:	7ff00693          	li	a3,2047
  102a28:	dcd80be3          	beq	a6,a3,1027fe <__subdf3+0x90>
  102a2c:	03800693          	li	a3,56
  102a30:	08a6c863          	blt	a3,a0,102ac0 <__subdf3+0x352>
  102a34:	46fd                	li	a3,31
  102a36:	04a6cf63          	blt	a3,a0,102a94 <__subdf3+0x326>
  102a3a:	02000813          	li	a6,32
  102a3e:	40a80833          	sub	a6,a6,a0
  102a42:	010716b3          	sll	a3,a4,a6
  102a46:	00a658b3          	srl	a7,a2,a0
  102a4a:	01061633          	sll	a2,a2,a6
  102a4e:	0116e6b3          	or	a3,a3,a7
  102a52:	00c03633          	snez	a2,a2
  102a56:	8e55                	or	a2,a2,a3
  102a58:	00a75733          	srl	a4,a4,a0
  102a5c:	40c58633          	sub	a2,a1,a2
  102a60:	00c5b533          	sltu	a0,a1,a2
  102a64:	40e78733          	sub	a4,a5,a4
  102a68:	40a707b3          	sub	a5,a4,a0
  102a6c:	85b2                	mv	a1,a2
  102a6e:	00800937          	lui	s2,0x800
  102a72:	0127f733          	and	a4,a5,s2
  102a76:	d71d                	beqz	a4,1029a4 <__subdf3+0x236>
  102a78:	197d                	addi	s2,s2,-1
  102a7a:	0127f933          	and	s2,a5,s2
  102a7e:	89ae                	mv	s3,a1
  102a80:	aa5d                	j	102c36 <__subdf3+0x4c8>
  102a82:	7ff00693          	li	a3,2047
  102a86:	f0d40fe3          	beq	s0,a3,1029a4 <__subdf3+0x236>
  102a8a:	008006b7          	lui	a3,0x800
  102a8e:	8f55                	or	a4,a4,a3
  102a90:	8542                	mv	a0,a6
  102a92:	bf69                	j	102a2c <__subdf3+0x2be>
  102a94:	fe050693          	addi	a3,a0,-32
  102a98:	02000893          	li	a7,32
  102a9c:	00d756b3          	srl	a3,a4,a3
  102aa0:	4801                	li	a6,0
  102aa2:	01150863          	beq	a0,a7,102ab2 <__subdf3+0x344>
  102aa6:	04000813          	li	a6,64
  102aaa:	40a80533          	sub	a0,a6,a0
  102aae:	00a71833          	sll	a6,a4,a0
  102ab2:	00c86633          	or	a2,a6,a2
  102ab6:	00c03633          	snez	a2,a2
  102aba:	8e55                	or	a2,a2,a3
  102abc:	4701                	li	a4,0
  102abe:	bf79                	j	102a5c <__subdf3+0x2ee>
  102ac0:	8e59                	or	a2,a2,a4
  102ac2:	00c03633          	snez	a2,a2
  102ac6:	bfdd                	j	102abc <__subdf3+0x34e>
  102ac8:	0c080563          	beqz	a6,102b92 <__subdf3+0x424>
  102acc:	40830533          	sub	a0,t1,s0
  102ad0:	e81d                	bnez	s0,102b06 <__subdf3+0x398>
  102ad2:	00b7e833          	or	a6,a5,a1
  102ad6:	28080863          	beqz	a6,102d66 <__subdf3+0x5f8>
  102ada:	fff50813          	addi	a6,a0,-1
  102ade:	00081b63          	bnez	a6,102af4 <__subdf3+0x386>
  102ae2:	40b605b3          	sub	a1,a2,a1
  102ae6:	40f707b3          	sub	a5,a4,a5
  102aea:	00b63633          	sltu	a2,a2,a1
  102aee:	8f91                	sub	a5,a5,a2
  102af0:	84b6                	mv	s1,a3
  102af2:	b73d                	j	102a20 <__subdf3+0x2b2>
  102af4:	7ff00893          	li	a7,2047
  102af8:	03151063          	bne	a0,a7,102b18 <__subdf3+0x3aa>
  102afc:	87ba                	mv	a5,a4
  102afe:	85b2                	mv	a1,a2
  102b00:	7ff00413          	li	s0,2047
  102b04:	a07d                	j	102bb2 <__subdf3+0x444>
  102b06:	7ff00813          	li	a6,2047
  102b0a:	ff0309e3          	beq	t1,a6,102afc <__subdf3+0x38e>
  102b0e:	00800837          	lui	a6,0x800
  102b12:	0107e7b3          	or	a5,a5,a6
  102b16:	882a                	mv	a6,a0
  102b18:	03800513          	li	a0,56
  102b1c:	07054663          	blt	a0,a6,102b88 <__subdf3+0x41a>
  102b20:	457d                	li	a0,31
  102b22:	03054d63          	blt	a0,a6,102b5c <__subdf3+0x3ee>
  102b26:	02000893          	li	a7,32
  102b2a:	410888b3          	sub	a7,a7,a6
  102b2e:	01179533          	sll	a0,a5,a7
  102b32:	0105de33          	srl	t3,a1,a6
  102b36:	011595b3          	sll	a1,a1,a7
  102b3a:	01c56533          	or	a0,a0,t3
  102b3e:	00b035b3          	snez	a1,a1
  102b42:	8d4d                	or	a0,a0,a1
  102b44:	0107d7b3          	srl	a5,a5,a6
  102b48:	40a605b3          	sub	a1,a2,a0
  102b4c:	40f707b3          	sub	a5,a4,a5
  102b50:	00b63633          	sltu	a2,a2,a1
  102b54:	8f91                	sub	a5,a5,a2
  102b56:	841a                	mv	s0,t1
  102b58:	84b6                	mv	s1,a3
  102b5a:	bf11                	j	102a6e <__subdf3+0x300>
  102b5c:	fe080513          	addi	a0,a6,-32 # 7fffe0 <fromhost+0x6c7fd0>
  102b60:	02000e13          	li	t3,32
  102b64:	00a7d8b3          	srl	a7,a5,a0
  102b68:	4501                	li	a0,0
  102b6a:	01c80863          	beq	a6,t3,102b7a <__subdf3+0x40c>
  102b6e:	04000513          	li	a0,64
  102b72:	41050533          	sub	a0,a0,a6
  102b76:	00a79533          	sll	a0,a5,a0
  102b7a:	8d4d                	or	a0,a0,a1
  102b7c:	00a03533          	snez	a0,a0
  102b80:	00a8e533          	or	a0,a7,a0
  102b84:	4781                	li	a5,0
  102b86:	b7c9                	j	102b48 <__subdf3+0x3da>
  102b88:	00b7e533          	or	a0,a5,a1
  102b8c:	00a03533          	snez	a0,a0
  102b90:	bfd5                	j	102b84 <__subdf3+0x416>
  102b92:	00140513          	addi	a0,s0,1
  102b96:	7fe57513          	andi	a0,a0,2046
  102b9a:	e925                	bnez	a0,102c0a <__subdf3+0x49c>
  102b9c:	00b7e833          	or	a6,a5,a1
  102ba0:	00c76533          	or	a0,a4,a2
  102ba4:	e821                	bnez	s0,102bf4 <__subdf3+0x486>
  102ba6:	00081863          	bnez	a6,102bb6 <__subdf3+0x448>
  102baa:	1c050263          	beqz	a0,102d6e <__subdf3+0x600>
  102bae:	87ba                	mv	a5,a4
  102bb0:	85b2                	mv	a1,a2
  102bb2:	84b6                	mv	s1,a3
  102bb4:	bbc5                	j	1029a4 <__subdf3+0x236>
  102bb6:	de0507e3          	beqz	a0,1029a4 <__subdf3+0x236>
  102bba:	40c58833          	sub	a6,a1,a2
  102bbe:	0105b8b3          	sltu	a7,a1,a6
  102bc2:	40e78533          	sub	a0,a5,a4
  102bc6:	41150533          	sub	a0,a0,a7
  102bca:	008008b7          	lui	a7,0x800
  102bce:	011578b3          	and	a7,a0,a7
  102bd2:	00088a63          	beqz	a7,102be6 <__subdf3+0x478>
  102bd6:	40b605b3          	sub	a1,a2,a1
  102bda:	40f707b3          	sub	a5,a4,a5
  102bde:	00b63633          	sltu	a2,a2,a1
  102be2:	8f91                	sub	a5,a5,a2
  102be4:	b7f9                	j	102bb2 <__subdf3+0x444>
  102be6:	00a865b3          	or	a1,a6,a0
  102bea:	18058663          	beqz	a1,102d76 <__subdf3+0x608>
  102bee:	87aa                	mv	a5,a0
  102bf0:	85c2                	mv	a1,a6
  102bf2:	bb4d                	j	1029a4 <__subdf3+0x236>
  102bf4:	00081863          	bnez	a6,102c04 <__subdf3+0x496>
  102bf8:	18050163          	beqz	a0,102d7a <__subdf3+0x60c>
  102bfc:	87ba                	mv	a5,a4
  102bfe:	85b2                	mv	a1,a2
  102c00:	84b6                	mv	s1,a3
  102c02:	bef5                	j	1027fe <__subdf3+0x90>
  102c04:	be050de3          	beqz	a0,1027fe <__subdf3+0x90>
  102c08:	b3d1                	j	1029cc <__subdf3+0x25e>
  102c0a:	40c589b3          	sub	s3,a1,a2
  102c0e:	0135b533          	sltu	a0,a1,s3
  102c12:	40e78933          	sub	s2,a5,a4
  102c16:	40a90933          	sub	s2,s2,a0
  102c1a:	00800537          	lui	a0,0x800
  102c1e:	00a97533          	and	a0,s2,a0
  102c22:	c925                	beqz	a0,102c92 <__subdf3+0x524>
  102c24:	40b609b3          	sub	s3,a2,a1
  102c28:	40f707b3          	sub	a5,a4,a5
  102c2c:	01363633          	sltu	a2,a2,s3
  102c30:	40c78933          	sub	s2,a5,a2
  102c34:	84b6                	mv	s1,a3
  102c36:	06090463          	beqz	s2,102c9e <__subdf3+0x530>
  102c3a:	854a                	mv	a0,s2
  102c3c:	5a0020ef          	jal	ra,1051dc <__clzsi2>
  102c40:	ff850713          	addi	a4,a0,-8 # 7ffff8 <fromhost+0x6c7fe8>
  102c44:	47fd                	li	a5,31
  102c46:	06e7c263          	blt	a5,a4,102caa <__subdf3+0x53c>
  102c4a:	02000793          	li	a5,32
  102c4e:	8f99                	sub	a5,a5,a4
  102c50:	00e91933          	sll	s2,s2,a4
  102c54:	00f9d7b3          	srl	a5,s3,a5
  102c58:	0127e7b3          	or	a5,a5,s2
  102c5c:	00e995b3          	sll	a1,s3,a4
  102c60:	06874f63          	blt	a4,s0,102cde <__subdf3+0x570>
  102c64:	8f01                	sub	a4,a4,s0
  102c66:	00170693          	addi	a3,a4,1 # ff800001 <fromhost+0xff6c7ff1>
  102c6a:	467d                	li	a2,31
  102c6c:	04d64563          	blt	a2,a3,102cb6 <__subdf3+0x548>
  102c70:	02000713          	li	a4,32
  102c74:	8f15                	sub	a4,a4,a3
  102c76:	00e79633          	sll	a2,a5,a4
  102c7a:	00d5d533          	srl	a0,a1,a3
  102c7e:	00e595b3          	sll	a1,a1,a4
  102c82:	8e49                	or	a2,a2,a0
  102c84:	00b035b3          	snez	a1,a1
  102c88:	8dd1                	or	a1,a1,a2
  102c8a:	00d7d7b3          	srl	a5,a5,a3
  102c8e:	4401                	li	s0,0
  102c90:	bb11                	j	1029a4 <__subdf3+0x236>
  102c92:	0129e5b3          	or	a1,s3,s2
  102c96:	f1c5                	bnez	a1,102c36 <__subdf3+0x4c8>
  102c98:	4781                	li	a5,0
  102c9a:	4401                	li	s0,0
  102c9c:	a8d9                	j	102d72 <__subdf3+0x604>
  102c9e:	854e                	mv	a0,s3
  102ca0:	53c020ef          	jal	ra,1051dc <__clzsi2>
  102ca4:	02050513          	addi	a0,a0,32
  102ca8:	bf61                	j	102c40 <__subdf3+0x4d2>
  102caa:	fd850793          	addi	a5,a0,-40
  102cae:	00f997b3          	sll	a5,s3,a5
  102cb2:	4581                	li	a1,0
  102cb4:	b775                	j	102c60 <__subdf3+0x4f2>
  102cb6:	1705                	addi	a4,a4,-31
  102cb8:	02000613          	li	a2,32
  102cbc:	00e7d733          	srl	a4,a5,a4
  102cc0:	4501                	li	a0,0
  102cc2:	00c68763          	beq	a3,a2,102cd0 <__subdf3+0x562>
  102cc6:	04000513          	li	a0,64
  102cca:	8d15                	sub	a0,a0,a3
  102ccc:	00a79533          	sll	a0,a5,a0
  102cd0:	8d4d                	or	a0,a0,a1
  102cd2:	00a03533          	snez	a0,a0
  102cd6:	00a765b3          	or	a1,a4,a0
  102cda:	4781                	li	a5,0
  102cdc:	bf4d                	j	102c8e <__subdf3+0x520>
  102cde:	8c19                	sub	s0,s0,a4
  102ce0:	ff800737          	lui	a4,0xff800
  102ce4:	177d                	addi	a4,a4,-1
  102ce6:	8ff9                	and	a5,a5,a4
  102ce8:	b975                	j	1029a4 <__subdf3+0x236>
  102cea:	87ba                	mv	a5,a4
  102cec:	85b2                	mv	a1,a2
  102cee:	842a                	mv	s0,a0
  102cf0:	b955                	j	1029a4 <__subdf3+0x236>
  102cf2:	87ba                	mv	a5,a4
  102cf4:	85b2                	mv	a1,a2
  102cf6:	b17d                	j	1029a4 <__subdf3+0x236>
  102cf8:	7ff00413          	li	s0,2047
  102cfc:	4781                	li	a5,0
  102cfe:	4581                	li	a1,0
  102d00:	00800737          	lui	a4,0x800
  102d04:	8f7d                	and	a4,a4,a5
  102d06:	cb11                	beqz	a4,102d1a <__subdf3+0x5ac>
  102d08:	0405                	addi	s0,s0,1
  102d0a:	7ff00713          	li	a4,2047
  102d0e:	06e40b63          	beq	s0,a4,102d84 <__subdf3+0x616>
  102d12:	ff800737          	lui	a4,0xff800
  102d16:	177d                	addi	a4,a4,-1
  102d18:	8ff9                	and	a5,a5,a4
  102d1a:	01d79713          	slli	a4,a5,0x1d
  102d1e:	0035d513          	srli	a0,a1,0x3
  102d22:	8d59                	or	a0,a0,a4
  102d24:	7ff00713          	li	a4,2047
  102d28:	838d                	srli	a5,a5,0x3
  102d2a:	00e41963          	bne	s0,a4,102d3c <__subdf3+0x5ce>
  102d2e:	8d5d                	or	a0,a0,a5
  102d30:	4781                	li	a5,0
  102d32:	c509                	beqz	a0,102d3c <__subdf3+0x5ce>
  102d34:	000807b7          	lui	a5,0x80
  102d38:	4501                	li	a0,0
  102d3a:	4481                	li	s1,0
  102d3c:	01441713          	slli	a4,s0,0x14
  102d40:	7ff006b7          	lui	a3,0x7ff00
  102d44:	07b2                	slli	a5,a5,0xc
  102d46:	40f2                	lw	ra,28(sp)
  102d48:	4462                	lw	s0,24(sp)
  102d4a:	8f75                	and	a4,a4,a3
  102d4c:	83b1                	srli	a5,a5,0xc
  102d4e:	04fe                	slli	s1,s1,0x1f
  102d50:	8fd9                	or	a5,a5,a4
  102d52:	0097e733          	or	a4,a5,s1
  102d56:	4942                	lw	s2,16(sp)
  102d58:	44d2                	lw	s1,20(sp)
  102d5a:	49b2                	lw	s3,12(sp)
  102d5c:	85ba                	mv	a1,a4
  102d5e:	6105                	addi	sp,sp,32
  102d60:	8082                	ret
  102d62:	8442                	mv	s0,a6
  102d64:	b181                	j	1029a4 <__subdf3+0x236>
  102d66:	87ba                	mv	a5,a4
  102d68:	85b2                	mv	a1,a2
  102d6a:	842a                	mv	s0,a0
  102d6c:	b599                	j	102bb2 <__subdf3+0x444>
  102d6e:	4781                	li	a5,0
  102d70:	4581                	li	a1,0
  102d72:	4481                	li	s1,0
  102d74:	b771                	j	102d00 <__subdf3+0x592>
  102d76:	4781                	li	a5,0
  102d78:	bfed                	j	102d72 <__subdf3+0x604>
  102d7a:	4581                	li	a1,0
  102d7c:	4481                	li	s1,0
  102d7e:	004007b7          	lui	a5,0x400
  102d82:	b989                	j	1029d4 <__subdf3+0x266>
  102d84:	4781                	li	a5,0
  102d86:	4581                	li	a1,0
  102d88:	bf49                	j	102d1a <__subdf3+0x5ac>

00102d8a <__fixdfsi>:
  102d8a:	0145d713          	srli	a4,a1,0x14
  102d8e:	001006b7          	lui	a3,0x100
  102d92:	fff68793          	addi	a5,a3,-1 # fffff <tohost+0xdfff7>
  102d96:	7ff77713          	andi	a4,a4,2047
  102d9a:	3fe00613          	li	a2,1022
  102d9e:	8fed                	and	a5,a5,a1
  102da0:	81fd                	srli	a1,a1,0x1f
  102da2:	04e65463          	bge	a2,a4,102dea <__fixdfsi+0x60>
  102da6:	41d00613          	li	a2,1053
  102daa:	00e65863          	bge	a2,a4,102dba <__fixdfsi+0x30>
  102dae:	80000537          	lui	a0,0x80000
  102db2:	fff54513          	not	a0,a0
  102db6:	952e                	add	a0,a0,a1
  102db8:	8082                	ret
  102dba:	8fd5                	or	a5,a5,a3
  102dbc:	43300693          	li	a3,1075
  102dc0:	8e99                	sub	a3,a3,a4
  102dc2:	467d                	li	a2,31
  102dc4:	00d64d63          	blt	a2,a3,102dde <__fixdfsi+0x54>
  102dc8:	bed70713          	addi	a4,a4,-1043 # ff7ffbed <fromhost+0xff6c7bdd>
  102dcc:	00e797b3          	sll	a5,a5,a4
  102dd0:	00d55533          	srl	a0,a0,a3
  102dd4:	8d5d                	or	a0,a0,a5
  102dd6:	c999                	beqz	a1,102dec <__fixdfsi+0x62>
  102dd8:	40a00533          	neg	a0,a0
  102ddc:	8082                	ret
  102dde:	41300513          	li	a0,1043
  102de2:	8d19                	sub	a0,a0,a4
  102de4:	00a7d533          	srl	a0,a5,a0
  102de8:	b7fd                	j	102dd6 <__fixdfsi+0x4c>
  102dea:	4501                	li	a0,0
  102dec:	8082                	ret

00102dee <__floatsidf>:
  102dee:	1141                	addi	sp,sp,-16
  102df0:	c606                	sw	ra,12(sp)
  102df2:	c422                	sw	s0,8(sp)
  102df4:	c226                	sw	s1,4(sp)
  102df6:	cd29                	beqz	a0,102e50 <__floatsidf+0x62>
  102df8:	41f55793          	srai	a5,a0,0x1f
  102dfc:	00a7c433          	xor	s0,a5,a0
  102e00:	8c1d                	sub	s0,s0,a5
  102e02:	01f55493          	srli	s1,a0,0x1f
  102e06:	8522                	mv	a0,s0
  102e08:	3d4020ef          	jal	ra,1051dc <__clzsi2>
  102e0c:	41e00713          	li	a4,1054
  102e10:	47a9                	li	a5,10
  102e12:	8f09                	sub	a4,a4,a0
  102e14:	02a7c863          	blt	a5,a0,102e44 <__floatsidf+0x56>
  102e18:	47ad                	li	a5,11
  102e1a:	8f89                	sub	a5,a5,a0
  102e1c:	0555                	addi	a0,a0,21
  102e1e:	00f457b3          	srl	a5,s0,a5
  102e22:	00a41433          	sll	s0,s0,a0
  102e26:	8526                	mv	a0,s1
  102e28:	07b2                	slli	a5,a5,0xc
  102e2a:	0752                	slli	a4,a4,0x14
  102e2c:	83b1                	srli	a5,a5,0xc
  102e2e:	057e                	slli	a0,a0,0x1f
  102e30:	8fd9                	or	a5,a5,a4
  102e32:	40b2                	lw	ra,12(sp)
  102e34:	00a7e733          	or	a4,a5,a0
  102e38:	8522                	mv	a0,s0
  102e3a:	4422                	lw	s0,8(sp)
  102e3c:	4492                	lw	s1,4(sp)
  102e3e:	85ba                	mv	a1,a4
  102e40:	0141                	addi	sp,sp,16
  102e42:	8082                	ret
  102e44:	1555                	addi	a0,a0,-11
  102e46:	00a417b3          	sll	a5,s0,a0
  102e4a:	8526                	mv	a0,s1
  102e4c:	4401                	li	s0,0
  102e4e:	bfe9                	j	102e28 <__floatsidf+0x3a>
  102e50:	4701                	li	a4,0
  102e52:	4781                	li	a5,0
  102e54:	bfe5                	j	102e4c <__floatsidf+0x5e>

00102e56 <__fixdfdi>:
  102e56:	00100737          	lui	a4,0x100
  102e5a:	0145d613          	srli	a2,a1,0x14
  102e5e:	fff70793          	addi	a5,a4,-1 # fffff <tohost+0xdfff7>
  102e62:	7ff67613          	andi	a2,a2,2047
  102e66:	3fe00693          	li	a3,1022
  102e6a:	8fed                	and	a5,a5,a1
  102e6c:	08c6d563          	bge	a3,a2,102ef6 <__fixdfdi+0xa0>
  102e70:	1141                	addi	sp,sp,-16
  102e72:	c422                	sw	s0,8(sp)
  102e74:	c606                	sw	ra,12(sp)
  102e76:	43d00693          	li	a3,1085
  102e7a:	01f5d413          	srli	s0,a1,0x1f
  102e7e:	02c6d263          	bge	a3,a2,102ea2 <__fixdfdi+0x4c>
  102e82:	4505                	li	a0,1
  102e84:	8d01                	sub	a0,a0,s0
  102e86:	41f55713          	srai	a4,a0,0x1f
  102e8a:	800005b7          	lui	a1,0x80000
  102e8e:	00a037b3          	snez	a5,a0
  102e92:	8d99                	sub	a1,a1,a4
  102e94:	40a00533          	neg	a0,a0
  102e98:	8d9d                	sub	a1,a1,a5
  102e9a:	40b2                	lw	ra,12(sp)
  102e9c:	4422                	lw	s0,8(sp)
  102e9e:	0141                	addi	sp,sp,16
  102ea0:	8082                	ret
  102ea2:	00e7e5b3          	or	a1,a5,a4
  102ea6:	43200793          	li	a5,1074
  102eaa:	00c7df63          	bge	a5,a2,102ec8 <__fixdfdi+0x72>
  102eae:	bcd60613          	addi	a2,a2,-1075
  102eb2:	300020ef          	jal	ra,1051b2 <__ashldi3>
  102eb6:	d075                	beqz	s0,102e9a <__fixdfdi+0x44>
  102eb8:	00a037b3          	snez	a5,a0
  102ebc:	40b005b3          	neg	a1,a1
  102ec0:	8d9d                	sub	a1,a1,a5
  102ec2:	40a00533          	neg	a0,a0
  102ec6:	bfd1                	j	102e9a <__fixdfdi+0x44>
  102ec8:	43300793          	li	a5,1075
  102ecc:	8f91                	sub	a5,a5,a2
  102ece:	477d                	li	a4,31
  102ed0:	00f74c63          	blt	a4,a5,102ee8 <__fixdfdi+0x92>
  102ed4:	bed60613          	addi	a2,a2,-1043
  102ed8:	00c59633          	sll	a2,a1,a2
  102edc:	00f55533          	srl	a0,a0,a5
  102ee0:	8d51                	or	a0,a0,a2
  102ee2:	00f5d5b3          	srl	a1,a1,a5
  102ee6:	bfc1                	j	102eb6 <__fixdfdi+0x60>
  102ee8:	41300513          	li	a0,1043
  102eec:	8d11                	sub	a0,a0,a2
  102eee:	00a5d533          	srl	a0,a1,a0
  102ef2:	4581                	li	a1,0
  102ef4:	b7c9                	j	102eb6 <__fixdfdi+0x60>
  102ef6:	4501                	li	a0,0
  102ef8:	4581                	li	a1,0
  102efa:	8082                	ret

00102efc <__floatdidf>:
  102efc:	1101                	addi	sp,sp,-32
  102efe:	ce06                	sw	ra,28(sp)
  102f00:	cc22                	sw	s0,24(sp)
  102f02:	ca26                	sw	s1,20(sp)
  102f04:	c84a                	sw	s2,16(sp)
  102f06:	c64e                	sw	s3,12(sp)
  102f08:	c452                	sw	s4,8(sp)
  102f0a:	c256                	sw	s5,4(sp)
  102f0c:	c05a                	sw	s6,0(sp)
  102f0e:	00b56733          	or	a4,a0,a1
  102f12:	14070e63          	beqz	a4,10306e <__floatdidf+0x172>
  102f16:	84ae                	mv	s1,a1
  102f18:	842a                	mv	s0,a0
  102f1a:	01f5d993          	srli	s3,a1,0x1f
  102f1e:	0005d963          	bgez	a1,102f30 <__floatdidf+0x34>
  102f22:	00a037b3          	snez	a5,a0
  102f26:	40b004b3          	neg	s1,a1
  102f2a:	8c9d                	sub	s1,s1,a5
  102f2c:	40a00433          	neg	s0,a0
  102f30:	8926                	mv	s2,s1
  102f32:	c8a5                	beqz	s1,102fa2 <__floatdidf+0xa6>
  102f34:	8526                	mv	a0,s1
  102f36:	2a6020ef          	jal	ra,1051dc <__clzsi2>
  102f3a:	8aaa                	mv	s5,a0
  102f3c:	43e00a13          	li	s4,1086
  102f40:	415a0a33          	sub	s4,s4,s5
  102f44:	43300793          	li	a5,1075
  102f48:	0747c963          	blt	a5,s4,102fba <__floatdidf+0xbe>
  102f4c:	472d                	li	a4,11
  102f4e:	87a2                	mv	a5,s0
  102f50:	03575463          	bge	a4,s5,102f78 <__floatdidf+0x7c>
  102f54:	02a00713          	li	a4,42
  102f58:	05574b63          	blt	a4,s5,102fae <__floatdidf+0xb2>
  102f5c:	02b00913          	li	s2,43
  102f60:	ff5a8713          	addi	a4,s5,-11
  102f64:	41590933          	sub	s2,s2,s5
  102f68:	01245933          	srl	s2,s0,s2
  102f6c:	00e494b3          	sll	s1,s1,a4
  102f70:	00996933          	or	s2,s2,s1
  102f74:	00e417b3          	sll	a5,s0,a4
  102f78:	00c91493          	slli	s1,s2,0xc
  102f7c:	40f2                	lw	ra,28(sp)
  102f7e:	4462                	lw	s0,24(sp)
  102f80:	0a52                	slli	s4,s4,0x14
  102f82:	80b1                	srli	s1,s1,0xc
  102f84:	009a64b3          	or	s1,s4,s1
  102f88:	09fe                	slli	s3,s3,0x1f
  102f8a:	0134e733          	or	a4,s1,s3
  102f8e:	4942                	lw	s2,16(sp)
  102f90:	44d2                	lw	s1,20(sp)
  102f92:	49b2                	lw	s3,12(sp)
  102f94:	4a22                	lw	s4,8(sp)
  102f96:	4a92                	lw	s5,4(sp)
  102f98:	4b02                	lw	s6,0(sp)
  102f9a:	853e                	mv	a0,a5
  102f9c:	85ba                	mv	a1,a4
  102f9e:	6105                	addi	sp,sp,32
  102fa0:	8082                	ret
  102fa2:	8522                	mv	a0,s0
  102fa4:	238020ef          	jal	ra,1051dc <__clzsi2>
  102fa8:	02050a93          	addi	s5,a0,32 # 80000020 <fromhost+0x7fec8010>
  102fac:	bf41                	j	102f3c <__floatdidf+0x40>
  102fae:	fd5a8493          	addi	s1,s5,-43
  102fb2:	00941933          	sll	s2,s0,s1
  102fb6:	4781                	li	a5,0
  102fb8:	b7c1                	j	102f78 <__floatdidf+0x7c>
  102fba:	43600793          	li	a5,1078
  102fbe:	0347d863          	bge	a5,s4,102fee <__floatdidf+0xf2>
  102fc2:	4621                	li	a2,8
  102fc4:	41560633          	sub	a2,a2,s5
  102fc8:	8522                	mv	a0,s0
  102fca:	85a6                	mv	a1,s1
  102fcc:	1bc020ef          	jal	ra,105188 <__lshrdi3>
  102fd0:	8b2a                	mv	s6,a0
  102fd2:	892e                	mv	s2,a1
  102fd4:	8522                	mv	a0,s0
  102fd6:	85a6                	mv	a1,s1
  102fd8:	038a8613          	addi	a2,s5,56
  102fdc:	1d6020ef          	jal	ra,1051b2 <__ashldi3>
  102fe0:	00b567b3          	or	a5,a0,a1
  102fe4:	00f037b3          	snez	a5,a5
  102fe8:	0167e433          	or	s0,a5,s6
  102fec:	84ca                	mv	s1,s2
  102fee:	4721                	li	a4,8
  102ff0:	87a2                	mv	a5,s0
  102ff2:	03575363          	bge	a4,s5,103018 <__floatdidf+0x11c>
  102ff6:	02700713          	li	a4,39
  102ffa:	07574463          	blt	a4,s5,103062 <__floatdidf+0x166>
  102ffe:	02800593          	li	a1,40
  103002:	ff8a8713          	addi	a4,s5,-8
  103006:	415585b3          	sub	a1,a1,s5
  10300a:	00e494b3          	sll	s1,s1,a4
  10300e:	00b455b3          	srl	a1,s0,a1
  103012:	8ccd                	or	s1,s1,a1
  103014:	00e417b3          	sll	a5,s0,a4
  103018:	ff800737          	lui	a4,0xff800
  10301c:	177d                	addi	a4,a4,-1
  10301e:	8cf9                	and	s1,s1,a4
  103020:	0077f713          	andi	a4,a5,7
  103024:	cf01                	beqz	a4,10303c <__floatdidf+0x140>
  103026:	00f7f713          	andi	a4,a5,15
  10302a:	4691                	li	a3,4
  10302c:	00d70863          	beq	a4,a3,10303c <__floatdidf+0x140>
  103030:	00478713          	addi	a4,a5,4 # 400004 <fromhost+0x2c7ff4>
  103034:	00f737b3          	sltu	a5,a4,a5
  103038:	94be                	add	s1,s1,a5
  10303a:	87ba                	mv	a5,a4
  10303c:	00800737          	lui	a4,0x800
  103040:	8f65                	and	a4,a4,s1
  103042:	cb09                	beqz	a4,103054 <__floatdidf+0x158>
  103044:	ff800737          	lui	a4,0xff800
  103048:	177d                	addi	a4,a4,-1
  10304a:	43f00a13          	li	s4,1087
  10304e:	8cf9                	and	s1,s1,a4
  103050:	415a0a33          	sub	s4,s4,s5
  103054:	838d                	srli	a5,a5,0x3
  103056:	01d49413          	slli	s0,s1,0x1d
  10305a:	8fc1                	or	a5,a5,s0
  10305c:	0034d913          	srli	s2,s1,0x3
  103060:	bf21                	j	102f78 <__floatdidf+0x7c>
  103062:	fd8a8493          	addi	s1,s5,-40
  103066:	009414b3          	sll	s1,s0,s1
  10306a:	4781                	li	a5,0
  10306c:	b775                	j	103018 <__floatdidf+0x11c>
  10306e:	4901                	li	s2,0
  103070:	4781                	li	a5,0
  103072:	4a01                	li	s4,0
  103074:	4981                	li	s3,0
  103076:	b709                	j	102f78 <__floatdidf+0x7c>

00103078 <__getf2>:
  103078:	00052f83          	lw	t6,0(a0)
  10307c:	00452803          	lw	a6,4(a0)
  103080:	00852e03          	lw	t3,8(a0)
  103084:	4548                	lw	a0,12(a0)
  103086:	45d4                	lw	a3,12(a1)
  103088:	67a1                	lui	a5,0x8
  10308a:	01055613          	srli	a2,a0,0x10
  10308e:	17fd                	addi	a5,a5,-1
  103090:	01069313          	slli	t1,a3,0x10
  103094:	0106d713          	srli	a4,a3,0x10
  103098:	0005a283          	lw	t0,0(a1) # 80000000 <fromhost+0x7fec7ff0>
  10309c:	0045a883          	lw	a7,4(a1)
  1030a0:	0085ae83          	lw	t4,8(a1)
  1030a4:	8e7d                	and	a2,a2,a5
  1030a6:	01051593          	slli	a1,a0,0x10
  1030aa:	1141                	addi	sp,sp,-16
  1030ac:	81c1                	srli	a1,a1,0x10
  1030ae:	817d                	srli	a0,a0,0x1f
  1030b0:	01035313          	srli	t1,t1,0x10
  1030b4:	8f7d                	and	a4,a4,a5
  1030b6:	82fd                	srli	a3,a3,0x1f
  1030b8:	00f61a63          	bne	a2,a5,1030cc <__getf2+0x54>
  1030bc:	01f867b3          	or	a5,a6,t6
  1030c0:	01c7e7b3          	or	a5,a5,t3
  1030c4:	8fcd                	or	a5,a5,a1
  1030c6:	cfd1                	beqz	a5,103162 <__getf2+0xea>
  1030c8:	5579                	li	a0,-2
  1030ca:	a0b1                	j	103116 <__getf2+0x9e>
  1030cc:	00f71963          	bne	a4,a5,1030de <__getf2+0x66>
  1030d0:	0112e7b3          	or	a5,t0,a7
  1030d4:	01d7e7b3          	or	a5,a5,t4
  1030d8:	0067e7b3          	or	a5,a5,t1
  1030dc:	f7f5                	bnez	a5,1030c8 <__getf2+0x50>
  1030de:	e641                	bnez	a2,103166 <__getf2+0xee>
  1030e0:	01f867b3          	or	a5,a6,t6
  1030e4:	01c7e7b3          	or	a5,a5,t3
  1030e8:	8fcd                	or	a5,a5,a1
  1030ea:	0017b793          	seqz	a5,a5
  1030ee:	eb09                	bnez	a4,103100 <__getf2+0x88>
  1030f0:	0112ef33          	or	t5,t0,a7
  1030f4:	01df6f33          	or	t5,t5,t4
  1030f8:	006f6f33          	or	t5,t5,t1
  1030fc:	040f0b63          	beqz	t5,103152 <__getf2+0xda>
  103100:	eb81                	bnez	a5,103110 <__getf2+0x98>
  103102:	00a69463          	bne	a3,a0,10310a <__getf2+0x92>
  103106:	00c75a63          	bge	a4,a2,10311a <__getf2+0xa2>
  10310a:	c131                	beqz	a0,10314e <__getf2+0xd6>
  10310c:	557d                	li	a0,-1
  10310e:	a021                	j	103116 <__getf2+0x9e>
  103110:	557d                	li	a0,-1
  103112:	c291                	beqz	a3,103116 <__getf2+0x9e>
  103114:	8536                	mv	a0,a3
  103116:	0141                	addi	sp,sp,16
  103118:	8082                	ret
  10311a:	00e65463          	bge	a2,a4,103122 <__getf2+0xaa>
  10311e:	fd65                	bnez	a0,103116 <__getf2+0x9e>
  103120:	b7f5                	j	10310c <__getf2+0x94>
  103122:	feb364e3          	bltu	t1,a1,10310a <__getf2+0x92>
  103126:	02659863          	bne	a1,t1,103156 <__getf2+0xde>
  10312a:	ffcee0e3          	bltu	t4,t3,10310a <__getf2+0x92>
  10312e:	03de1763          	bne	t3,t4,10315c <__getf2+0xe4>
  103132:	fd08ece3          	bltu	a7,a6,10310a <__getf2+0x92>
  103136:	01181463          	bne	a6,a7,10313e <__getf2+0xc6>
  10313a:	fdf2e8e3          	bltu	t0,t6,10310a <__getf2+0x92>
  10313e:	ff1860e3          	bltu	a6,a7,10311e <__getf2+0xa6>
  103142:	01181463          	bne	a6,a7,10314a <__getf2+0xd2>
  103146:	fc5fece3          	bltu	t6,t0,10311e <__getf2+0xa6>
  10314a:	4501                	li	a0,0
  10314c:	b7e9                	j	103116 <__getf2+0x9e>
  10314e:	4505                	li	a0,1
  103150:	b7d9                	j	103116 <__getf2+0x9e>
  103152:	ffe5                	bnez	a5,10314a <__getf2+0xd2>
  103154:	bf5d                	j	10310a <__getf2+0x92>
  103156:	fc65e4e3          	bltu	a1,t1,10311e <__getf2+0xa6>
  10315a:	bfc5                	j	10314a <__getf2+0xd2>
  10315c:	fdde61e3          	bltu	t3,t4,10311e <__getf2+0xa6>
  103160:	b7ed                	j	10314a <__getf2+0xd2>
  103162:	f6c707e3          	beq	a4,a2,1030d0 <__getf2+0x58>
  103166:	ff51                	bnez	a4,103102 <__getf2+0x8a>
  103168:	4781                	li	a5,0
  10316a:	b759                	j	1030f0 <__getf2+0x78>

0010316c <__letf2>:
  10316c:	00052f83          	lw	t6,0(a0)
  103170:	00452803          	lw	a6,4(a0)
  103174:	00852e03          	lw	t3,8(a0)
  103178:	4548                	lw	a0,12(a0)
  10317a:	45d4                	lw	a3,12(a1)
  10317c:	67a1                	lui	a5,0x8
  10317e:	01055613          	srli	a2,a0,0x10
  103182:	17fd                	addi	a5,a5,-1
  103184:	01069313          	slli	t1,a3,0x10
  103188:	0106d713          	srli	a4,a3,0x10
  10318c:	0005a283          	lw	t0,0(a1)
  103190:	0045a883          	lw	a7,4(a1)
  103194:	0085ae83          	lw	t4,8(a1)
  103198:	8e7d                	and	a2,a2,a5
  10319a:	01051593          	slli	a1,a0,0x10
  10319e:	1141                	addi	sp,sp,-16
  1031a0:	81c1                	srli	a1,a1,0x10
  1031a2:	817d                	srli	a0,a0,0x1f
  1031a4:	01035313          	srli	t1,t1,0x10
  1031a8:	8f7d                	and	a4,a4,a5
  1031aa:	82fd                	srli	a3,a3,0x1f
  1031ac:	00f61a63          	bne	a2,a5,1031c0 <__letf2+0x54>
  1031b0:	01f867b3          	or	a5,a6,t6
  1031b4:	01c7e7b3          	or	a5,a5,t3
  1031b8:	8fcd                	or	a5,a5,a1
  1031ba:	cfd1                	beqz	a5,103256 <__letf2+0xea>
  1031bc:	4509                	li	a0,2
  1031be:	a0b1                	j	10320a <__letf2+0x9e>
  1031c0:	00f71963          	bne	a4,a5,1031d2 <__letf2+0x66>
  1031c4:	0112e7b3          	or	a5,t0,a7
  1031c8:	01d7e7b3          	or	a5,a5,t4
  1031cc:	0067e7b3          	or	a5,a5,t1
  1031d0:	f7f5                	bnez	a5,1031bc <__letf2+0x50>
  1031d2:	e641                	bnez	a2,10325a <__letf2+0xee>
  1031d4:	01f867b3          	or	a5,a6,t6
  1031d8:	01c7e7b3          	or	a5,a5,t3
  1031dc:	8fcd                	or	a5,a5,a1
  1031de:	0017b793          	seqz	a5,a5
  1031e2:	eb09                	bnez	a4,1031f4 <__letf2+0x88>
  1031e4:	0112ef33          	or	t5,t0,a7
  1031e8:	01df6f33          	or	t5,t5,t4
  1031ec:	006f6f33          	or	t5,t5,t1
  1031f0:	040f0b63          	beqz	t5,103246 <__letf2+0xda>
  1031f4:	eb81                	bnez	a5,103204 <__letf2+0x98>
  1031f6:	00a69463          	bne	a3,a0,1031fe <__letf2+0x92>
  1031fa:	00c75a63          	bge	a4,a2,10320e <__letf2+0xa2>
  1031fe:	c131                	beqz	a0,103242 <__letf2+0xd6>
  103200:	557d                	li	a0,-1
  103202:	a021                	j	10320a <__letf2+0x9e>
  103204:	557d                	li	a0,-1
  103206:	c291                	beqz	a3,10320a <__letf2+0x9e>
  103208:	8536                	mv	a0,a3
  10320a:	0141                	addi	sp,sp,16
  10320c:	8082                	ret
  10320e:	00e65463          	bge	a2,a4,103216 <__letf2+0xaa>
  103212:	fd65                	bnez	a0,10320a <__letf2+0x9e>
  103214:	b7f5                	j	103200 <__letf2+0x94>
  103216:	feb364e3          	bltu	t1,a1,1031fe <__letf2+0x92>
  10321a:	02659863          	bne	a1,t1,10324a <__letf2+0xde>
  10321e:	ffcee0e3          	bltu	t4,t3,1031fe <__letf2+0x92>
  103222:	03de1763          	bne	t3,t4,103250 <__letf2+0xe4>
  103226:	fd08ece3          	bltu	a7,a6,1031fe <__letf2+0x92>
  10322a:	01181463          	bne	a6,a7,103232 <__letf2+0xc6>
  10322e:	fdf2e8e3          	bltu	t0,t6,1031fe <__letf2+0x92>
  103232:	ff1860e3          	bltu	a6,a7,103212 <__letf2+0xa6>
  103236:	01181463          	bne	a6,a7,10323e <__letf2+0xd2>
  10323a:	fc5fece3          	bltu	t6,t0,103212 <__letf2+0xa6>
  10323e:	4501                	li	a0,0
  103240:	b7e9                	j	10320a <__letf2+0x9e>
  103242:	4505                	li	a0,1
  103244:	b7d9                	j	10320a <__letf2+0x9e>
  103246:	ffe5                	bnez	a5,10323e <__letf2+0xd2>
  103248:	bf5d                	j	1031fe <__letf2+0x92>
  10324a:	fc65e4e3          	bltu	a1,t1,103212 <__letf2+0xa6>
  10324e:	bfc5                	j	10323e <__letf2+0xd2>
  103250:	fdde61e3          	bltu	t3,t4,103212 <__letf2+0xa6>
  103254:	b7ed                	j	10323e <__letf2+0xd2>
  103256:	f6c707e3          	beq	a4,a2,1031c4 <__letf2+0x58>
  10325a:	ff51                	bnez	a4,1031f6 <__letf2+0x8a>
  10325c:	4781                	li	a5,0
  10325e:	b759                	j	1031e4 <__letf2+0x78>

00103260 <__multf3>:
  103260:	7131                	addi	sp,sp,-192
  103262:	d94a                	sw	s2,176(sp)
  103264:	00c5a903          	lw	s2,12(a1)
  103268:	419c                	lw	a5,0(a1)
  10326a:	41d4                	lw	a3,4(a1)
  10326c:	c62a                	sw	a0,12(sp)
  10326e:	4588                	lw	a0,8(a1)
  103270:	01091713          	slli	a4,s2,0x10
  103274:	d74e                	sw	s3,172(sp)
  103276:	d552                	sw	s4,168(sp)
  103278:	00c62983          	lw	s3,12(a2)
  10327c:	00062a03          	lw	s4,0(a2)
  103280:	d356                	sw	s5,164(sp)
  103282:	d15a                	sw	s6,160(sp)
  103284:	00862a83          	lw	s5,8(a2)
  103288:	00462b03          	lw	s6,4(a2)
  10328c:	6621                	lui	a2,0x8
  10328e:	dd22                	sw	s0,184(sp)
  103290:	8341                	srli	a4,a4,0x10
  103292:	01095413          	srli	s0,s2,0x10
  103296:	167d                	addi	a2,a2,-1
  103298:	d6ca                	sw	s2,108(sp)
  10329a:	df06                	sw	ra,188(sp)
  10329c:	db26                	sw	s1,180(sp)
  10329e:	cf5e                	sw	s7,156(sp)
  1032a0:	cd62                	sw	s8,152(sp)
  1032a2:	cb66                	sw	s9,148(sp)
  1032a4:	c96a                	sw	s10,144(sp)
  1032a6:	c76e                	sw	s11,140(sp)
  1032a8:	d0be                	sw	a5,96(sp)
  1032aa:	d2b6                	sw	a3,100(sp)
  1032ac:	d4aa                	sw	a0,104(sp)
  1032ae:	d83e                	sw	a5,48(sp)
  1032b0:	da36                	sw	a3,52(sp)
  1032b2:	dc2a                	sw	a0,56(sp)
  1032b4:	de3a                	sw	a4,60(sp)
  1032b6:	8c71                	and	s0,s0,a2
  1032b8:	01f95913          	srli	s2,s2,0x1f
  1032bc:	cc45                	beqz	s0,103374 <__multf3+0x114>
  1032be:	16c40c63          	beq	s0,a2,103436 <__multf3+0x1d6>
  1032c2:	67c1                	lui	a5,0x10
  1032c4:	8fd9                	or	a5,a5,a4
  1032c6:	de3e                	sw	a5,60(sp)
  1032c8:	1810                	addi	a2,sp,48
  1032ca:	187c                	addi	a5,sp,60
  1032cc:	4398                	lw	a4,0(a5)
  1032ce:	ffc7a683          	lw	a3,-4(a5) # fffc <_stack_len+0x7ffc>
  1032d2:	17f1                	addi	a5,a5,-4
  1032d4:	070e                	slli	a4,a4,0x3
  1032d6:	82f5                	srli	a3,a3,0x1d
  1032d8:	8f55                	or	a4,a4,a3
  1032da:	c3d8                	sw	a4,4(a5)
  1032dc:	fef618e3          	bne	a2,a5,1032cc <__multf3+0x6c>
  1032e0:	57c2                	lw	a5,48(sp)
  1032e2:	7571                	lui	a0,0xffffc
  1032e4:	0505                	addi	a0,a0,1
  1032e6:	078e                	slli	a5,a5,0x3
  1032e8:	d83e                	sw	a5,48(sp)
  1032ea:	942a                	add	s0,s0,a0
  1032ec:	4b81                	li	s7,0
  1032ee:	01099513          	slli	a0,s3,0x10
  1032f2:	6721                	lui	a4,0x8
  1032f4:	0109d793          	srli	a5,s3,0x10
  1032f8:	8141                	srli	a0,a0,0x10
  1032fa:	177d                	addi	a4,a4,-1
  1032fc:	d6ce                	sw	s3,108(sp)
  1032fe:	d0d2                	sw	s4,96(sp)
  103300:	d2da                	sw	s6,100(sp)
  103302:	d4d6                	sw	s5,104(sp)
  103304:	c0d2                	sw	s4,64(sp)
  103306:	c2da                	sw	s6,68(sp)
  103308:	c4d6                	sw	s5,72(sp)
  10330a:	c6aa                	sw	a0,76(sp)
  10330c:	8ff9                	and	a5,a5,a4
  10330e:	01f9d993          	srli	s3,s3,0x1f
  103312:	12078d63          	beqz	a5,10344c <__multf3+0x1ec>
  103316:	1ee78f63          	beq	a5,a4,103514 <__multf3+0x2b4>
  10331a:	6ac1                	lui	s5,0x10
  10331c:	01556ab3          	or	s5,a0,s5
  103320:	c6d6                	sw	s5,76(sp)
  103322:	008c                	addi	a1,sp,64
  103324:	00f8                	addi	a4,sp,76
  103326:	4314                	lw	a3,0(a4)
  103328:	ffc72603          	lw	a2,-4(a4) # 7ffc <_min_stack+0x5ffc>
  10332c:	1771                	addi	a4,a4,-4
  10332e:	068e                	slli	a3,a3,0x3
  103330:	8275                	srli	a2,a2,0x1d
  103332:	8ed1                	or	a3,a3,a2
  103334:	c354                	sw	a3,4(a4)
  103336:	fee598e3          	bne	a1,a4,103326 <__multf3+0xc6>
  10333a:	4706                	lw	a4,64(sp)
  10333c:	7571                	lui	a0,0xffffc
  10333e:	0505                	addi	a0,a0,1
  103340:	070e                	slli	a4,a4,0x3
  103342:	c0ba                	sw	a4,64(sp)
  103344:	97aa                	add	a5,a5,a0
  103346:	4701                	li	a4,0
  103348:	97a2                	add	a5,a5,s0
  10334a:	d03e                	sw	a5,32(sp)
  10334c:	0785                	addi	a5,a5,1
  10334e:	ce3e                	sw	a5,28(sp)
  103350:	002b9793          	slli	a5,s7,0x2
  103354:	013946b3          	xor	a3,s2,s3
  103358:	8fd9                	or	a5,a5,a4
  10335a:	c836                	sw	a3,16(sp)
  10335c:	17fd                	addi	a5,a5,-1
  10335e:	46b9                	li	a3,14
  103360:	1cf6e863          	bltu	a3,a5,103530 <__multf3+0x2d0>
  103364:	001056b7          	lui	a3,0x105
  103368:	078a                	slli	a5,a5,0x2
  10336a:	47468693          	addi	a3,a3,1140 # 105474 <.SnowflakeIoT$20001$jtab$084+0x18c>
  10336e:	97b6                	add	a5,a5,a3
  103370:	439c                	lw	a5,0(a5)
  103372:	8782                	jr	a5
  103374:	00d7e633          	or	a2,a5,a3
  103378:	8e49                	or	a2,a2,a0
  10337a:	8e59                	or	a2,a2,a4
  10337c:	c669                	beqz	a2,103446 <__multf3+0x1e6>
  10337e:	cb39                	beqz	a4,1033d4 <__multf3+0x174>
  103380:	853a                	mv	a0,a4
  103382:	65b010ef          	jal	ra,1051dc <__clzsi2>
  103386:	84aa                	mv	s1,a0
  103388:	ff448713          	addi	a4,s1,-12
  10338c:	40575613          	srai	a2,a4,0x5
  103390:	8b7d                	andi	a4,a4,31
  103392:	c725                	beqz	a4,1033fa <__multf3+0x19a>
  103394:	57f1                	li	a5,-4
  103396:	02f607b3          	mul	a5,a2,a5
  10339a:	02000513          	li	a0,32
  10339e:	03010893          	addi	a7,sp,48
  1033a2:	8d19                	sub	a0,a0,a4
  1033a4:	00261593          	slli	a1,a2,0x2
  1033a8:	07b1                	addi	a5,a5,12
  1033aa:	97c6                	add	a5,a5,a7
  1033ac:	06f89663          	bne	a7,a5,103418 <__multf3+0x1b8>
  1033b0:	011c                	addi	a5,sp,128
  1033b2:	95be                	add	a1,a1,a5
  1033b4:	57c2                	lw	a5,48(sp)
  1033b6:	167d                	addi	a2,a2,-1
  1033b8:	00e79733          	sll	a4,a5,a4
  1033bc:	fae5a823          	sw	a4,-80(a1)
  1033c0:	0605                	addi	a2,a2,1
  1033c2:	7471                	lui	s0,0xffffc
  1033c4:	060a                	slli	a2,a2,0x2
  1033c6:	4581                	li	a1,0
  1033c8:	1808                	addi	a0,sp,48
  1033ca:	0445                	addi	s0,s0,17
  1033cc:	eeafe0ef          	jal	ra,101ab6 <memset>
  1033d0:	8c05                	sub	s0,s0,s1
  1033d2:	bf29                	j	1032ec <__multf3+0x8c>
  1033d4:	c511                	beqz	a0,1033e0 <__multf3+0x180>
  1033d6:	607010ef          	jal	ra,1051dc <__clzsi2>
  1033da:	02050493          	addi	s1,a0,32 # ffffc020 <fromhost+0xffec4010>
  1033de:	b76d                	j	103388 <__multf3+0x128>
  1033e0:	c699                	beqz	a3,1033ee <__multf3+0x18e>
  1033e2:	8536                	mv	a0,a3
  1033e4:	5f9010ef          	jal	ra,1051dc <__clzsi2>
  1033e8:	04050493          	addi	s1,a0,64
  1033ec:	bf71                	j	103388 <__multf3+0x128>
  1033ee:	853e                	mv	a0,a5
  1033f0:	5ed010ef          	jal	ra,1051dc <__clzsi2>
  1033f4:	06050493          	addi	s1,a0,96
  1033f8:	bf41                	j	103388 <__multf3+0x128>
  1033fa:	56f1                	li	a3,-4
  1033fc:	02d606b3          	mul	a3,a2,a3
  103400:	187c                	addi	a5,sp,60
  103402:	470d                	li	a4,3
  103404:	00d785b3          	add	a1,a5,a3
  103408:	418c                	lw	a1,0(a1)
  10340a:	177d                	addi	a4,a4,-1
  10340c:	17f1                	addi	a5,a5,-4
  10340e:	c3cc                	sw	a1,4(a5)
  103410:	fec75ae3          	bge	a4,a2,103404 <__multf3+0x1a4>
  103414:	167d                	addi	a2,a2,-1
  103416:	b76d                	j	1033c0 <__multf3+0x160>
  103418:	4394                	lw	a3,0(a5)
  10341a:	ffc7a803          	lw	a6,-4(a5)
  10341e:	00b78333          	add	t1,a5,a1
  103422:	00e696b3          	sll	a3,a3,a4
  103426:	00a85833          	srl	a6,a6,a0
  10342a:	0106e6b3          	or	a3,a3,a6
  10342e:	00d32023          	sw	a3,0(t1) # 10000 <_stack_len+0x8000>
  103432:	17f1                	addi	a5,a5,-4
  103434:	bfa5                	j	1033ac <__multf3+0x14c>
  103436:	8fd5                	or	a5,a5,a3
  103438:	8fc9                	or	a5,a5,a0
  10343a:	8fd9                	or	a5,a5,a4
  10343c:	4b8d                	li	s7,3
  10343e:	ea0798e3          	bnez	a5,1032ee <__multf3+0x8e>
  103442:	4b89                	li	s7,2
  103444:	b56d                	j	1032ee <__multf3+0x8e>
  103446:	4401                	li	s0,0
  103448:	4b85                	li	s7,1
  10344a:	b555                	j	1032ee <__multf3+0x8e>
  10344c:	016a67b3          	or	a5,s4,s6
  103450:	0157e7b3          	or	a5,a5,s5
  103454:	8fc9                	or	a5,a5,a0
  103456:	cbf1                	beqz	a5,10352a <__multf3+0x2ca>
  103458:	c931                	beqz	a0,1034ac <__multf3+0x24c>
  10345a:	583010ef          	jal	ra,1051dc <__clzsi2>
  10345e:	84aa                	mv	s1,a0
  103460:	ff448713          	addi	a4,s1,-12
  103464:	40575613          	srai	a2,a4,0x5
  103468:	8b7d                	andi	a4,a4,31
  10346a:	c73d                	beqz	a4,1034d8 <__multf3+0x278>
  10346c:	57f1                	li	a5,-4
  10346e:	02f607b3          	mul	a5,a2,a5
  103472:	02000513          	li	a0,32
  103476:	04010893          	addi	a7,sp,64
  10347a:	8d19                	sub	a0,a0,a4
  10347c:	00261593          	slli	a1,a2,0x2
  103480:	07b1                	addi	a5,a5,12
  103482:	97c6                	add	a5,a5,a7
  103484:	06f89963          	bne	a7,a5,1034f6 <__multf3+0x296>
  103488:	011c                	addi	a5,sp,128
  10348a:	95be                	add	a1,a1,a5
  10348c:	4786                	lw	a5,64(sp)
  10348e:	167d                	addi	a2,a2,-1
  103490:	00e79733          	sll	a4,a5,a4
  103494:	fce5a023          	sw	a4,-64(a1)
  103498:	0605                	addi	a2,a2,1
  10349a:	060a                	slli	a2,a2,0x2
  10349c:	4581                	li	a1,0
  10349e:	0088                	addi	a0,sp,64
  1034a0:	e16fe0ef          	jal	ra,101ab6 <memset>
  1034a4:	77f1                	lui	a5,0xffffc
  1034a6:	07c5                	addi	a5,a5,17
  1034a8:	8f85                	sub	a5,a5,s1
  1034aa:	bd71                	j	103346 <__multf3+0xe6>
  1034ac:	000a8863          	beqz	s5,1034bc <__multf3+0x25c>
  1034b0:	8556                	mv	a0,s5
  1034b2:	52b010ef          	jal	ra,1051dc <1051dc>
  1034b6:	02050493          	addi	s1,a0,32
  1034ba:	b75d                	j	103460 <__multf3+0x200>
  1034bc:	000b0863          	beqz	s6,1034cc <__multf3+0x26c>
  1034c0:	855a                	mv	a0,s6
  1034c2:	51b010ef          	jal	ra,1051dc <__clzsi2>
  1034c6:	04050493          	addi	s1,a0,64
  1034ca:	bf59                	j	103460 <__multf3+0x200>
  1034cc:	8552                	mv	a0,s4
  1034ce:	50f010ef          	jal	ra,1051dc <__clzsi2>
  1034d2:	06050493          	addi	s1,a0,96
  1034d6:	b769                	j	103460 <__multf3+0x200>
  1034d8:	56f1                	li	a3,-4
  1034da:	02d606b3          	mul	a3,a2,a3
  1034de:	00fc                	addi	a5,sp,76
  1034e0:	470d                	li	a4,3
  1034e2:	00d785b3          	add	a1,a5,a3
  1034e6:	418c                	lw	a1,0(a1)
  1034e8:	177d                	addi	a4,a4,-1
  1034ea:	17f1                	addi	a5,a5,-4
  1034ec:	c3cc                	sw	a1,4(a5)
  1034ee:	fec75ae3          	bge	a4,a2,1034e2 <__multf3+0x282>
  1034f2:	167d                	addi	a2,a2,-1
  1034f4:	b755                	j	103498 <__multf3+0x238>
  1034f6:	4394                	lw	a3,0(a5)
  1034f8:	ffc7a803          	lw	a6,-4(a5) # ffffbffc <fromhost+0xffec3fec>
  1034fc:	00b78333          	add	t1,a5,a1
  103500:	00e696b3          	sll	a3,a3,a4
  103504:	00a85833          	srl	a6,a6,a0
  103508:	0106e6b3          	or	a3,a3,a6
  10350c:	00d32023          	sw	a3,0(t1)
  103510:	17f1                	addi	a5,a5,-4
  103512:	bf8d                	j	103484 <__multf3+0x224>
  103514:	016a6a33          	or	s4,s4,s6
  103518:	015a6ab3          	or	s5,s4,s5
  10351c:	00aaeab3          	or	s5,s5,a0
  103520:	470d                	li	a4,3
  103522:	e20a93e3          	bnez	s5,103348 <__multf3+0xe8>
  103526:	4709                	li	a4,2
  103528:	b505                	j	103348 <__multf3+0xe8>
  10352a:	4781                	li	a5,0
  10352c:	4705                	li	a4,1
  10352e:	bd29                	j	103348 <__multf3+0xe8>
  103530:	5742                	lw	a4,48(sp)
  103532:	4e06                	lw	t3,64(sp)
  103534:	6541                	lui	a0,0x10
  103536:	fff50693          	addi	a3,a0,-1 # ffff <_stack_len+0x7fff>
  10353a:	01075f93          	srli	t6,a4,0x10
  10353e:	010e5a93          	srli	s5,t3,0x10
  103542:	8f75                	and	a4,a4,a3
  103544:	00de7e33          	and	t3,t3,a3
  103548:	02ea87b3          	mul	a5,s5,a4
  10354c:	02ee0633          	mul	a2,t3,a4
  103550:	03cf8833          	mul	a6,t6,t3
  103554:	010785b3          	add	a1,a5,a6
  103558:	01065793          	srli	a5,a2,0x10
  10355c:	97ae                	add	a5,a5,a1
  10355e:	035f8bb3          	mul	s7,t6,s5
  103562:	0107f363          	bgeu	a5,a6,103568 <__multf3+0x308>
  103566:	9baa                	add	s7,s7,a0
  103568:	4f16                	lw	t5,68(sp)
  10356a:	0107d993          	srli	s3,a5,0x10
  10356e:	8ff5                	and	a5,a5,a3
  103570:	8e75                	and	a2,a2,a3
  103572:	07c2                	slli	a5,a5,0x10
  103574:	97b2                	add	a5,a5,a2
  103576:	010f5493          	srli	s1,t5,0x10
  10357a:	00df7f33          	and	t5,t5,a3
  10357e:	02ef06b3          	mul	a3,t5,a4
  103582:	d23e                	sw	a5,36(sp)
  103584:	d0be                	sw	a5,96(sp)
  103586:	03ef8633          	mul	a2,t6,t5
  10358a:	02e487b3          	mul	a5,s1,a4
  10358e:	00c78533          	add	a0,a5,a2
  103592:	0106d793          	srli	a5,a3,0x10
  103596:	97aa                	add	a5,a5,a0
  103598:	029f8b33          	mul	s6,t6,s1
  10359c:	00c7f463          	bgeu	a5,a2,1035a4 <__multf3+0x344>
  1035a0:	6641                	lui	a2,0x10
  1035a2:	9b32                	add	s6,s6,a2
  1035a4:	6641                	lui	a2,0x10
  1035a6:	fff60593          	addi	a1,a2,-1 # ffff <_stack_len+0x7fff>
  1035aa:	00b7f533          	and	a0,a5,a1
  1035ae:	0107d293          	srli	t0,a5,0x10
  1035b2:	57d2                	lw	a5,52(sp)
  1035b4:	8eed                	and	a3,a3,a1
  1035b6:	0542                	slli	a0,a0,0x10
  1035b8:	0107d913          	srli	s2,a5,0x10
  1035bc:	8dfd                	and	a1,a1,a5
  1035be:	02ba87b3          	mul	a5,s5,a1
  1035c2:	9536                	add	a0,a0,a3
  1035c4:	99aa                	add	s3,s3,a0
  1035c6:	03c586b3          	mul	a3,a1,t3
  1035ca:	03c90333          	mul	t1,s2,t3
  1035ce:	00678833          	add	a6,a5,t1
  1035d2:	0106d793          	srli	a5,a3,0x10
  1035d6:	97c2                	add	a5,a5,a6
  1035d8:	032a88b3          	mul	a7,s5,s2
  1035dc:	0067f363          	bgeu	a5,t1,1035e2 <__multf3+0x382>
  1035e0:	98b2                	add	a7,a7,a2
  1035e2:	0107da13          	srli	s4,a5,0x10
  1035e6:	9a46                	add	s4,s4,a7
  1035e8:	68c1                	lui	a7,0x10
  1035ea:	fff88613          	addi	a2,a7,-1 # ffff <_stack_len+0x7fff>
  1035ee:	00c7f833          	and	a6,a5,a2
  1035f2:	8ef1                	and	a3,a3,a2
  1035f4:	0842                	slli	a6,a6,0x10
  1035f6:	03e58633          	mul	a2,a1,t5
  1035fa:	9836                	add	a6,a6,a3
  1035fc:	03e907b3          	mul	a5,s2,t5
  103600:	01065e93          	srli	t4,a2,0x10
  103604:	02b486b3          	mul	a3,s1,a1
  103608:	96be                	add	a3,a3,a5
  10360a:	96f6                	add	a3,a3,t4
  10360c:	03248333          	mul	t1,s1,s2
  103610:	00f6f363          	bgeu	a3,a5,103616 <__multf3+0x3b6>
  103614:	9346                	add	t1,t1,a7
  103616:	4ea6                	lw	t4,72(sp)
  103618:	0106d793          	srli	a5,a3,0x10
  10361c:	979a                	add	a5,a5,t1
  10361e:	6441                	lui	s0,0x10
  103620:	d43e                	sw	a5,40(sp)
  103622:	fff40793          	addi	a5,s0,-1 # ffff <_stack_len+0x7fff>
  103626:	010ed393          	srli	t2,t4,0x10
  10362a:	00fefeb3          	and	t4,t4,a5
  10362e:	02e388b3          	mul	a7,t2,a4
  103632:	8e7d                	and	a2,a2,a5
  103634:	8efd                	and	a3,a3,a5
  103636:	06c2                	slli	a3,a3,0x10
  103638:	96b2                	add	a3,a3,a2
  10363a:	02ee8333          	mul	t1,t4,a4
  10363e:	03df8c33          	mul	s8,t6,t4
  103642:	018887b3          	add	a5,a7,s8
  103646:	01035893          	srli	a7,t1,0x10
  10364a:	98be                	add	a7,a7,a5
  10364c:	027f8633          	mul	a2,t6,t2
  103650:	0188f363          	bgeu	a7,s8,103656 <__multf3+0x3f6>
  103654:	9622                	add	a2,a2,s0
  103656:	0108d793          	srli	a5,a7,0x10
  10365a:	6cc1                	lui	s9,0x10
  10365c:	97b2                	add	a5,a5,a2
  10365e:	fffc8613          	addi	a2,s9,-1 # ffff <_stack_len+0x7fff>
  103662:	d63e                	sw	a5,44(sp)
  103664:	00c8f7b3          	and	a5,a7,a2
  103668:	58e2                	lw	a7,56(sp)
  10366a:	00c37333          	and	t1,t1,a2
  10366e:	07c2                	slli	a5,a5,0x10
  103670:	0108d413          	srli	s0,a7,0x10
  103674:	00c8f633          	and	a2,a7,a2
  103678:	03c608b3          	mul	a7,a2,t3
  10367c:	979a                	add	a5,a5,t1
  10367e:	03c40d33          	mul	s10,s0,t3
  103682:	0108dd93          	srli	s11,a7,0x10
  103686:	02ca8333          	mul	t1,s5,a2
  10368a:	936a                	add	t1,t1,s10
  10368c:	9d9a                	add	s11,s11,t1
  10368e:	028a8c33          	mul	s8,s5,s0
  103692:	01adf363          	bgeu	s11,s10,103698 <__multf3+0x438>
  103696:	9c66                	add	s8,s8,s9
  103698:	99de                	add	s3,s3,s7
  10369a:	00a9b533          	sltu	a0,s3,a0
  10369e:	010dd313          	srli	t1,s11,0x10
  1036a2:	92aa                	add	t0,t0,a0
  1036a4:	9b16                	add	s6,s6,t0
  1036a6:	9c1a                	add	s8,s8,t1
  1036a8:	01098333          	add	t1,s3,a6
  1036ac:	01033833          	sltu	a6,t1,a6
  1036b0:	6cc1                	lui	s9,0x10
  1036b2:	ca1a                	sw	t1,20(sp)
  1036b4:	d29a                	sw	t1,100(sp)
  1036b6:	014b0333          	add	t1,s6,s4
  1036ba:	010302b3          	add	t0,t1,a6
  1036be:	fffc8d13          	addi	s10,s9,-1 # ffff <_stack_len+0x7fff>
  1036c2:	01433333          	sltu	t1,t1,s4
  1036c6:	0102b833          	sltu	a6,t0,a6
  1036ca:	01adfdb3          	and	s11,s11,s10
  1036ce:	00d289b3          	add	s3,t0,a3
  1036d2:	01036833          	or	a6,t1,a6
  1036d6:	0dc2                	slli	s11,s11,0x10
  1036d8:	00ab3533          	sltu	a0,s6,a0
  1036dc:	01a8f8b3          	and	a7,a7,s10
  1036e0:	98ee                	add	a7,a7,s11
  1036e2:	00d9b6b3          	sltu	a3,s3,a3
  1036e6:	9542                	add	a0,a0,a6
  1036e8:	99be                	add	s3,s3,a5
  1036ea:	5822                	lw	a6,40(sp)
  1036ec:	01198333          	add	t1,s3,a7
  1036f0:	011338b3          	sltu	a7,t1,a7
  1036f4:	cc1a                	sw	t1,24(sp)
  1036f6:	d49a                	sw	t1,104(sp)
  1036f8:	5322                	lw	t1,40(sp)
  1036fa:	9542                	add	a0,a0,a6
  1036fc:	5832                	lw	a6,44(sp)
  1036fe:	00d50db3          	add	s11,a0,a3
  103702:	00ddb6b3          	sltu	a3,s11,a3
  103706:	00653533          	sltu	a0,a0,t1
  10370a:	00f9b7b3          	sltu	a5,s3,a5
  10370e:	010d8bb3          	add	s7,s11,a6
  103712:	8ec9                	or	a3,a3,a0
  103714:	5532                	lw	a0,44(sp)
  103716:	00fb8833          	add	a6,s7,a5
  10371a:	4336                	lw	t1,76(sp)
  10371c:	018809b3          	add	s3,a6,s8
  103720:	01198b33          	add	s6,s3,a7
  103724:	00abbbb3          	sltu	s7,s7,a0
  103728:	00f837b3          	sltu	a5,a6,a5
  10372c:	00fbe7b3          	or	a5,s7,a5
  103730:	011b38b3          	sltu	a7,s6,a7
  103734:	0189bc33          	sltu	s8,s3,s8
  103738:	96be                	add	a3,a3,a5
  10373a:	01035293          	srli	t0,t1,0x10
  10373e:	011c6a33          	or	s4,s8,a7
  103742:	01a37333          	and	t1,t1,s10
  103746:	02e307b3          	mul	a5,t1,a4
  10374a:	9a36                	add	s4,s4,a3
  10374c:	02e28733          	mul	a4,t0,a4
  103750:	0107d893          	srli	a7,a5,0x10
  103754:	026f86b3          	mul	a3,t6,t1
  103758:	9736                	add	a4,a4,a3
  10375a:	98ba                	add	a7,a7,a4
  10375c:	025f8fb3          	mul	t6,t6,t0
  103760:	00d8f363          	bgeu	a7,a3,103766 <__multf3+0x506>
  103764:	9fe6                	add	t6,t6,s9
  103766:	59f2                	lw	s3,60(sp)
  103768:	66c1                	lui	a3,0x10
  10376a:	fff68513          	addi	a0,a3,-1 # ffff <_stack_len+0x7fff>
  10376e:	0108d713          	srli	a4,a7,0x10
  103772:	00a8f8b3          	and	a7,a7,a0
  103776:	977e                	add	a4,a4,t6
  103778:	8fe9                	and	a5,a5,a0
  10377a:	0109df93          	srli	t6,s3,0x10
  10377e:	08c2                	slli	a7,a7,0x10
  103780:	00a9f9b3          	and	s3,s3,a0
  103784:	8dba                	mv	s11,a4
  103786:	98be                	add	a7,a7,a5
  103788:	03fa8733          	mul	a4,s5,t6
  10378c:	03c987b3          	mul	a5,s3,t3
  103790:	033a8ab3          	mul	s5,s5,s3
  103794:	0107d813          	srli	a6,a5,0x10
  103798:	03cf8e33          	mul	t3,t6,t3
  10379c:	9af2                	add	s5,s5,t3
  10379e:	9ac2                	add	s5,s5,a6
  1037a0:	01caf363          	bgeu	s5,t3,1037a6 <__multf3+0x546>
  1037a4:	9736                	add	a4,a4,a3
  1037a6:	010ad693          	srli	a3,s5,0x10
  1037aa:	9736                	add	a4,a4,a3
  1037ac:	6bc1                	lui	s7,0x10
  1037ae:	d43a                	sw	a4,40(sp)
  1037b0:	fffb8713          	addi	a4,s7,-1 # ffff <_stack_len+0x7fff>
  1037b4:	00eaf833          	and	a6,s5,a4
  1037b8:	8ff9                	and	a5,a5,a4
  1037ba:	0842                	slli	a6,a6,0x10
  1037bc:	02be8733          	mul	a4,t4,a1
  1037c0:	983e                	add	a6,a6,a5
  1037c2:	03d906b3          	mul	a3,s2,t4
  1037c6:	01075513          	srli	a0,a4,0x10
  1037ca:	02b387b3          	mul	a5,t2,a1
  1037ce:	97b6                	add	a5,a5,a3
  1037d0:	97aa                	add	a5,a5,a0
  1037d2:	02790e33          	mul	t3,s2,t2
  1037d6:	00d7f363          	bgeu	a5,a3,1037dc <__multf3+0x57c>
  1037da:	9e5e                	add	t3,t3,s7
  1037dc:	0107d693          	srli	a3,a5,0x10
  1037e0:	96f2                	add	a3,a3,t3
  1037e2:	6bc1                	lui	s7,0x10
  1037e4:	d636                	sw	a3,44(sp)
  1037e6:	fffb8693          	addi	a3,s7,-1 # ffff <_stack_len+0x7fff>
  1037ea:	00d7f533          	and	a0,a5,a3
  1037ee:	8f75                	and	a4,a4,a3
  1037f0:	0542                	slli	a0,a0,0x10
  1037f2:	03e40e33          	mul	t3,s0,t5
  1037f6:	953a                	add	a0,a0,a4
  1037f8:	02c487b3          	mul	a5,s1,a2
  1037fc:	03e60733          	mul	a4,a2,t5
  103800:	97f2                	add	a5,a5,t3
  103802:	01075693          	srli	a3,a4,0x10
  103806:	97b6                	add	a5,a5,a3
  103808:	02848ab3          	mul	s5,s1,s0
  10380c:	01c7f363          	bgeu	a5,t3,103812 <__multf3+0x5b2>
  103810:	9ade                	add	s5,s5,s7
  103812:	66c1                	lui	a3,0x10
  103814:	fff68e13          	addi	t3,a3,-1 # ffff <_stack_len+0x7fff>
  103818:	01c7f6b3          	and	a3,a5,t3
  10381c:	0107db93          	srli	s7,a5,0x10
  103820:	011b07b3          	add	a5,s6,a7
  103824:	01c77733          	and	a4,a4,t3
  103828:	0117b8b3          	sltu	a7,a5,a7
  10382c:	9a6e                	add	s4,s4,s11
  10382e:	06c2                	slli	a3,a3,0x10
  103830:	96ba                	add	a3,a3,a4
  103832:	011a0d33          	add	s10,s4,a7
  103836:	5722                	lw	a4,40(sp)
  103838:	011d38b3          	sltu	a7,s10,a7
  10383c:	01ba3a33          	sltu	s4,s4,s11
  103840:	97c2                	add	a5,a5,a6
  103842:	011a6a33          	or	s4,s4,a7
  103846:	58a2                	lw	a7,40(sp)
  103848:	0107b833          	sltu	a6,a5,a6
  10384c:	00ed0b33          	add	s6,s10,a4
  103850:	5732                	lw	a4,44(sp)
  103852:	010b0cb3          	add	s9,s6,a6
  103856:	97aa                	add	a5,a5,a0
  103858:	011b3b33          	sltu	s6,s6,a7
  10385c:	010cb833          	sltu	a6,s9,a6
  103860:	00a7b533          	sltu	a0,a5,a0
  103864:	9766                	add	a4,a4,s9
  103866:	010b6b33          	or	s6,s6,a6
  10386a:	5832                	lw	a6,44(sp)
  10386c:	00a70c33          	add	s8,a4,a0
  103870:	9bd6                	add	s7,s7,s5
  103872:	97b6                	add	a5,a5,a3
  103874:	00d7b6b3          	sltu	a3,a5,a3
  103878:	017c0ab3          	add	s5,s8,s7
  10387c:	00da8e33          	add	t3,s5,a3
  103880:	01073733          	sltu	a4,a4,a6
  103884:	00ac3533          	sltu	a0,s8,a0
  103888:	8f49                	or	a4,a4,a0
  10388a:	00de36b3          	sltu	a3,t3,a3
  10388e:	9a5a                	add	s4,s4,s6
  103890:	017abab3          	sltu	s5,s5,s7
  103894:	9a3a                	add	s4,s4,a4
  103896:	00daeab3          	or	s5,s5,a3
  10389a:	02ce8833          	mul	a6,t4,a2
  10389e:	015a06b3          	add	a3,s4,s5
  1038a2:	d6be                	sw	a5,108(sp)
  1038a4:	03d40a33          	mul	s4,s0,t4
  1038a8:	01085513          	srli	a0,a6,0x10
  1038ac:	02c38733          	mul	a4,t2,a2
  1038b0:	9752                	add	a4,a4,s4
  1038b2:	972a                	add	a4,a4,a0
  1038b4:	028388b3          	mul	a7,t2,s0
  1038b8:	01477463          	bgeu	a4,s4,1038c0 <__multf3+0x660>
  1038bc:	6541                	lui	a0,0x10
  1038be:	98aa                	add	a7,a7,a0
  1038c0:	6a41                	lui	s4,0x10
  1038c2:	01075513          	srli	a0,a4,0x10
  1038c6:	fffa0a93          	addi	s5,s4,-1 # ffff <_stack_len+0x7fff>
  1038ca:	98aa                	add	a7,a7,a0
  1038cc:	01577533          	and	a0,a4,s5
  1038d0:	01587833          	and	a6,a6,s5
  1038d4:	0542                	slli	a0,a0,0x10
  1038d6:	02690ab3          	mul	s5,s2,t1
  1038da:	9542                	add	a0,a0,a6
  1038dc:	02b30833          	mul	a6,t1,a1
  1038e0:	02b285b3          	mul	a1,t0,a1
  1038e4:	01085713          	srli	a4,a6,0x10
  1038e8:	95d6                	add	a1,a1,s5
  1038ea:	972e                	add	a4,a4,a1
  1038ec:	02590933          	mul	s2,s2,t0
  1038f0:	01577363          	bgeu	a4,s5,1038f6 <__multf3+0x696>
  1038f4:	9952                	add	s2,s2,s4
  1038f6:	6ac1                	lui	s5,0x10
  1038f8:	01075593          	srli	a1,a4,0x10
  1038fc:	fffa8a13          	addi	s4,s5,-1 # ffff <_stack_len+0x7fff>
  103900:	01487833          	and	a6,a6,s4
  103904:	992e                	add	s2,s2,a1
  103906:	014775b3          	and	a1,a4,s4
  10390a:	05c2                	slli	a1,a1,0x10
  10390c:	03e98733          	mul	a4,s3,t5
  103910:	95c2                	add	a1,a1,a6
  103912:	03ef8f33          	mul	t5,t6,t5
  103916:	01075813          	srli	a6,a4,0x10
  10391a:	03f48a33          	mul	s4,s1,t6
  10391e:	033484b3          	mul	s1,s1,s3
  103922:	94fa                	add	s1,s1,t5
  103924:	94c2                	add	s1,s1,a6
  103926:	01e4f363          	bgeu	s1,t5,10392c <__multf3+0x6cc>
  10392a:	9a56                	add	s4,s4,s5
  10392c:	0104db13          	srli	s6,s1,0x10
  103930:	9b52                	add	s6,s6,s4
  103932:	6a41                	lui	s4,0x10
  103934:	fffa0f13          	addi	t5,s4,-1 # ffff <_stack_len+0x7fff>
  103938:	01e4f833          	and	a6,s1,t5
  10393c:	01e77733          	and	a4,a4,t5
  103940:	026404b3          	mul	s1,s0,t1
  103944:	0842                	slli	a6,a6,0x10
  103946:	983a                	add	a6,a6,a4
  103948:	02660f33          	mul	t5,a2,t1
  10394c:	02c28633          	mul	a2,t0,a2
  103950:	010f5713          	srli	a4,t5,0x10
  103954:	9626                	add	a2,a2,s1
  103956:	963a                	add	a2,a2,a4
  103958:	02540433          	mul	s0,s0,t0
  10395c:	00967363          	bgeu	a2,s1,103962 <__multf3+0x702>
  103960:	9452                	add	s0,s0,s4
  103962:	6a41                	lui	s4,0x10
  103964:	01065713          	srli	a4,a2,0x10
  103968:	fffa0493          	addi	s1,s4,-1 # ffff <_stack_len+0x7fff>
  10396c:	943a                	add	s0,s0,a4
  10396e:	00967733          	and	a4,a2,s1
  103972:	009f7f33          	and	t5,t5,s1
  103976:	0742                	slli	a4,a4,0x10
  103978:	03f384b3          	mul	s1,t2,t6
  10397c:	977a                	add	a4,a4,t5
  10397e:	033383b3          	mul	t2,t2,s3
  103982:	03d98f33          	mul	t5,s3,t4
  103986:	03df8eb3          	mul	t4,t6,t4
  10398a:	010f5613          	srli	a2,t5,0x10
  10398e:	93f6                	add	t2,t2,t4
  103990:	961e                	add	a2,a2,t2
  103992:	01d67363          	bgeu	a2,t4,103998 <__multf3+0x738>
  103996:	94d2                	add	s1,s1,s4
  103998:	01065c13          	srli	s8,a2,0x10
  10399c:	6cc1                	lui	s9,0x10
  10399e:	9c26                	add	s8,s8,s1
  1039a0:	9e2a                	add	t3,t3,a0
  1039a2:	fffc8493          	addi	s1,s9,-1 # ffff <_stack_len+0x7fff>
  1039a6:	00ae3533          	sltu	a0,t3,a0
  1039aa:	96c6                	add	a3,a3,a7
  1039ac:	8e65                	and	a2,a2,s1
  1039ae:	00a68d33          	add	s10,a3,a0
  1039b2:	009f7f33          	and	t5,t5,s1
  1039b6:	9e2e                	add	t3,t3,a1
  1039b8:	0642                	slli	a2,a2,0x10
  1039ba:	967a                	add	a2,a2,t5
  1039bc:	00be35b3          	sltu	a1,t3,a1
  1039c0:	012d0f33          	add	t5,s10,s2
  1039c4:	9e42                	add	t3,t3,a6
  1039c6:	00bf03b3          	add	t2,t5,a1
  1039ca:	01638eb3          	add	t4,t2,s6
  1039ce:	d8f2                	sw	t3,112(sp)
  1039d0:	010e3e33          	sltu	t3,t3,a6
  1039d4:	01ce8db3          	add	s11,t4,t3
  1039d8:	0116b6b3          	sltu	a3,a3,a7
  1039dc:	00ad3533          	sltu	a0,s10,a0
  1039e0:	012f3933          	sltu	s2,t5,s2
  1039e4:	00b3b5b3          	sltu	a1,t2,a1
  1039e8:	8d55                	or	a0,a0,a3
  1039ea:	00b965b3          	or	a1,s2,a1
  1039ee:	016ebeb3          	sltu	t4,t4,s6
  1039f2:	01cdbe33          	sltu	t3,s11,t3
  1039f6:	952e                	add	a0,a0,a1
  1039f8:	01ceeeb3          	or	t4,t4,t3
  1039fc:	00ed8833          	add	a6,s11,a4
  103a00:	9576                	add	a0,a0,t4
  103a02:	00e83733          	sltu	a4,a6,a4
  103a06:	9522                	add	a0,a0,s0
  103a08:	00e506b3          	add	a3,a0,a4
  103a0c:	00853433          	sltu	s0,a0,s0
  103a10:	02698533          	mul	a0,s3,t1
  103a14:	9832                	add	a6,a6,a2
  103a16:	00e6b733          	sltu	a4,a3,a4
  103a1a:	00c83633          	sltu	a2,a6,a2
  103a1e:	96e2                	add	a3,a3,s8
  103a20:	00c685b3          	add	a1,a3,a2
  103a24:	0186bc33          	sltu	s8,a3,s8
  103a28:	00c5b633          	sltu	a2,a1,a2
  103a2c:	dac2                	sw	a6,116(sp)
  103a2e:	8f41                	or	a4,a4,s0
  103a30:	026f8333          	mul	t1,t6,t1
  103a34:	01055693          	srli	a3,a0,0x10
  103a38:	00cc6633          	or	a2,s8,a2
  103a3c:	033289b3          	mul	s3,t0,s3
  103a40:	999a                	add	s3,s3,t1
  103a42:	03f28fb3          	mul	t6,t0,t6
  103a46:	013682b3          	add	t0,a3,s3
  103a4a:	0062f363          	bgeu	t0,t1,103a50 <__multf3+0x7f0>
  103a4e:	9fe6                	add	t6,t6,s9
  103a50:	0092f6b3          	and	a3,t0,s1
  103a54:	06c2                	slli	a3,a3,0x10
  103a56:	8ce9                	and	s1,s1,a0
  103a58:	0102d293          	srli	t0,t0,0x10
  103a5c:	94b6                	add	s1,s1,a3
  103a5e:	92ba                	add	t0,t0,a4
  103a60:	46d2                	lw	a3,20(sp)
  103a62:	5712                	lw	a4,36(sp)
  103a64:	95a6                	add	a1,a1,s1
  103a66:	0095b4b3          	sltu	s1,a1,s1
  103a6a:	00d769b3          	or	s3,a4,a3
  103a6e:	4762                	lw	a4,24(sp)
  103a70:	92b2                	add	t0,t0,a2
  103a72:	92a6                	add	t0,t0,s1
  103a74:	013769b3          	or	s3,a4,s3
  103a78:	9f96                	add	t6,t6,t0
  103a7a:	07b6                	slli	a5,a5,0xd
  103a7c:	dcae                	sw	a1,120(sp)
  103a7e:	defe                	sw	t6,124(sp)
  103a80:	0137e7b3          	or	a5,a5,s3
  103a84:	1098                	addi	a4,sp,96
  103a86:	188c                	addi	a1,sp,112
  103a88:	4754                	lw	a3,12(a4)
  103a8a:	4b10                	lw	a2,16(a4)
  103a8c:	82cd                	srli	a3,a3,0x13
  103a8e:	0636                	slli	a2,a2,0xd
  103a90:	8ed1                	or	a3,a3,a2
  103a92:	c314                	sw	a3,0(a4)
  103a94:	0711                	addi	a4,a4,4
  103a96:	fee599e3          	bne	a1,a4,103a88 <__multf3+0x828>
  103a9a:	56a6                	lw	a3,104(sp)
  103a9c:	5706                	lw	a4,96(sp)
  103a9e:	00f037b3          	snez	a5,a5
  103aa2:	ccb6                	sw	a3,88(sp)
  103aa4:	5696                	lw	a3,100(sp)
  103aa6:	8fd9                	or	a5,a5,a4
  103aa8:	5736                	lw	a4,108(sp)
  103aaa:	cab6                	sw	a3,84(sp)
  103aac:	001006b7          	lui	a3,0x100
  103ab0:	ceba                	sw	a4,92(sp)
  103ab2:	c8be                	sw	a5,80(sp)
  103ab4:	8f75                	and	a4,a4,a3
  103ab6:	12070c63          	beqz	a4,103bee <__multf3+0x98e>
  103aba:	07fe                	slli	a5,a5,0x1f
  103abc:	0898                	addi	a4,sp,80
  103abe:	08ec                	addi	a1,sp,92
  103ac0:	4314                	lw	a3,0(a4)
  103ac2:	4350                	lw	a2,4(a4)
  103ac4:	8285                	srli	a3,a3,0x1
  103ac6:	067e                	slli	a2,a2,0x1f
  103ac8:	8ed1                	or	a3,a3,a2
  103aca:	c314                	sw	a3,0(a4)
  103acc:	0711                	addi	a4,a4,4
  103ace:	fee599e3          	bne	a1,a4,103ac0 <__multf3+0x860>
  103ad2:	4776                	lw	a4,92(sp)
  103ad4:	00f037b3          	snez	a5,a5
  103ad8:	8305                	srli	a4,a4,0x1
  103ada:	ceba                	sw	a4,92(sp)
  103adc:	4746                	lw	a4,80(sp)
  103ade:	8fd9                	or	a5,a5,a4
  103ae0:	c8be                	sw	a5,80(sp)
  103ae2:	4772                	lw	a4,28(sp)
  103ae4:	6791                	lui	a5,0x4
  103ae6:	17fd                	addi	a5,a5,-1
  103ae8:	97ba                	add	a5,a5,a4
  103aea:	10f05c63          	blez	a5,103c02 <__multf3+0x9a2>
  103aee:	4746                	lw	a4,80(sp)
  103af0:	00777693          	andi	a3,a4,7
  103af4:	ca85                	beqz	a3,103b24 <__multf3+0x8c4>
  103af6:	00f77693          	andi	a3,a4,15
  103afa:	4611                	li	a2,4
  103afc:	02c68463          	beq	a3,a2,103b24 <__multf3+0x8c4>
  103b00:	46d6                	lw	a3,84(sp)
  103b02:	0711                	addi	a4,a4,4
  103b04:	4666                	lw	a2,88(sp)
  103b06:	c8ba                	sw	a4,80(sp)
  103b08:	00473713          	sltiu	a4,a4,4
  103b0c:	96ba                	add	a3,a3,a4
  103b0e:	45f6                	lw	a1,92(sp)
  103b10:	00e6b733          	sltu	a4,a3,a4
  103b14:	cab6                	sw	a3,84(sp)
  103b16:	00c706b3          	add	a3,a4,a2
  103b1a:	ccb6                	sw	a3,88(sp)
  103b1c:	00e6b6b3          	sltu	a3,a3,a4
  103b20:	96ae                	add	a3,a3,a1
  103b22:	ceb6                	sw	a3,92(sp)
  103b24:	4776                	lw	a4,92(sp)
  103b26:	001006b7          	lui	a3,0x100
  103b2a:	8ef9                	and	a3,a3,a4
  103b2c:	ca89                	beqz	a3,103b3e <__multf3+0x8de>
  103b2e:	fff007b7          	lui	a5,0xfff00
  103b32:	17fd                	addi	a5,a5,-1
  103b34:	8f7d                	and	a4,a4,a5
  103b36:	ceba                	sw	a4,92(sp)
  103b38:	4772                	lw	a4,28(sp)
  103b3a:	6791                	lui	a5,0x4
  103b3c:	97ba                	add	a5,a5,a4
  103b3e:	0898                	addi	a4,sp,80
  103b40:	08ec                	addi	a1,sp,92
  103b42:	4314                	lw	a3,0(a4)
  103b44:	4350                	lw	a2,4(a4)
  103b46:	828d                	srli	a3,a3,0x3
  103b48:	0676                	slli	a2,a2,0x1d
  103b4a:	8ed1                	or	a3,a3,a2
  103b4c:	c314                	sw	a3,0(a4)
  103b4e:	0711                	addi	a4,a4,4
  103b50:	feb719e3          	bne	a4,a1,103b42 <__multf3+0x8e2>
  103b54:	6721                	lui	a4,0x8
  103b56:	ffe70693          	addi	a3,a4,-2 # 7ffe <_min_stack+0x5ffe>
  103b5a:	08f6cd63          	blt	a3,a5,103bf4 <__multf3+0x994>
  103b5e:	4776                	lw	a4,92(sp)
  103b60:	830d                	srli	a4,a4,0x3
  103b62:	ceba                	sw	a4,92(sp)
  103b64:	4776                	lw	a4,92(sp)
  103b66:	07c6                	slli	a5,a5,0x11
  103b68:	83c5                	srli	a5,a5,0x11
  103b6a:	06e11623          	sh	a4,108(sp)
  103b6e:	4742                	lw	a4,16(sp)
  103b70:	45c6                	lw	a1,80(sp)
  103b72:	4656                	lw	a2,84(sp)
  103b74:	073e                	slli	a4,a4,0xf
  103b76:	8fd9                	or	a5,a5,a4
  103b78:	06f11723          	sh	a5,110(sp)
  103b7c:	4732                	lw	a4,12(sp)
  103b7e:	46e6                	lw	a3,88(sp)
  103b80:	57b6                	lw	a5,108(sp)
  103b82:	50fa                	lw	ra,188(sp)
  103b84:	546a                	lw	s0,184(sp)
  103b86:	c30c                	sw	a1,0(a4)
  103b88:	c350                	sw	a2,4(a4)
  103b8a:	c714                	sw	a3,8(a4)
  103b8c:	c75c                	sw	a5,12(a4)
  103b8e:	54da                	lw	s1,180(sp)
  103b90:	594a                	lw	s2,176(sp)
  103b92:	59ba                	lw	s3,172(sp)
  103b94:	5a2a                	lw	s4,168(sp)
  103b96:	5a9a                	lw	s5,164(sp)
  103b98:	5b0a                	lw	s6,160(sp)
  103b9a:	4bfa                	lw	s7,156(sp)
  103b9c:	4c6a                	lw	s8,152(sp)
  103b9e:	4cda                	lw	s9,148(sp)
  103ba0:	4d4a                	lw	s10,144(sp)
  103ba2:	4dba                	lw	s11,140(sp)
  103ba4:	853a                	mv	a0,a4
  103ba6:	6129                	addi	sp,sp,192
  103ba8:	8082                	ret
  103baa:	c84a                	sw	s2,16(sp)
  103bac:	57c2                	lw	a5,48(sp)
  103bae:	c8be                	sw	a5,80(sp)
  103bb0:	57d2                	lw	a5,52(sp)
  103bb2:	cabe                	sw	a5,84(sp)
  103bb4:	57e2                	lw	a5,56(sp)
  103bb6:	ccbe                	sw	a5,88(sp)
  103bb8:	57f2                	lw	a5,60(sp)
  103bba:	cebe                	sw	a5,92(sp)
  103bbc:	4789                	li	a5,2
  103bbe:	18fb8963          	beq	s7,a5,103d50 <__multf3+0xaf0>
  103bc2:	478d                	li	a5,3
  103bc4:	18fb8d63          	beq	s7,a5,103d5e <__multf3+0xafe>
  103bc8:	4785                	li	a5,1
  103bca:	f0fb9ce3          	bne	s7,a5,103ae2 <__multf3+0x882>
  103bce:	ce82                	sw	zero,92(sp)
  103bd0:	cc82                	sw	zero,88(sp)
  103bd2:	ca82                	sw	zero,84(sp)
  103bd4:	c882                	sw	zero,80(sp)
  103bd6:	aaa1                	j	103d2e <__multf3+0xace>
  103bd8:	c84e                	sw	s3,16(sp)
  103bda:	4786                	lw	a5,64(sp)
  103bdc:	8bba                	mv	s7,a4
  103bde:	c8be                	sw	a5,80(sp)
  103be0:	4796                	lw	a5,68(sp)
  103be2:	cabe                	sw	a5,84(sp)
  103be4:	47a6                	lw	a5,72(sp)
  103be6:	ccbe                	sw	a5,88(sp)
  103be8:	47b6                	lw	a5,76(sp)
  103bea:	cebe                	sw	a5,92(sp)
  103bec:	bfc1                	j	103bbc <__multf3+0x95c>
  103bee:	5782                	lw	a5,32(sp)
  103bf0:	ce3e                	sw	a5,28(sp)
  103bf2:	bdc5                	j	103ae2 <__multf3+0x882>
  103bf4:	ce82                	sw	zero,92(sp)
  103bf6:	cc82                	sw	zero,88(sp)
  103bf8:	ca82                	sw	zero,84(sp)
  103bfa:	c882                	sw	zero,80(sp)
  103bfc:	fff70793          	addi	a5,a4,-1
  103c00:	b795                	j	103b64 <__multf3+0x904>
  103c02:	4705                	li	a4,1
  103c04:	40f707b3          	sub	a5,a4,a5
  103c08:	07400713          	li	a4,116
  103c0c:	12f74363          	blt	a4,a5,103d32 <__multf3+0xad2>
  103c10:	0884                	addi	s1,sp,80
  103c12:	4057d513          	srai	a0,a5,0x5
  103c16:	86a6                	mv	a3,s1
  103c18:	4401                	li	s0,0
  103c1a:	4701                	li	a4,0
  103c1c:	02a71663          	bne	a4,a0,103c48 <__multf3+0x9e8>
  103c20:	8bfd                	andi	a5,a5,31
  103c22:	00251713          	slli	a4,a0,0x2
  103c26:	e795                	bnez	a5,103c52 <__multf3+0x9f2>
  103c28:	460d                	li	a2,3
  103c2a:	87a6                	mv	a5,s1
  103c2c:	4681                	li	a3,0
  103c2e:	8e09                	sub	a2,a2,a0
  103c30:	00e785b3          	add	a1,a5,a4
  103c34:	418c                	lw	a1,0(a1)
  103c36:	0685                	addi	a3,a3,1
  103c38:	c38c                	sw	a1,0(a5)
  103c3a:	0791                	addi	a5,a5,4
  103c3c:	fed65ae3          	bge	a2,a3,103c30 <__multf3+0x9d0>
  103c40:	4791                	li	a5,4
  103c42:	40a78533          	sub	a0,a5,a0
  103c46:	a0a1                	j	103c8e <__multf3+0xa2e>
  103c48:	4290                	lw	a2,0(a3)
  103c4a:	0705                	addi	a4,a4,1
  103c4c:	0691                	addi	a3,a3,4
  103c4e:	8c51                	or	s0,s0,a2
  103c50:	b7f1                	j	103c1c <__multf3+0x9bc>
  103c52:	58f1                	li	a7,-4
  103c54:	031508b3          	mul	a7,a0,a7
  103c58:	0114                	addi	a3,sp,128
  103c5a:	96ba                	add	a3,a3,a4
  103c5c:	fd06a683          	lw	a3,-48(a3) # fffd0 <tohost+0xdffc8>
  103c60:	02000593          	li	a1,32
  103c64:	8d9d                	sub	a1,a1,a5
  103c66:	00b696b3          	sll	a3,a3,a1
  103c6a:	8c55                	or	s0,s0,a3
  103c6c:	468d                	li	a3,3
  103c6e:	9726                	add	a4,a4,s1
  103c70:	4801                	li	a6,0
  103c72:	8e89                	sub	a3,a3,a0
  103c74:	06d84f63          	blt	a6,a3,103cf2 <__multf3+0xa92>
  103c78:	4711                	li	a4,4
  103c7a:	40a70533          	sub	a0,a4,a0
  103c7e:	068a                	slli	a3,a3,0x2
  103c80:	0118                	addi	a4,sp,128
  103c82:	96ba                	add	a3,a3,a4
  103c84:	4776                	lw	a4,92(sp)
  103c86:	00f757b3          	srl	a5,a4,a5
  103c8a:	fcf6a823          	sw	a5,-48(a3)
  103c8e:	4911                	li	s2,4
  103c90:	40a90633          	sub	a2,s2,a0
  103c94:	050a                	slli	a0,a0,0x2
  103c96:	060a                	slli	a2,a2,0x2
  103c98:	4581                	li	a1,0
  103c9a:	9526                	add	a0,a0,s1
  103c9c:	e1bfd0ef          	jal	ra,101ab6 <memset>
  103ca0:	4746                	lw	a4,80(sp)
  103ca2:	008037b3          	snez	a5,s0
  103ca6:	8fd9                	or	a5,a5,a4
  103ca8:	c8be                	sw	a5,80(sp)
  103caa:	0077f713          	andi	a4,a5,7
  103cae:	c71d                	beqz	a4,103cdc <__multf3+0xa7c>
  103cb0:	00f7f713          	andi	a4,a5,15
  103cb4:	03270463          	beq	a4,s2,103cdc <__multf3+0xa7c>
  103cb8:	4756                	lw	a4,84(sp)
  103cba:	0791                	addi	a5,a5,4
  103cbc:	46e6                	lw	a3,88(sp)
  103cbe:	c8be                	sw	a5,80(sp)
  103cc0:	0047b793          	sltiu	a5,a5,4
  103cc4:	973e                	add	a4,a4,a5
  103cc6:	4676                	lw	a2,92(sp)
  103cc8:	00f737b3          	sltu	a5,a4,a5
  103ccc:	caba                	sw	a4,84(sp)
  103cce:	00d78733          	add	a4,a5,a3
  103cd2:	ccba                	sw	a4,88(sp)
  103cd4:	00f73733          	sltu	a4,a4,a5
  103cd8:	9732                	add	a4,a4,a2
  103cda:	ceba                	sw	a4,92(sp)
  103cdc:	4776                	lw	a4,92(sp)
  103cde:	000807b7          	lui	a5,0x80
  103ce2:	8ff9                	and	a5,a5,a4
  103ce4:	c79d                	beqz	a5,103d12 <__multf3+0xab2>
  103ce6:	ce82                	sw	zero,92(sp)
  103ce8:	cc82                	sw	zero,88(sp)
  103cea:	ca82                	sw	zero,84(sp)
  103cec:	c882                	sw	zero,80(sp)
  103cee:	4785                	li	a5,1
  103cf0:	bd95                	j	103b64 <__multf3+0x904>
  103cf2:	4310                	lw	a2,0(a4)
  103cf4:	00472303          	lw	t1,4(a4)
  103cf8:	01170e33          	add	t3,a4,a7
  103cfc:	00f65633          	srl	a2,a2,a5
  103d00:	00b31333          	sll	t1,t1,a1
  103d04:	00666633          	or	a2,a2,t1
  103d08:	00ce2023          	sw	a2,0(t3)
  103d0c:	0805                	addi	a6,a6,1
  103d0e:	0711                	addi	a4,a4,4
  103d10:	b795                	j	103c74 <__multf3+0xa14>
  103d12:	00c48693          	addi	a3,s1,12
  103d16:	409c                	lw	a5,0(s1)
  103d18:	40d8                	lw	a4,4(s1)
  103d1a:	838d                	srli	a5,a5,0x3
  103d1c:	0776                	slli	a4,a4,0x1d
  103d1e:	8fd9                	or	a5,a5,a4
  103d20:	c09c                	sw	a5,0(s1)
  103d22:	0491                	addi	s1,s1,4
  103d24:	fed499e3          	bne	s1,a3,103d16 <__multf3+0xab6>
  103d28:	47f6                	lw	a5,92(sp)
  103d2a:	838d                	srli	a5,a5,0x3
  103d2c:	cebe                	sw	a5,92(sp)
  103d2e:	4781                	li	a5,0
  103d30:	bd15                	j	103b64 <__multf3+0x904>
  103d32:	47d6                	lw	a5,84(sp)
  103d34:	4746                	lw	a4,80(sp)
  103d36:	8f5d                	or	a4,a4,a5
  103d38:	47e6                	lw	a5,88(sp)
  103d3a:	8f5d                	or	a4,a4,a5
  103d3c:	47f6                	lw	a5,92(sp)
  103d3e:	8f5d                	or	a4,a4,a5
  103d40:	4781                	li	a5,0
  103d42:	e20701e3          	beqz	a4,103b64 <__multf3+0x904>
  103d46:	ce82                	sw	zero,92(sp)
  103d48:	cc82                	sw	zero,88(sp)
  103d4a:	ca82                	sw	zero,84(sp)
  103d4c:	c882                	sw	zero,80(sp)
  103d4e:	bd19                	j	103b64 <__multf3+0x904>
  103d50:	67a1                	lui	a5,0x8
  103d52:	ce82                	sw	zero,92(sp)
  103d54:	cc82                	sw	zero,88(sp)
  103d56:	ca82                	sw	zero,84(sp)
  103d58:	c882                	sw	zero,80(sp)
  103d5a:	17fd                	addi	a5,a5,-1
  103d5c:	b521                	j	103b64 <__multf3+0x904>
  103d5e:	67a1                	lui	a5,0x8
  103d60:	cebe                	sw	a5,92(sp)
  103d62:	cc82                	sw	zero,88(sp)
  103d64:	ca82                	sw	zero,84(sp)
  103d66:	c882                	sw	zero,80(sp)
  103d68:	17fd                	addi	a5,a5,-1
  103d6a:	c802                	sw	zero,16(sp)
  103d6c:	bbe5                	j	103b64 <__multf3+0x904>

00103d6e <__subtf3>:
  103d6e:	7159                	addi	sp,sp,-112
  103d70:	459c                	lw	a5,8(a1)
  103d72:	cad6                	sw	s5,84(sp)
  103d74:	00c5aa83          	lw	s5,12(a1)
  103d78:	4194                	lw	a3,0(a1)
  103d7a:	41d8                	lw	a4,4(a1)
  103d7c:	c8da                	sw	s6,80(sp)
  103d7e:	c6de                	sw	s7,76(sp)
  103d80:	8b2a                	mv	s6,a0
  103d82:	dc3e                	sw	a5,56(sp)
  103d84:	cc3e                	sw	a5,24(sp)
  103d86:	00062803          	lw	a6,0(a2)
  103d8a:	010a9793          	slli	a5,s5,0x10
  103d8e:	4248                	lw	a0,4(a2)
  103d90:	460c                	lw	a1,8(a2)
  103d92:	00c62b83          	lw	s7,12(a2)
  103d96:	d2a6                	sw	s1,100(sp)
  103d98:	83c1                	srli	a5,a5,0x10
  103d9a:	001a9493          	slli	s1,s5,0x1
  103d9e:	d836                	sw	a3,48(sp)
  103da0:	de56                	sw	s5,60(sp)
  103da2:	c836                	sw	a3,16(sp)
  103da4:	d686                	sw	ra,108(sp)
  103da6:	d4a2                	sw	s0,104(sp)
  103da8:	d0ca                	sw	s2,96(sp)
  103daa:	cece                	sw	s3,92(sp)
  103dac:	ccd2                	sw	s4,88(sp)
  103dae:	c4e2                	sw	s8,72(sp)
  103db0:	c2e6                	sw	s9,68(sp)
  103db2:	da3a                	sw	a4,52(sp)
  103db4:	ca3a                	sw	a4,20(sp)
  103db6:	ce3e                	sw	a5,28(sp)
  103db8:	80c5                	srli	s1,s1,0x11
  103dba:	01fada93          	srli	s5,s5,0x1f
  103dbe:	01010893          	addi	a7,sp,16
  103dc2:	0874                	addi	a3,sp,28
  103dc4:	429c                	lw	a5,0(a3)
  103dc6:	ffc6a703          	lw	a4,-4(a3)
  103dca:	16f1                	addi	a3,a3,-4
  103dcc:	078e                	slli	a5,a5,0x3
  103dce:	8375                	srli	a4,a4,0x1d
  103dd0:	8fd9                	or	a5,a5,a4
  103dd2:	c2dc                	sw	a5,4(a3)
  103dd4:	fed898e3          	bne	a7,a3,103dc4 <__subtf3+0x56>
  103dd8:	4942                	lw	s2,16(sp)
  103dda:	010b9793          	slli	a5,s7,0x10
  103dde:	001b9c13          	slli	s8,s7,0x1
  103de2:	090e                	slli	s2,s2,0x3
  103de4:	83c1                	srli	a5,a5,0x10
  103de6:	da2a                	sw	a0,52(sp)
  103de8:	dc2e                	sw	a1,56(sp)
  103dea:	de5e                	sw	s7,60(sp)
  103dec:	d22a                	sw	a0,36(sp)
  103dee:	d42e                	sw	a1,40(sp)
  103df0:	c84a                	sw	s2,16(sp)
  103df2:	d842                	sw	a6,48(sp)
  103df4:	d042                	sw	a6,32(sp)
  103df6:	d63e                	sw	a5,44(sp)
  103df8:	011c5c13          	srli	s8,s8,0x11
  103dfc:	01fbdb93          	srli	s7,s7,0x1f
  103e00:	1008                	addi	a0,sp,32
  103e02:	106c                	addi	a1,sp,44
  103e04:	419c                	lw	a5,0(a1)
  103e06:	ffc5a703          	lw	a4,-4(a1)
  103e0a:	15f1                	addi	a1,a1,-4
  103e0c:	078e                	slli	a5,a5,0x3
  103e0e:	8375                	srli	a4,a4,0x1d
  103e10:	8fd9                	or	a5,a5,a4
  103e12:	c1dc                	sw	a5,4(a1)
  103e14:	feb518e3          	bne	a0,a1,103e04 <__subtf3+0x96>
  103e18:	5402                	lw	s0,32(sp)
  103e1a:	67a1                	lui	a5,0x8
  103e1c:	17fd                	addi	a5,a5,-1
  103e1e:	040e                	slli	s0,s0,0x3
  103e20:	d022                	sw	s0,32(sp)
  103e22:	00fc1963          	bne	s8,a5,103e34 <__subtf3+0xc6>
  103e26:	5722                	lw	a4,40(sp)
  103e28:	5792                	lw	a5,36(sp)
  103e2a:	8fd9                	or	a5,a5,a4
  103e2c:	5732                	lw	a4,44(sp)
  103e2e:	8fd9                	or	a5,a5,a4
  103e30:	8fc1                	or	a5,a5,s0
  103e32:	e399                	bnez	a5,103e38 <__subtf3+0xca>
  103e34:	001bcb93          	xori	s7,s7,1
  103e38:	41848833          	sub	a6,s1,s8
  103e3c:	5f5b9963          	bne	s7,s5,10442e <__subtf3+0x6c0>
  103e40:	2d005a63          	blez	a6,104114 <__subtf3+0x3a6>
  103e44:	4bd2                	lw	s7,20(sp)
  103e46:	4a62                	lw	s4,24(sp)
  103e48:	49f2                	lw	s3,28(sp)
  103e4a:	060c1c63          	bnez	s8,103ec2 <__subtf3+0x154>
  103e4e:	5612                	lw	a2,36(sp)
  103e50:	5722                	lw	a4,40(sp)
  103e52:	57b2                	lw	a5,44(sp)
  103e54:	00e666b3          	or	a3,a2,a4
  103e58:	8edd                	or	a3,a3,a5
  103e5a:	8ec1                	or	a3,a3,s0
  103e5c:	e699                	bnez	a3,103e6a <__subtf3+0xfc>
  103e5e:	d84a                	sw	s2,48(sp)
  103e60:	da5e                	sw	s7,52(sp)
  103e62:	dc52                	sw	s4,56(sp)
  103e64:	de4e                	sw	s3,60(sp)
  103e66:	84c2                	mv	s1,a6
  103e68:	a0ad                	j	103ed2 <__subtf3+0x164>
  103e6a:	fff80693          	addi	a3,a6,-1
  103e6e:	ee8d                	bnez	a3,103ea8 <__subtf3+0x13a>
  103e70:	944a                	add	s0,s0,s2
  103e72:	01243933          	sltu	s2,s0,s2
  103e76:	965e                	add	a2,a2,s7
  103e78:	d822                	sw	s0,48(sp)
  103e7a:	01260433          	add	s0,a2,s2
  103e7e:	01243933          	sltu	s2,s0,s2
  103e82:	01763633          	sltu	a2,a2,s7
  103e86:	01266633          	or	a2,a2,s2
  103e8a:	9752                	add	a4,a4,s4
  103e8c:	00c706b3          	add	a3,a4,a2
  103e90:	00c6b633          	sltu	a2,a3,a2
  103e94:	01473733          	sltu	a4,a4,s4
  103e98:	8f51                	or	a4,a4,a2
  103e9a:	97ce                	add	a5,a5,s3
  103e9c:	973e                	add	a4,a4,a5
  103e9e:	da22                	sw	s0,52(sp)
  103ea0:	dc36                	sw	a3,56(sp)
  103ea2:	de3a                	sw	a4,60(sp)
  103ea4:	4485                	li	s1,1
  103ea6:	aae5                	j	10409e <__subtf3+0x330>
  103ea8:	67a1                	lui	a5,0x8
  103eaa:	17fd                	addi	a5,a5,-1
  103eac:	faf809e3          	beq	a6,a5,103e5e <__subtf3+0xf0>
  103eb0:	07400793          	li	a5,116
  103eb4:	10d7d763          	bge	a5,a3,103fc2 <__subtf3+0x254>
  103eb8:	d602                	sw	zero,44(sp)
  103eba:	d402                	sw	zero,40(sp)
  103ebc:	d202                	sw	zero,36(sp)
  103ebe:	4785                	li	a5,1
  103ec0:	aa79                	j	10405e <__subtf3+0x2f0>
  103ec2:	67a1                	lui	a5,0x8
  103ec4:	17fd                	addi	a5,a5,-1
  103ec6:	0ef49463          	bne	s1,a5,103fae <__subtf3+0x240>
  103eca:	d84a                	sw	s2,48(sp)
  103ecc:	da5e                	sw	s7,52(sp)
  103ece:	dc52                	sw	s4,56(sp)
  103ed0:	de4e                	sw	s3,60(sp)
  103ed2:	57c2                	lw	a5,48(sp)
  103ed4:	0077f713          	andi	a4,a5,7
  103ed8:	cb05                	beqz	a4,103f08 <__subtf3+0x19a>
  103eda:	00f7f713          	andi	a4,a5,15
  103ede:	4691                	li	a3,4
  103ee0:	02d70463          	beq	a4,a3,103f08 <__subtf3+0x19a>
  103ee4:	5752                	lw	a4,52(sp)
  103ee6:	0791                	addi	a5,a5,4
  103ee8:	56e2                	lw	a3,56(sp)
  103eea:	d83e                	sw	a5,48(sp)
  103eec:	0047b793          	sltiu	a5,a5,4
  103ef0:	973e                	add	a4,a4,a5
  103ef2:	5672                	lw	a2,60(sp)
  103ef4:	00f737b3          	sltu	a5,a4,a5
  103ef8:	da3a                	sw	a4,52(sp)
  103efa:	00d78733          	add	a4,a5,a3
  103efe:	dc3a                	sw	a4,56(sp)
  103f00:	00f73733          	sltu	a4,a4,a5
  103f04:	9732                	add	a4,a4,a2
  103f06:	de3a                	sw	a4,60(sp)
  103f08:	57f2                	lw	a5,60(sp)
  103f0a:	00080737          	lui	a4,0x80
  103f0e:	8f7d                	and	a4,a4,a5
  103f10:	cb19                	beqz	a4,103f26 <__subtf3+0x1b8>
  103f12:	6721                	lui	a4,0x8
  103f14:	0485                	addi	s1,s1,1
  103f16:	177d                	addi	a4,a4,-1
  103f18:	4ae485e3          	beq	s1,a4,104bc2 <__subtf3+0xe54>
  103f1c:	fff80737          	lui	a4,0xfff80
  103f20:	177d                	addi	a4,a4,-1
  103f22:	8ff9                	and	a5,a5,a4
  103f24:	de3e                	sw	a5,60(sp)
  103f26:	181c                	addi	a5,sp,48
  103f28:	1870                	addi	a2,sp,60
  103f2a:	4398                	lw	a4,0(a5)
  103f2c:	43d4                	lw	a3,4(a5)
  103f2e:	830d                	srli	a4,a4,0x3
  103f30:	06f6                	slli	a3,a3,0x1d
  103f32:	8f55                	or	a4,a4,a3
  103f34:	c398                	sw	a4,0(a5)
  103f36:	0791                	addi	a5,a5,4
  103f38:	fef619e3          	bne	a2,a5,103f2a <__subtf3+0x1bc>
  103f3c:	57f2                	lw	a5,60(sp)
  103f3e:	66a1                	lui	a3,0x8
  103f40:	0037d713          	srli	a4,a5,0x3
  103f44:	de3a                	sw	a4,60(sp)
  103f46:	fff68793          	addi	a5,a3,-1 # 7fff <_min_stack+0x5fff>
  103f4a:	00f49e63          	bne	s1,a5,103f66 <__subtf3+0x1f8>
  103f4e:	5652                	lw	a2,52(sp)
  103f50:	57c2                	lw	a5,48(sp)
  103f52:	8fd1                	or	a5,a5,a2
  103f54:	5662                	lw	a2,56(sp)
  103f56:	8fd1                	or	a5,a5,a2
  103f58:	8fd9                	or	a5,a5,a4
  103f5a:	c791                	beqz	a5,103f66 <__subtf3+0x1f8>
  103f5c:	de36                	sw	a3,60(sp)
  103f5e:	dc02                	sw	zero,56(sp)
  103f60:	da02                	sw	zero,52(sp)
  103f62:	d802                	sw	zero,48(sp)
  103f64:	4a81                	li	s5,0
  103f66:	57f2                	lw	a5,60(sp)
  103f68:	04c6                	slli	s1,s1,0x11
  103f6a:	80c5                	srli	s1,s1,0x11
  103f6c:	0abe                	slli	s5,s5,0xf
  103f6e:	009aeab3          	or	s5,s5,s1
  103f72:	01511723          	sh	s5,14(sp)
  103f76:	00f11623          	sh	a5,12(sp)
  103f7a:	5642                	lw	a2,48(sp)
  103f7c:	56d2                	lw	a3,52(sp)
  103f7e:	5762                	lw	a4,56(sp)
  103f80:	47b2                	lw	a5,12(sp)
  103f82:	50b6                	lw	ra,108(sp)
  103f84:	5426                	lw	s0,104(sp)
  103f86:	00cb2023          	sw	a2,0(s6)
  103f8a:	00db2223          	sw	a3,4(s6)
  103f8e:	00eb2423          	sw	a4,8(s6)
  103f92:	00fb2623          	sw	a5,12(s6)
  103f96:	5496                	lw	s1,100(sp)
  103f98:	5906                	lw	s2,96(sp)
  103f9a:	49f6                	lw	s3,92(sp)
  103f9c:	4a66                	lw	s4,88(sp)
  103f9e:	4ad6                	lw	s5,84(sp)
  103fa0:	4bb6                	lw	s7,76(sp)
  103fa2:	4c26                	lw	s8,72(sp)
  103fa4:	4c96                	lw	s9,68(sp)
  103fa6:	855a                	mv	a0,s6
  103fa8:	4b46                	lw	s6,80(sp)
  103faa:	6165                	addi	sp,sp,112
  103fac:	8082                	ret
  103fae:	57b2                	lw	a5,44(sp)
  103fb0:	00080737          	lui	a4,0x80
  103fb4:	8fd9                	or	a5,a5,a4
  103fb6:	d63e                	sw	a5,44(sp)
  103fb8:	07400793          	li	a5,116
  103fbc:	ef07cee3          	blt	a5,a6,103eb8 <__subtf3+0x14a>
  103fc0:	86c2                	mv	a3,a6
  103fc2:	4056d793          	srai	a5,a3,0x5
  103fc6:	862e                	mv	a2,a1
  103fc8:	4401                	li	s0,0
  103fca:	4701                	li	a4,0
  103fcc:	02f71763          	bne	a4,a5,103ffa <__subtf3+0x28c>
  103fd0:	8afd                	andi	a3,a3,31
  103fd2:	00279613          	slli	a2,a5,0x2
  103fd6:	ea8d                	bnez	a3,104008 <__subtf3+0x29a>
  103fd8:	468d                	li	a3,3
  103fda:	4701                	li	a4,0
  103fdc:	8e9d                	sub	a3,a3,a5
  103fde:	00c58833          	add	a6,a1,a2
  103fe2:	00082803          	lw	a6,0(a6)
  103fe6:	0705                	addi	a4,a4,1
  103fe8:	0105a023          	sw	a6,0(a1)
  103fec:	0591                	addi	a1,a1,4
  103fee:	fee6d8e3          	bge	a3,a4,103fde <__subtf3+0x270>
  103ff2:	4711                	li	a4,4
  103ff4:	40f707b3          	sub	a5,a4,a5
  103ff8:	a0b9                	j	104046 <__subtf3+0x2d8>
  103ffa:	00062803          	lw	a6,0(a2)
  103ffe:	0705                	addi	a4,a4,1
  104000:	0611                	addi	a2,a2,4
  104002:	01046433          	or	s0,s0,a6
  104006:	b7d9                	j	103fcc <__subtf3+0x25e>
  104008:	5371                	li	t1,-4
  10400a:	02678333          	mul	t1,a5,t1
  10400e:	0098                	addi	a4,sp,64
  104010:	9732                	add	a4,a4,a2
  104012:	fe072703          	lw	a4,-32(a4) # 7ffe0 <tohost+0x5ffd8>
  104016:	02000813          	li	a6,32
  10401a:	40d80833          	sub	a6,a6,a3
  10401e:	01071733          	sll	a4,a4,a6
  104022:	8c59                	or	s0,s0,a4
  104024:	470d                	li	a4,3
  104026:	962a                	add	a2,a2,a0
  104028:	4881                	li	a7,0
  10402a:	8f1d                	sub	a4,a4,a5
  10402c:	0ce8c463          	blt	a7,a4,1040f4 <__subtf3+0x386>
  104030:	4611                	li	a2,4
  104032:	40f607b3          	sub	a5,a2,a5
  104036:	070a                	slli	a4,a4,0x2
  104038:	0090                	addi	a2,sp,64
  10403a:	9732                	add	a4,a4,a2
  10403c:	5632                	lw	a2,44(sp)
  10403e:	00d656b3          	srl	a3,a2,a3
  104042:	fed72023          	sw	a3,-32(a4)
  104046:	4611                	li	a2,4
  104048:	8e1d                	sub	a2,a2,a5
  10404a:	078a                	slli	a5,a5,0x2
  10404c:	953e                	add	a0,a0,a5
  10404e:	060a                	slli	a2,a2,0x2
  104050:	4581                	li	a1,0
  104052:	a65fd0ef          	jal	ra,101ab6 <memset>
  104056:	5702                	lw	a4,32(sp)
  104058:	008037b3          	snez	a5,s0
  10405c:	8fd9                	or	a5,a5,a4
  10405e:	d03e                	sw	a5,32(sp)
  104060:	5602                	lw	a2,32(sp)
  104062:	56a2                	lw	a3,40(sp)
  104064:	964a                	add	a2,a2,s2
  104066:	01263933          	sltu	s2,a2,s2
  10406a:	d832                	sw	a2,48(sp)
  10406c:	5612                	lw	a2,36(sp)
  10406e:	965e                	add	a2,a2,s7
  104070:	012607b3          	add	a5,a2,s2
  104074:	0127b933          	sltu	s2,a5,s2
  104078:	01763633          	sltu	a2,a2,s7
  10407c:	01266633          	or	a2,a2,s2
  104080:	da3e                	sw	a5,52(sp)
  104082:	00da07b3          	add	a5,s4,a3
  104086:	00c78733          	add	a4,a5,a2
  10408a:	dc3a                	sw	a4,56(sp)
  10408c:	0147b7b3          	sltu	a5,a5,s4
  104090:	00c73733          	sltu	a4,a4,a2
  104094:	8fd9                	or	a5,a5,a4
  104096:	5732                	lw	a4,44(sp)
  104098:	99ba                	add	s3,s3,a4
  10409a:	97ce                	add	a5,a5,s3
  10409c:	de3e                	sw	a5,60(sp)
  10409e:	57f2                	lw	a5,60(sp)
  1040a0:	00080737          	lui	a4,0x80
  1040a4:	8f7d                	and	a4,a4,a5
  1040a6:	e20706e3          	beqz	a4,103ed2 <__subtf3+0x164>
  1040aa:	fff80737          	lui	a4,0xfff80
  1040ae:	177d                	addi	a4,a4,-1
  1040b0:	8ff9                	and	a5,a5,a4
  1040b2:	de3e                	sw	a5,60(sp)
  1040b4:	57c2                	lw	a5,48(sp)
  1040b6:	0485                	addi	s1,s1,1
  1040b8:	186c                	addi	a1,sp,60
  1040ba:	01f79713          	slli	a4,a5,0x1f
  1040be:	181c                	addi	a5,sp,48
  1040c0:	4394                	lw	a3,0(a5)
  1040c2:	43d0                	lw	a2,4(a5)
  1040c4:	8285                	srli	a3,a3,0x1
  1040c6:	067e                	slli	a2,a2,0x1f
  1040c8:	8ed1                	or	a3,a3,a2
  1040ca:	c394                	sw	a3,0(a5)
  1040cc:	0791                	addi	a5,a5,4
  1040ce:	fef599e3          	bne	a1,a5,1040c0 <__subtf3+0x352>
  1040d2:	57f2                	lw	a5,60(sp)
  1040d4:	8385                	srli	a5,a5,0x1
  1040d6:	de3e                	sw	a5,60(sp)
  1040d8:	00e037b3          	snez	a5,a4
  1040dc:	5742                	lw	a4,48(sp)
  1040de:	8fd9                	or	a5,a5,a4
  1040e0:	d83e                	sw	a5,48(sp)
  1040e2:	67a1                	lui	a5,0x8
  1040e4:	17fd                	addi	a5,a5,-1
  1040e6:	def496e3          	bne	s1,a5,103ed2 <__subtf3+0x164>
  1040ea:	de02                	sw	zero,60(sp)
  1040ec:	dc02                	sw	zero,56(sp)
  1040ee:	da02                	sw	zero,52(sp)
  1040f0:	d802                	sw	zero,48(sp)
  1040f2:	b3c5                	j	103ed2 <__subtf3+0x164>
  1040f4:	420c                	lw	a1,0(a2)
  1040f6:	00462e03          	lw	t3,4(a2)
  1040fa:	00660eb3          	add	t4,a2,t1
  1040fe:	00d5d5b3          	srl	a1,a1,a3
  104102:	010e1e33          	sll	t3,t3,a6
  104106:	01c5e5b3          	or	a1,a1,t3
  10410a:	00bea023          	sw	a1,0(t4)
  10410e:	0885                	addi	a7,a7,1
  104110:	0611                	addi	a2,a2,4
  104112:	bf29                	j	10402c <__subtf3+0x2be>
  104114:	5992                	lw	s3,36(sp)
  104116:	5a22                	lw	s4,40(sp)
  104118:	5bb2                	lw	s7,44(sp)
  10411a:	1a080f63          	beqz	a6,1042d8 <__subtf3+0x56a>
  10411e:	409c05b3          	sub	a1,s8,s1
  104122:	eca5                	bnez	s1,10419a <__subtf3+0x42c>
  104124:	4752                	lw	a4,20(sp)
  104126:	47e2                	lw	a5,24(sp)
  104128:	4572                	lw	a0,28(sp)
  10412a:	00f76633          	or	a2,a4,a5
  10412e:	8e49                	or	a2,a2,a0
  104130:	01266633          	or	a2,a2,s2
  104134:	e619                	bnez	a2,104142 <__subtf3+0x3d4>
  104136:	d822                	sw	s0,48(sp)
  104138:	da4e                	sw	s3,52(sp)
  10413a:	dc52                	sw	s4,56(sp)
  10413c:	de5e                	sw	s7,60(sp)
  10413e:	84ae                	mv	s1,a1
  104140:	bb49                	j	103ed2 <__subtf3+0x164>
  104142:	fff58613          	addi	a2,a1,-1
  104146:	ee0d                	bnez	a2,104180 <__subtf3+0x412>
  104148:	9922                	add	s2,s2,s0
  10414a:	974e                	add	a4,a4,s3
  10414c:	00893433          	sltu	s0,s2,s0
  104150:	d84a                	sw	s2,48(sp)
  104152:	00870933          	add	s2,a4,s0
  104156:	00893433          	sltu	s0,s2,s0
  10415a:	01373733          	sltu	a4,a4,s3
  10415e:	008769b3          	or	s3,a4,s0
  104162:	97d2                	add	a5,a5,s4
  104164:	01378733          	add	a4,a5,s3
  104168:	013739b3          	sltu	s3,a4,s3
  10416c:	0147b7b3          	sltu	a5,a5,s4
  104170:	0137e7b3          	or	a5,a5,s3
  104174:	9baa                	add	s7,s7,a0
  104176:	9bbe                	add	s7,s7,a5
  104178:	da4a                	sw	s2,52(sp)
  10417a:	dc3a                	sw	a4,56(sp)
  10417c:	de5e                	sw	s7,60(sp)
  10417e:	b31d                	j	103ea4 <__subtf3+0x136>
  104180:	67a1                	lui	a5,0x8
  104182:	17fd                	addi	a5,a5,-1
  104184:	faf589e3          	beq	a1,a5,104136 <__subtf3+0x3c8>
  104188:	07400793          	li	a5,116
  10418c:	02c7db63          	bge	a5,a2,1041c2 <__subtf3+0x454>
  104190:	ce02                	sw	zero,28(sp)
  104192:	cc02                	sw	zero,24(sp)
  104194:	ca02                	sw	zero,20(sp)
  104196:	4785                	li	a5,1
  104198:	a8f1                	j	104274 <__subtf3+0x506>
  10419a:	67a1                	lui	a5,0x8
  10419c:	17fd                	addi	a5,a5,-1
  10419e:	00fc1863          	bne	s8,a5,1041ae <__subtf3+0x440>
  1041a2:	d822                	sw	s0,48(sp)
  1041a4:	da4e                	sw	s3,52(sp)
  1041a6:	dc52                	sw	s4,56(sp)
  1041a8:	de5e                	sw	s7,60(sp)
  1041aa:	84e2                	mv	s1,s8
  1041ac:	b31d                	j	103ed2 <__subtf3+0x164>
  1041ae:	47f2                	lw	a5,28(sp)
  1041b0:	00080737          	lui	a4,0x80
  1041b4:	8fd9                	or	a5,a5,a4
  1041b6:	ce3e                	sw	a5,28(sp)
  1041b8:	07400793          	li	a5,116
  1041bc:	fcb7cae3          	blt	a5,a1,104190 <__subtf3+0x422>
  1041c0:	862e                	mv	a2,a1
  1041c2:	02000793          	li	a5,32
  1041c6:	02f647b3          	div	a5,a2,a5
  1041ca:	85b6                	mv	a1,a3
  1041cc:	4481                	li	s1,0
  1041ce:	4701                	li	a4,0
  1041d0:	02f74a63          	blt	a4,a5,104204 <__subtf3+0x496>
  1041d4:	85be                	mv	a1,a5
  1041d6:	0007d363          	bgez	a5,1041dc <__subtf3+0x46e>
  1041da:	4581                	li	a1,0
  1041dc:	01f67513          	andi	a0,a2,31
  1041e0:	00279713          	slli	a4,a5,0x2
  1041e4:	e50d                	bnez	a0,10420e <__subtf3+0x4a0>
  1041e6:	458d                	li	a1,3
  1041e8:	4601                	li	a2,0
  1041ea:	8d9d                	sub	a1,a1,a5
  1041ec:	00e68533          	add	a0,a3,a4
  1041f0:	4108                	lw	a0,0(a0)
  1041f2:	0605                	addi	a2,a2,1
  1041f4:	c288                	sw	a0,0(a3)
  1041f6:	0691                	addi	a3,a3,4
  1041f8:	fec5dae3          	bge	a1,a2,1041ec <__subtf3+0x47e>
  1041fc:	4511                	li	a0,4
  1041fe:	40f507b3          	sub	a5,a0,a5
  104202:	a881                	j	104252 <__subtf3+0x4e4>
  104204:	4188                	lw	a0,0(a1)
  104206:	0705                	addi	a4,a4,1
  104208:	0591                	addi	a1,a1,4
  10420a:	8cc9                	or	s1,s1,a0
  10420c:	b7d1                	j	1041d0 <__subtf3+0x462>
  10420e:	02000513          	li	a0,32
  104212:	02a66633          	rem	a2,a2,a0
  104216:	5371                	li	t1,-4
  104218:	0094                	addi	a3,sp,64
  10421a:	058a                	slli	a1,a1,0x2
  10421c:	95b6                	add	a1,a1,a3
  10421e:	fd05a683          	lw	a3,-48(a1)
  104222:	4801                	li	a6,0
  104224:	02678333          	mul	t1,a5,t1
  104228:	8d11                	sub	a0,a0,a2
  10422a:	00a696b3          	sll	a3,a3,a0
  10422e:	8cd5                	or	s1,s1,a3
  104230:	00e886b3          	add	a3,a7,a4
  104234:	470d                	li	a4,3
  104236:	8f1d                	sub	a4,a4,a5
  104238:	08e84063          	blt	a6,a4,1042b8 <__subtf3+0x54a>
  10423c:	0094                	addi	a3,sp,64
  10423e:	070a                	slli	a4,a4,0x2
  104240:	9736                	add	a4,a4,a3
  104242:	46f2                	lw	a3,28(sp)
  104244:	4511                	li	a0,4
  104246:	40f507b3          	sub	a5,a0,a5
  10424a:	00c6d633          	srl	a2,a3,a2
  10424e:	fcc72823          	sw	a2,-48(a4) # 7ffd0 <tohost+0x5ffc8>
  104252:	4711                	li	a4,4
  104254:	4601                	li	a2,0
  104256:	00f74563          	blt	a4,a5,104260 <__subtf3+0x4f2>
  10425a:	8f1d                	sub	a4,a4,a5
  10425c:	00271613          	slli	a2,a4,0x2
  104260:	078a                	slli	a5,a5,0x2
  104262:	00f88533          	add	a0,a7,a5
  104266:	4581                	li	a1,0
  104268:	84ffd0ef          	jal	ra,101ab6 <memset>
  10426c:	4742                	lw	a4,16(sp)
  10426e:	009037b3          	snez	a5,s1
  104272:	8fd9                	or	a5,a5,a4
  104274:	c83e                	sw	a5,16(sp)
  104276:	47c2                	lw	a5,16(sp)
  104278:	4752                	lw	a4,20(sp)
  10427a:	84e2                	mv	s1,s8
  10427c:	97a2                	add	a5,a5,s0
  10427e:	974e                	add	a4,a4,s3
  104280:	0087b433          	sltu	s0,a5,s0
  104284:	d83e                	sw	a5,48(sp)
  104286:	008707b3          	add	a5,a4,s0
  10428a:	0087b433          	sltu	s0,a5,s0
  10428e:	da3e                	sw	a5,52(sp)
  104290:	47e2                	lw	a5,24(sp)
  104292:	013739b3          	sltu	s3,a4,s3
  104296:	0089e9b3          	or	s3,s3,s0
  10429a:	97d2                	add	a5,a5,s4
  10429c:	01378733          	add	a4,a5,s3
  1042a0:	0147b7b3          	sltu	a5,a5,s4
  1042a4:	4a72                	lw	s4,28(sp)
  1042a6:	013739b3          	sltu	s3,a4,s3
  1042aa:	0137e7b3          	or	a5,a5,s3
  1042ae:	9bd2                	add	s7,s7,s4
  1042b0:	9bbe                	add	s7,s7,a5
  1042b2:	dc3a                	sw	a4,56(sp)
  1042b4:	de5e                	sw	s7,60(sp)
  1042b6:	b3e5                	j	10409e <__subtf3+0x330>
  1042b8:	428c                	lw	a1,0(a3)
  1042ba:	0046ae03          	lw	t3,4(a3)
  1042be:	00668eb3          	add	t4,a3,t1
  1042c2:	00c5d5b3          	srl	a1,a1,a2
  1042c6:	00ae1e33          	sll	t3,t3,a0
  1042ca:	01c5e5b3          	or	a1,a1,t3
  1042ce:	00bea023          	sw	a1,0(t4)
  1042d2:	0805                	addi	a6,a6,1
  1042d4:	0691                	addi	a3,a3,4
  1042d6:	b78d                	j	104238 <__subtf3+0x4ca>
  1042d8:	6821                	lui	a6,0x8
  1042da:	00148693          	addi	a3,s1,1
  1042de:	ffe80893          	addi	a7,a6,-2 # 7ffe <_min_stack+0x5ffe>
  1042e2:	0116f8b3          	and	a7,a3,a7
  1042e6:	4752                	lw	a4,20(sp)
  1042e8:	4562                	lw	a0,24(sp)
  1042ea:	45f2                	lw	a1,28(sp)
  1042ec:	181c                	addi	a5,sp,48
  1042ee:	1870                	addi	a2,sp,60
  1042f0:	0c089c63          	bnez	a7,1043c8 <__subtf3+0x65a>
  1042f4:	00a766b3          	or	a3,a4,a0
  1042f8:	8ecd                	or	a3,a3,a1
  1042fa:	0126e6b3          	or	a3,a3,s2
  1042fe:	e8bd                	bnez	s1,104374 <__subtf3+0x606>
  104300:	e691                	bnez	a3,10430c <__subtf3+0x59e>
  104302:	d822                	sw	s0,48(sp)
  104304:	da4e                	sw	s3,52(sp)
  104306:	dc52                	sw	s4,56(sp)
  104308:	de5e                	sw	s7,60(sp)
  10430a:	b6e1                	j	103ed2 <__subtf3+0x164>
  10430c:	0149e7b3          	or	a5,s3,s4
  104310:	0177e7b3          	or	a5,a5,s7
  104314:	8fc1                	or	a5,a5,s0
  104316:	e791                	bnez	a5,104322 <__subtf3+0x5b4>
  104318:	d84a                	sw	s2,48(sp)
  10431a:	da3a                	sw	a4,52(sp)
  10431c:	dc2a                	sw	a0,56(sp)
  10431e:	de2e                	sw	a1,60(sp)
  104320:	be4d                	j	103ed2 <__subtf3+0x164>
  104322:	944a                	add	s0,s0,s2
  104324:	01243933          	sltu	s2,s0,s2
  104328:	99ba                	add	s3,s3,a4
  10432a:	d822                	sw	s0,48(sp)
  10432c:	01298433          	add	s0,s3,s2
  104330:	01243933          	sltu	s2,s0,s2
  104334:	00e9b9b3          	sltu	s3,s3,a4
  104338:	0129e9b3          	or	s3,s3,s2
  10433c:	9a2a                	add	s4,s4,a0
  10433e:	013a07b3          	add	a5,s4,s3
  104342:	0137b9b3          	sltu	s3,a5,s3
  104346:	00aa3a33          	sltu	s4,s4,a0
  10434a:	013a6a33          	or	s4,s4,s3
  10434e:	9bae                	add	s7,s7,a1
  104350:	dc3e                	sw	a5,56(sp)
  104352:	9a5e                	add	s4,s4,s7
  104354:	000807b7          	lui	a5,0x80
  104358:	da22                	sw	s0,52(sp)
  10435a:	00fa77b3          	and	a5,s4,a5
  10435e:	e399                	bnez	a5,104364 <__subtf3+0x5f6>
  104360:	de52                	sw	s4,60(sp)
  104362:	be85                	j	103ed2 <__subtf3+0x164>
  104364:	fff807b7          	lui	a5,0xfff80
  104368:	17fd                	addi	a5,a5,-1
  10436a:	00fa7a33          	and	s4,s4,a5
  10436e:	de52                	sw	s4,60(sp)
  104370:	4485                	li	s1,1
  104372:	b685                	j	103ed2 <__subtf3+0x164>
  104374:	ea81                	bnez	a3,104384 <__subtf3+0x616>
  104376:	d822                	sw	s0,48(sp)
  104378:	da4e                	sw	s3,52(sp)
  10437a:	dc52                	sw	s4,56(sp)
  10437c:	de5e                	sw	s7,60(sp)
  10437e:	fff80493          	addi	s1,a6,-1
  104382:	be81                	j	103ed2 <__subtf3+0x164>
  104384:	0149ea33          	or	s4,s3,s4
  104388:	017a6bb3          	or	s7,s4,s7
  10438c:	008be433          	or	s0,s7,s0
  104390:	e411                	bnez	s0,10439c <__subtf3+0x62e>
  104392:	d84a                	sw	s2,48(sp)
  104394:	da3a                	sw	a4,52(sp)
  104396:	dc2a                	sw	a0,56(sp)
  104398:	de2e                	sw	a1,60(sp)
  10439a:	b7d5                	j	10437e <__subtf3+0x610>
  10439c:	de42                	sw	a6,60(sp)
  10439e:	dc02                	sw	zero,56(sp)
  1043a0:	da02                	sw	zero,52(sp)
  1043a2:	d802                	sw	zero,48(sp)
  1043a4:	8732                	mv	a4,a2
  1043a6:	4314                	lw	a3,0(a4)
  1043a8:	ffc72603          	lw	a2,-4(a4)
  1043ac:	1771                	addi	a4,a4,-4
  1043ae:	068e                	slli	a3,a3,0x3
  1043b0:	8275                	srli	a2,a2,0x1d
  1043b2:	8ed1                	or	a3,a3,a2
  1043b4:	c354                	sw	a3,4(a4)
  1043b6:	fee798e3          	bne	a5,a4,1043a6 <__subtf3+0x638>
  1043ba:	57c2                	lw	a5,48(sp)
  1043bc:	64a1                	lui	s1,0x8
  1043be:	4a81                	li	s5,0
  1043c0:	078e                	slli	a5,a5,0x3
  1043c2:	d83e                	sw	a5,48(sp)
  1043c4:	14fd                	addi	s1,s1,-1
  1043c6:	b631                	j	103ed2 <__subtf3+0x164>
  1043c8:	944a                	add	s0,s0,s2
  1043ca:	99ba                	add	s3,s3,a4
  1043cc:	01243933          	sltu	s2,s0,s2
  1043d0:	d822                	sw	s0,48(sp)
  1043d2:	01298433          	add	s0,s3,s2
  1043d6:	01243933          	sltu	s2,s0,s2
  1043da:	00e9b9b3          	sltu	s3,s3,a4
  1043de:	0129e933          	or	s2,s3,s2
  1043e2:	01450733          	add	a4,a0,s4
  1043e6:	01270833          	add	a6,a4,s2
  1043ea:	00a73a33          	sltu	s4,a4,a0
  1043ee:	01283733          	sltu	a4,a6,s2
  1043f2:	00ea6733          	or	a4,s4,a4
  1043f6:	9bae                	add	s7,s7,a1
  1043f8:	9bba                	add	s7,s7,a4
  1043fa:	da22                	sw	s0,52(sp)
  1043fc:	dc42                	sw	a6,56(sp)
  1043fe:	de5e                	sw	s7,60(sp)
  104400:	4398                	lw	a4,0(a5)
  104402:	43cc                	lw	a1,4(a5)
  104404:	8305                	srli	a4,a4,0x1
  104406:	05fe                	slli	a1,a1,0x1f
  104408:	8f4d                	or	a4,a4,a1
  10440a:	c398                	sw	a4,0(a5)
  10440c:	0791                	addi	a5,a5,4
  10440e:	fef619e3          	bne	a2,a5,104400 <__subtf3+0x692>
  104412:	67a1                	lui	a5,0x8
  104414:	17fd                	addi	a5,a5,-1
  104416:	00f68763          	beq	a3,a5,104424 <__subtf3+0x6b6>
  10441a:	57f2                	lw	a5,60(sp)
  10441c:	8385                	srli	a5,a5,0x1
  10441e:	de3e                	sw	a5,60(sp)
  104420:	84b6                	mv	s1,a3
  104422:	bc45                	j	103ed2 <__subtf3+0x164>
  104424:	de02                	sw	zero,60(sp)
  104426:	dc02                	sw	zero,56(sp)
  104428:	da02                	sw	zero,52(sp)
  10442a:	d802                	sw	zero,48(sp)
  10442c:	bfd5                	j	104420 <__subtf3+0x6b2>
  10442e:	1d005f63          	blez	a6,10460c <__subtf3+0x89e>
  104432:	49d2                	lw	s3,20(sp)
  104434:	4a62                	lw	s4,24(sp)
  104436:	4bf2                	lw	s7,28(sp)
  104438:	080c1563          	bnez	s8,1044c2 <__subtf3+0x754>
  10443c:	5892                	lw	a7,36(sp)
  10443e:	56a2                	lw	a3,40(sp)
  104440:	57b2                	lw	a5,44(sp)
  104442:	00d8e733          	or	a4,a7,a3
  104446:	8f5d                	or	a4,a4,a5
  104448:	8f41                	or	a4,a4,s0
  10444a:	e711                	bnez	a4,104456 <__subtf3+0x6e8>
  10444c:	d84a                	sw	s2,48(sp)
  10444e:	da4e                	sw	s3,52(sp)
  104450:	dc52                	sw	s4,56(sp)
  104452:	de5e                	sw	s7,60(sp)
  104454:	bc09                	j	103e66 <__subtf3+0xf8>
  104456:	fff80713          	addi	a4,a6,-1
  10445a:	e739                	bnez	a4,1044a8 <__subtf3+0x73a>
  10445c:	40890433          	sub	s0,s2,s0
  104460:	411985b3          	sub	a1,s3,a7
  104464:	00893633          	sltu	a2,s2,s0
  104468:	00b9b533          	sltu	a0,s3,a1
  10446c:	8d91                	sub	a1,a1,a2
  10446e:	4601                	li	a2,0
  104470:	00897663          	bgeu	s2,s0,10447c <__subtf3+0x70e>
  104474:	41388633          	sub	a2,a7,s3
  104478:	00163613          	seqz	a2,a2
  10447c:	8e49                	or	a2,a2,a0
  10447e:	40da0533          	sub	a0,s4,a3
  104482:	00aa3833          	sltu	a6,s4,a0
  104486:	8d11                	sub	a0,a0,a2
  104488:	c609                	beqz	a2,104492 <__subtf3+0x724>
  10448a:	41468733          	sub	a4,a3,s4
  10448e:	00173713          	seqz	a4,a4
  104492:	40fb87b3          	sub	a5,s7,a5
  104496:	01076733          	or	a4,a4,a6
  10449a:	8f99                	sub	a5,a5,a4
  10449c:	de3e                	sw	a5,60(sp)
  10449e:	dc2a                	sw	a0,56(sp)
  1044a0:	da2e                	sw	a1,52(sp)
  1044a2:	d822                	sw	s0,48(sp)
  1044a4:	4485                	li	s1,1
  1044a6:	aa05                	j	1045d6 <__subtf3+0x868>
  1044a8:	67a1                	lui	a5,0x8
  1044aa:	17fd                	addi	a5,a5,-1
  1044ac:	faf800e3          	beq	a6,a5,10444c <__subtf3+0x6de>
  1044b0:	07400793          	li	a5,116
  1044b4:	02e7d763          	bge	a5,a4,1044e2 <__subtf3+0x774>
  1044b8:	d602                	sw	zero,44(sp)
  1044ba:	d402                	sw	zero,40(sp)
  1044bc:	d202                	sw	zero,36(sp)
  1044be:	4785                	li	a5,1
  1044c0:	a0c1                	j	104580 <__subtf3+0x812>
  1044c2:	67a1                	lui	a5,0x8
  1044c4:	17fd                	addi	a5,a5,-1
  1044c6:	00f49463          	bne	s1,a5,1044ce <__subtf3+0x760>
  1044ca:	d84a                	sw	s2,48(sp)
  1044cc:	bd25                	j	104304 <__subtf3+0x596>
  1044ce:	57b2                	lw	a5,44(sp)
  1044d0:	00080737          	lui	a4,0x80
  1044d4:	8fd9                	or	a5,a5,a4
  1044d6:	d63e                	sw	a5,44(sp)
  1044d8:	07400793          	li	a5,116
  1044dc:	fd07cee3          	blt	a5,a6,1044b8 <__subtf3+0x74a>
  1044e0:	8742                	mv	a4,a6
  1044e2:	40575793          	srai	a5,a4,0x5
  1044e6:	862e                	mv	a2,a1
  1044e8:	4401                	li	s0,0
  1044ea:	4681                	li	a3,0
  1044ec:	02f69863          	bne	a3,a5,10451c <__subtf3+0x7ae>
  1044f0:	01f77613          	andi	a2,a4,31
  1044f4:	00279713          	slli	a4,a5,0x2
  1044f8:	ea0d                	bnez	a2,10452a <__subtf3+0x7bc>
  1044fa:	460d                	li	a2,3
  1044fc:	4681                	li	a3,0
  1044fe:	8e1d                	sub	a2,a2,a5
  104500:	00e58833          	add	a6,a1,a4
  104504:	00082803          	lw	a6,0(a6)
  104508:	0685                	addi	a3,a3,1
  10450a:	0105a023          	sw	a6,0(a1)
  10450e:	0591                	addi	a1,a1,4
  104510:	fed658e3          	bge	a2,a3,104500 <__subtf3+0x792>
  104514:	4711                	li	a4,4
  104516:	40f707b3          	sub	a5,a4,a5
  10451a:	a0b9                	j	104568 <__subtf3+0x7fa>
  10451c:	00062803          	lw	a6,0(a2)
  104520:	0685                	addi	a3,a3,1
  104522:	0611                	addi	a2,a2,4
  104524:	01046433          	or	s0,s0,a6
  104528:	b7d1                	j	1044ec <__subtf3+0x77e>
  10452a:	5371                	li	t1,-4
  10452c:	02678333          	mul	t1,a5,t1
  104530:	0094                	addi	a3,sp,64
  104532:	96ba                	add	a3,a3,a4
  104534:	fe06a683          	lw	a3,-32(a3)
  104538:	02000813          	li	a6,32
  10453c:	40c80833          	sub	a6,a6,a2
  104540:	010696b3          	sll	a3,a3,a6
  104544:	8c55                	or	s0,s0,a3
  104546:	468d                	li	a3,3
  104548:	972a                	add	a4,a4,a0
  10454a:	4881                	li	a7,0
  10454c:	8e9d                	sub	a3,a3,a5
  10454e:	08d8cf63          	blt	a7,a3,1045ec <__subtf3+0x87e>
  104552:	4711                	li	a4,4
  104554:	40f707b3          	sub	a5,a4,a5
  104558:	068a                	slli	a3,a3,0x2
  10455a:	0098                	addi	a4,sp,64
  10455c:	96ba                	add	a3,a3,a4
  10455e:	5732                	lw	a4,44(sp)
  104560:	00c75733          	srl	a4,a4,a2
  104564:	fee6a023          	sw	a4,-32(a3)
  104568:	4611                	li	a2,4
  10456a:	8e1d                	sub	a2,a2,a5
  10456c:	078a                	slli	a5,a5,0x2
  10456e:	953e                	add	a0,a0,a5
  104570:	060a                	slli	a2,a2,0x2
  104572:	4581                	li	a1,0
  104574:	d42fd0ef          	jal	ra,101ab6 <memset>
  104578:	5702                	lw	a4,32(sp)
  10457a:	008037b3          	snez	a5,s0
  10457e:	8fd9                	or	a5,a5,a4
  104580:	d03e                	sw	a5,32(sp)
  104582:	5702                	lw	a4,32(sp)
  104584:	5592                	lw	a1,36(sp)
  104586:	4681                	li	a3,0
  104588:	40e90733          	sub	a4,s2,a4
  10458c:	40b987b3          	sub	a5,s3,a1
  104590:	00e93633          	sltu	a2,s2,a4
  104594:	00f9b533          	sltu	a0,s3,a5
  104598:	40c78633          	sub	a2,a5,a2
  10459c:	00e97663          	bgeu	s2,a4,1045a8 <__subtf3+0x83a>
  1045a0:	413586b3          	sub	a3,a1,s3
  1045a4:	0016b693          	seqz	a3,a3
  1045a8:	5822                	lw	a6,40(sp)
  1045aa:	8ec9                	or	a3,a3,a0
  1045ac:	4501                	li	a0,0
  1045ae:	410a05b3          	sub	a1,s4,a6
  1045b2:	00ba38b3          	sltu	a7,s4,a1
  1045b6:	8d95                	sub	a1,a1,a3
  1045b8:	c689                	beqz	a3,1045c2 <__subtf3+0x854>
  1045ba:	41480833          	sub	a6,a6,s4
  1045be:	00183513          	seqz	a0,a6
  1045c2:	57b2                	lw	a5,44(sp)
  1045c4:	01156533          	or	a0,a0,a7
  1045c8:	dc2e                	sw	a1,56(sp)
  1045ca:	40fb87b3          	sub	a5,s7,a5
  1045ce:	8f89                	sub	a5,a5,a0
  1045d0:	de3e                	sw	a5,60(sp)
  1045d2:	da32                	sw	a2,52(sp)
  1045d4:	d83a                	sw	a4,48(sp)
  1045d6:	57f2                	lw	a5,60(sp)
  1045d8:	00080737          	lui	a4,0x80
  1045dc:	00e7f6b3          	and	a3,a5,a4
  1045e0:	8e0689e3          	beqz	a3,103ed2 <__subtf3+0x164>
  1045e4:	177d                	addi	a4,a4,-1
  1045e6:	8ff9                	and	a5,a5,a4
  1045e8:	de3e                	sw	a5,60(sp)
  1045ea:	a929                	j	104a04 <__subtf3+0xc96>
  1045ec:	430c                	lw	a1,0(a4)
  1045ee:	00472e03          	lw	t3,4(a4) # 80004 <tohost+0x5fffc>
  1045f2:	00670eb3          	add	t4,a4,t1
  1045f6:	00c5d5b3          	srl	a1,a1,a2
  1045fa:	010e1e33          	sll	t3,t3,a6
  1045fe:	01c5e5b3          	or	a1,a1,t3
  104602:	00bea023          	sw	a1,0(t4)
  104606:	0885                	addi	a7,a7,1
  104608:	0711                	addi	a4,a4,4
  10460a:	b791                	j	10454e <__subtf3+0x7e0>
  10460c:	5992                	lw	s3,36(sp)
  10460e:	5a22                	lw	s4,40(sp)
  104610:	5cb2                	lw	s9,44(sp)
  104612:	1e080a63          	beqz	a6,104806 <__subtf3+0xa98>
  104616:	409c05b3          	sub	a1,s8,s1
  10461a:	e4d1                	bnez	s1,1046a6 <__subtf3+0x938>
  10461c:	4552                	lw	a0,20(sp)
  10461e:	4762                	lw	a4,24(sp)
  104620:	4672                	lw	a2,28(sp)
  104622:	00e567b3          	or	a5,a0,a4
  104626:	8fd1                	or	a5,a5,a2
  104628:	0127e7b3          	or	a5,a5,s2
  10462c:	eb81                	bnez	a5,10463c <__subtf3+0x8ce>
  10462e:	d822                	sw	s0,48(sp)
  104630:	da4e                	sw	s3,52(sp)
  104632:	dc52                	sw	s4,56(sp)
  104634:	de66                	sw	s9,60(sp)
  104636:	84ae                	mv	s1,a1
  104638:	8ade                	mv	s5,s7
  10463a:	b861                	j	103ed2 <__subtf3+0x164>
  10463c:	fff58793          	addi	a5,a1,-1
  104640:	eba9                	bnez	a5,104692 <__subtf3+0x924>
  104642:	41240933          	sub	s2,s0,s2
  104646:	40a985b3          	sub	a1,s3,a0
  10464a:	012436b3          	sltu	a3,s0,s2
  10464e:	00b9b833          	sltu	a6,s3,a1
  104652:	8d95                	sub	a1,a1,a3
  104654:	4681                	li	a3,0
  104656:	01247663          	bgeu	s0,s2,104662 <__subtf3+0x8f4>
  10465a:	413506b3          	sub	a3,a0,s3
  10465e:	0016b693          	seqz	a3,a3
  104662:	0106e6b3          	or	a3,a3,a6
  104666:	40ea0533          	sub	a0,s4,a4
  10466a:	00aa3833          	sltu	a6,s4,a0
  10466e:	8d15                	sub	a0,a0,a3
  104670:	c689                	beqz	a3,10467a <__subtf3+0x90c>
  104672:	414707b3          	sub	a5,a4,s4
  104676:	0017b793          	seqz	a5,a5
  10467a:	40cc8cb3          	sub	s9,s9,a2
  10467e:	0107e7b3          	or	a5,a5,a6
  104682:	40fc8cb3          	sub	s9,s9,a5
  104686:	de66                	sw	s9,60(sp)
  104688:	dc2a                	sw	a0,56(sp)
  10468a:	da2e                	sw	a1,52(sp)
  10468c:	d84a                	sw	s2,48(sp)
  10468e:	8ade                	mv	s5,s7
  104690:	bd11                	j	1044a4 <__subtf3+0x736>
  104692:	6721                	lui	a4,0x8
  104694:	177d                	addi	a4,a4,-1
  104696:	f8e58ce3          	beq	a1,a4,10462e <__subtf3+0x8c0>
  10469a:	07400713          	li	a4,116
  10469e:	14f74f63          	blt	a4,a5,1047fc <__subtf3+0xa8e>
  1046a2:	85be                	mv	a1,a5
  1046a4:	a025                	j	1046cc <__subtf3+0x95e>
  1046a6:	67a1                	lui	a5,0x8
  1046a8:	17fd                	addi	a5,a5,-1
  1046aa:	00fc1863          	bne	s8,a5,1046ba <__subtf3+0x94c>
  1046ae:	d822                	sw	s0,48(sp)
  1046b0:	da4e                	sw	s3,52(sp)
  1046b2:	dc52                	sw	s4,56(sp)
  1046b4:	de66                	sw	s9,60(sp)
  1046b6:	84e2                	mv	s1,s8
  1046b8:	b741                	j	104638 <__subtf3+0x8ca>
  1046ba:	47f2                	lw	a5,28(sp)
  1046bc:	00080737          	lui	a4,0x80
  1046c0:	8fd9                	or	a5,a5,a4
  1046c2:	ce3e                	sw	a5,28(sp)
  1046c4:	07400793          	li	a5,116
  1046c8:	12b7ca63          	blt	a5,a1,1047fc <__subtf3+0xa8e>
  1046cc:	02000713          	li	a4,32
  1046d0:	02e5c733          	div	a4,a1,a4
  1046d4:	8636                	mv	a2,a3
  1046d6:	4481                	li	s1,0
  1046d8:	4781                	li	a5,0
  1046da:	02e7ca63          	blt	a5,a4,10470e <__subtf3+0x9a0>
  1046de:	863a                	mv	a2,a4
  1046e0:	00075363          	bgez	a4,1046e6 <__subtf3+0x978>
  1046e4:	4601                	li	a2,0
  1046e6:	01f5f513          	andi	a0,a1,31
  1046ea:	00271793          	slli	a5,a4,0x2
  1046ee:	e50d                	bnez	a0,104718 <__subtf3+0x9aa>
  1046f0:	458d                	li	a1,3
  1046f2:	4601                	li	a2,0
  1046f4:	8d99                	sub	a1,a1,a4
  1046f6:	00f68533          	add	a0,a3,a5
  1046fa:	4108                	lw	a0,0(a0)
  1046fc:	0605                	addi	a2,a2,1
  1046fe:	c288                	sw	a0,0(a3)
  104700:	0691                	addi	a3,a3,4
  104702:	fec5dae3          	bge	a1,a2,1046f6 <__subtf3+0x988>
  104706:	4511                	li	a0,4
  104708:	40e50733          	sub	a4,a0,a4
  10470c:	a881                	j	10475c <__subtf3+0x9ee>
  10470e:	4208                	lw	a0,0(a2)
  104710:	0785                	addi	a5,a5,1
  104712:	0611                	addi	a2,a2,4
  104714:	8cc9                	or	s1,s1,a0
  104716:	b7d1                	j	1046da <__subtf3+0x96c>
  104718:	02000513          	li	a0,32
  10471c:	02a5e5b3          	rem	a1,a1,a0
  104720:	5371                	li	t1,-4
  104722:	0094                	addi	a3,sp,64
  104724:	060a                	slli	a2,a2,0x2
  104726:	9636                	add	a2,a2,a3
  104728:	fd062683          	lw	a3,-48(a2)
  10472c:	4801                	li	a6,0
  10472e:	02670333          	mul	t1,a4,t1
  104732:	8d0d                	sub	a0,a0,a1
  104734:	00a696b3          	sll	a3,a3,a0
  104738:	8cd5                	or	s1,s1,a3
  10473a:	00f886b3          	add	a3,a7,a5
  10473e:	478d                	li	a5,3
  104740:	8f99                	sub	a5,a5,a4
  104742:	08f84d63          	blt	a6,a5,1047dc <__subtf3+0xa6e>
  104746:	0094                	addi	a3,sp,64
  104748:	078a                	slli	a5,a5,0x2
  10474a:	97b6                	add	a5,a5,a3
  10474c:	46f2                	lw	a3,28(sp)
  10474e:	4511                	li	a0,4
  104750:	40e50733          	sub	a4,a0,a4
  104754:	00b6d5b3          	srl	a1,a3,a1
  104758:	fcb7a823          	sw	a1,-48(a5) # 7fd0 <_min_stack+0x5fd0>
  10475c:	4791                	li	a5,4
  10475e:	4601                	li	a2,0
  104760:	00e7c563          	blt	a5,a4,10476a <__subtf3+0x9fc>
  104764:	8f99                	sub	a5,a5,a4
  104766:	00279613          	slli	a2,a5,0x2
  10476a:	070a                	slli	a4,a4,0x2
  10476c:	00e88533          	add	a0,a7,a4
  104770:	4581                	li	a1,0
  104772:	b44fd0ef          	jal	ra,101ab6 <memset>
  104776:	4742                	lw	a4,16(sp)
  104778:	009037b3          	snez	a5,s1
  10477c:	8fd9                	or	a5,a5,a4
  10477e:	c83e                	sw	a5,16(sp)
  104780:	4742                	lw	a4,16(sp)
  104782:	4652                	lw	a2,20(sp)
  104784:	40e40733          	sub	a4,s0,a4
  104788:	40c987b3          	sub	a5,s3,a2
  10478c:	00e436b3          	sltu	a3,s0,a4
  104790:	00f9b5b3          	sltu	a1,s3,a5
  104794:	8f95                	sub	a5,a5,a3
  104796:	4681                	li	a3,0
  104798:	00e47663          	bgeu	s0,a4,1047a4 <__subtf3+0xa36>
  10479c:	413606b3          	sub	a3,a2,s3
  1047a0:	0016b693          	seqz	a3,a3
  1047a4:	4862                	lw	a6,24(sp)
  1047a6:	8ecd                	or	a3,a3,a1
  1047a8:	4501                	li	a0,0
  1047aa:	410a0633          	sub	a2,s4,a6
  1047ae:	00ca38b3          	sltu	a7,s4,a2
  1047b2:	40d605b3          	sub	a1,a2,a3
  1047b6:	c689                	beqz	a3,1047c0 <__subtf3+0xa52>
  1047b8:	41480833          	sub	a6,a6,s4
  1047bc:	00183513          	seqz	a0,a6
  1047c0:	4672                	lw	a2,28(sp)
  1047c2:	01156533          	or	a0,a0,a7
  1047c6:	dc2e                	sw	a1,56(sp)
  1047c8:	40cc8cb3          	sub	s9,s9,a2
  1047cc:	40ac8cb3          	sub	s9,s9,a0
  1047d0:	de66                	sw	s9,60(sp)
  1047d2:	da3e                	sw	a5,52(sp)
  1047d4:	d83a                	sw	a4,48(sp)
  1047d6:	84e2                	mv	s1,s8
  1047d8:	8ade                	mv	s5,s7
  1047da:	bbf5                	j	1045d6 <__subtf3+0x868>
  1047dc:	4290                	lw	a2,0(a3)
  1047de:	0046ae03          	lw	t3,4(a3)
  1047e2:	00668eb3          	add	t4,a3,t1
  1047e6:	00b65633          	srl	a2,a2,a1
  1047ea:	00ae1e33          	sll	t3,t3,a0
  1047ee:	01c66633          	or	a2,a2,t3
  1047f2:	00cea023          	sw	a2,0(t4)
  1047f6:	0805                	addi	a6,a6,1
  1047f8:	0691                	addi	a3,a3,4
  1047fa:	b7a1                	j	104742 <__subtf3+0x9d4>
  1047fc:	ce02                	sw	zero,28(sp)
  1047fe:	cc02                	sw	zero,24(sp)
  104800:	ca02                	sw	zero,20(sp)
  104802:	4785                	li	a5,1
  104804:	bfad                	j	10477e <__subtf3+0xa10>
  104806:	6521                	lui	a0,0x8
  104808:	ffe50713          	addi	a4,a0,-2 # 7ffe <_min_stack+0x5ffe>
  10480c:	00148793          	addi	a5,s1,1 # 8001 <_stack_len+0x1>
  104810:	8ff9                	and	a5,a5,a4
  104812:	46e2                	lw	a3,24(sp)
  104814:	4752                	lw	a4,20(sp)
  104816:	4672                	lw	a2,28(sp)
  104818:	14079963          	bnez	a5,10496a <__subtf3+0xbfc>
  10481c:	0149e7b3          	or	a5,s3,s4
  104820:	00d765b3          	or	a1,a4,a3
  104824:	0197e7b3          	or	a5,a5,s9
  104828:	8dd1                	or	a1,a1,a2
  10482a:	8fc1                	or	a5,a5,s0
  10482c:	0125e5b3          	or	a1,a1,s2
  104830:	e8f1                	bnez	s1,104904 <__subtf3+0xb96>
  104832:	ed81                	bnez	a1,10484a <__subtf3+0xadc>
  104834:	d822                	sw	s0,48(sp)
  104836:	da4e                	sw	s3,52(sp)
  104838:	dc52                	sw	s4,56(sp)
  10483a:	de66                	sw	s9,60(sp)
  10483c:	8ade                	mv	s5,s7
  10483e:	e8079a63          	bnez	a5,103ed2 <__subtf3+0x164>
  104842:	4481                	li	s1,0
  104844:	4a81                	li	s5,0
  104846:	e8cff06f          	j	103ed2 <__subtf3+0x164>
  10484a:	e799                	bnez	a5,104858 <__subtf3+0xaea>
  10484c:	d84a                	sw	s2,48(sp)
  10484e:	da3a                	sw	a4,52(sp)
  104850:	dc36                	sw	a3,56(sp)
  104852:	de32                	sw	a2,60(sp)
  104854:	e7eff06f          	j	103ed2 <__subtf3+0x164>
  104858:	408905b3          	sub	a1,s2,s0
  10485c:	41370333          	sub	t1,a4,s3
  104860:	00b93833          	sltu	a6,s2,a1
  104864:	006737b3          	sltu	a5,a4,t1
  104868:	41030833          	sub	a6,t1,a6
  10486c:	4501                	li	a0,0
  10486e:	00b97463          	bgeu	s2,a1,104876 <__subtf3+0xb08>
  104872:	00133513          	seqz	a0,t1
  104876:	414688b3          	sub	a7,a3,s4
  10487a:	8d5d                	or	a0,a0,a5
  10487c:	0116bf33          	sltu	t5,a3,a7
  104880:	40a88eb3          	sub	t4,a7,a0
  104884:	4e01                	li	t3,0
  104886:	c119                	beqz	a0,10488c <__subtf3+0xb1e>
  104888:	0018be13          	seqz	t3,a7
  10488c:	419607b3          	sub	a5,a2,s9
  104890:	01ee6e33          	or	t3,t3,t5
  104894:	41c787b3          	sub	a5,a5,t3
  104898:	00080537          	lui	a0,0x80
  10489c:	de3e                	sw	a5,60(sp)
  10489e:	dc76                	sw	t4,56(sp)
  1048a0:	da42                	sw	a6,52(sp)
  1048a2:	d82e                	sw	a1,48(sp)
  1048a4:	8d7d                	and	a0,a0,a5
  1048a6:	c539                	beqz	a0,1048f4 <__subtf3+0xb86>
  1048a8:	41240933          	sub	s2,s0,s2
  1048ac:	40e98733          	sub	a4,s3,a4
  1048b0:	012437b3          	sltu	a5,s0,s2
  1048b4:	00e9b9b3          	sltu	s3,s3,a4
  1048b8:	8f1d                	sub	a4,a4,a5
  1048ba:	4781                	li	a5,0
  1048bc:	01247463          	bgeu	s0,s2,1048c4 <__subtf3+0xb56>
  1048c0:	00133793          	seqz	a5,t1
  1048c4:	40da06b3          	sub	a3,s4,a3
  1048c8:	0137e9b3          	or	s3,a5,s3
  1048cc:	00da3a33          	sltu	s4,s4,a3
  1048d0:	4581                	li	a1,0
  1048d2:	413686b3          	sub	a3,a3,s3
  1048d6:	00098463          	beqz	s3,1048de <__subtf3+0xb70>
  1048da:	0018b593          	seqz	a1,a7
  1048de:	40cc8633          	sub	a2,s9,a2
  1048e2:	0145e5b3          	or	a1,a1,s4
  1048e6:	40b605b3          	sub	a1,a2,a1
  1048ea:	de2e                	sw	a1,60(sp)
  1048ec:	dc36                	sw	a3,56(sp)
  1048ee:	da3a                	sw	a4,52(sp)
  1048f0:	d84a                	sw	s2,48(sp)
  1048f2:	b399                	j	104638 <__subtf3+0x8ca>
  1048f4:	0105e5b3          	or	a1,a1,a6
  1048f8:	01d5e5b3          	or	a1,a1,t4
  1048fc:	8ddd                	or	a1,a1,a5
  1048fe:	d1b1                	beqz	a1,104842 <__subtf3+0xad4>
  104900:	dd2ff06f          	j	103ed2 <__subtf3+0x164>
  104904:	03010813          	addi	a6,sp,48
  104908:	e99d                	bnez	a1,10493e <__subtf3+0xbd0>
  10490a:	e38d                	bnez	a5,10492c <__subtf3+0xbbe>
  10490c:	de2a                	sw	a0,60(sp)
  10490e:	dc02                	sw	zero,56(sp)
  104910:	da02                	sw	zero,52(sp)
  104912:	d802                	sw	zero,48(sp)
  104914:	187c                	addi	a5,sp,60
  104916:	4398                	lw	a4,0(a5)
  104918:	ffc7a683          	lw	a3,-4(a5)
  10491c:	17f1                	addi	a5,a5,-4
  10491e:	070e                	slli	a4,a4,0x3
  104920:	82f5                	srli	a3,a3,0x1d
  104922:	8f55                	or	a4,a4,a3
  104924:	c3d8                	sw	a4,4(a5)
  104926:	fef818e3          	bne	a6,a5,104916 <__subtf3+0xba8>
  10492a:	bc41                	j	1043ba <__subtf3+0x64c>
  10492c:	d822                	sw	s0,48(sp)
  10492e:	da4e                	sw	s3,52(sp)
  104930:	dc52                	sw	s4,56(sp)
  104932:	de66                	sw	s9,60(sp)
  104934:	8ade                	mv	s5,s7
  104936:	fff50493          	addi	s1,a0,-1 # 7ffff <tohost+0x5fff7>
  10493a:	d98ff06f          	j	103ed2 <__subtf3+0x164>
  10493e:	e791                	bnez	a5,10494a <__subtf3+0xbdc>
  104940:	d84a                	sw	s2,48(sp)
  104942:	da3a                	sw	a4,52(sp)
  104944:	dc36                	sw	a3,56(sp)
  104946:	de32                	sw	a2,60(sp)
  104948:	b7fd                	j	104936 <__subtf3+0xbc8>
  10494a:	de2a                	sw	a0,60(sp)
  10494c:	dc02                	sw	zero,56(sp)
  10494e:	da02                	sw	zero,52(sp)
  104950:	d802                	sw	zero,48(sp)
  104952:	187c                	addi	a5,sp,60
  104954:	4398                	lw	a4,0(a5)
  104956:	ffc7a683          	lw	a3,-4(a5)
  10495a:	17f1                	addi	a5,a5,-4
  10495c:	070e                	slli	a4,a4,0x3
  10495e:	82f5                	srli	a3,a3,0x1d
  104960:	8f55                	or	a4,a4,a3
  104962:	c3d8                	sw	a4,4(a5)
  104964:	fef818e3          	bne	a6,a5,104954 <__subtf3+0xbe6>
  104968:	bc89                	j	1043ba <__subtf3+0x64c>
  10496a:	408905b3          	sub	a1,s2,s0
  10496e:	41370e33          	sub	t3,a4,s3
  104972:	00b938b3          	sltu	a7,s2,a1
  104976:	01c737b3          	sltu	a5,a4,t3
  10497a:	411e08b3          	sub	a7,t3,a7
  10497e:	4501                	li	a0,0
  104980:	00b97463          	bgeu	s2,a1,104988 <__subtf3+0xc1a>
  104984:	001e3513          	seqz	a0,t3
  104988:	41468333          	sub	t1,a3,s4
  10498c:	8d5d                	or	a0,a0,a5
  10498e:	0066bfb3          	sltu	t6,a3,t1
  104992:	40a30f33          	sub	t5,t1,a0
  104996:	4e81                	li	t4,0
  104998:	c119                	beqz	a0,10499e <__subtf3+0xc30>
  10499a:	00133e93          	seqz	t4,t1
  10499e:	419607b3          	sub	a5,a2,s9
  1049a2:	01feeeb3          	or	t4,t4,t6
  1049a6:	41d787b3          	sub	a5,a5,t4
  1049aa:	00080537          	lui	a0,0x80
  1049ae:	de3e                	sw	a5,60(sp)
  1049b0:	dc7a                	sw	t5,56(sp)
  1049b2:	da46                	sw	a7,52(sp)
  1049b4:	d82e                	sw	a1,48(sp)
  1049b6:	8d7d                	and	a0,a0,a5
  1049b8:	c575                	beqz	a0,104aa4 <__subtf3+0xd36>
  1049ba:	41240933          	sub	s2,s0,s2
  1049be:	40e98733          	sub	a4,s3,a4
  1049c2:	012437b3          	sltu	a5,s0,s2
  1049c6:	00e9b9b3          	sltu	s3,s3,a4
  1049ca:	8f1d                	sub	a4,a4,a5
  1049cc:	4781                	li	a5,0
  1049ce:	01247463          	bgeu	s0,s2,1049d6 <__subtf3+0xc68>
  1049d2:	001e3793          	seqz	a5,t3
  1049d6:	0137e9b3          	or	s3,a5,s3
  1049da:	40da06b3          	sub	a3,s4,a3
  1049de:	00da37b3          	sltu	a5,s4,a3
  1049e2:	413686b3          	sub	a3,a3,s3
  1049e6:	00098463          	beqz	s3,1049ee <__subtf3+0xc80>
  1049ea:	00133813          	seqz	a6,t1
  1049ee:	40cc8633          	sub	a2,s9,a2
  1049f2:	00f867b3          	or	a5,a6,a5
  1049f6:	40f607b3          	sub	a5,a2,a5
  1049fa:	de3e                	sw	a5,60(sp)
  1049fc:	dc36                	sw	a3,56(sp)
  1049fe:	da3a                	sw	a4,52(sp)
  104a00:	d84a                	sw	s2,48(sp)
  104a02:	8ade                	mv	s5,s7
  104a04:	5572                	lw	a0,60(sp)
  104a06:	c55d                	beqz	a0,104ab4 <__subtf3+0xd46>
  104a08:	7d4000ef          	jal	ra,1051dc <__clzsi2>
  104a0c:	ff450413          	addi	s0,a0,-12 # 7fff4 <tohost+0x5ffec>
  104a10:	02000793          	li	a5,32
  104a14:	01f47713          	andi	a4,s0,31
  104a18:	02f44633          	div	a2,s0,a5
  104a1c:	cf4d                	beqz	a4,104ad6 <__subtf3+0xd68>
  104a1e:	03010893          	addi	a7,sp,48
  104a22:	00261593          	slli	a1,a2,0x2
  104a26:	02f46533          	rem	a0,s0,a5
  104a2a:	40a78733          	sub	a4,a5,a0
  104a2e:	57f1                	li	a5,-4
  104a30:	02f607b3          	mul	a5,a2,a5
  104a34:	07b1                	addi	a5,a5,12
  104a36:	97c6                	add	a5,a5,a7
  104a38:	0af89e63          	bne	a7,a5,104af4 <__subtf3+0xd86>
  104a3c:	009c                	addi	a5,sp,64
  104a3e:	95be                	add	a1,a1,a5
  104a40:	57c2                	lw	a5,48(sp)
  104a42:	167d                	addi	a2,a2,-1
  104a44:	00a797b3          	sll	a5,a5,a0
  104a48:	fef5a823          	sw	a5,-16(a1)
  104a4c:	0605                	addi	a2,a2,1
  104a4e:	060a                	slli	a2,a2,0x2
  104a50:	4581                	li	a1,0
  104a52:	1808                	addi	a0,sp,48
  104a54:	862fd0ef          	jal	ra,101ab6 <memset>
  104a58:	14944c63          	blt	s0,s1,104bb0 <__subtf3+0xe42>
  104a5c:	8c05                	sub	s0,s0,s1
  104a5e:	0405                	addi	s0,s0,1
  104a60:	02000793          	li	a5,32
  104a64:	02f447b3          	div	a5,s0,a5
  104a68:	1810                	addi	a2,sp,48
  104a6a:	86b2                	mv	a3,a2
  104a6c:	4901                	li	s2,0
  104a6e:	4701                	li	a4,0
  104a70:	0af74163          	blt	a4,a5,104b12 <__subtf3+0xda4>
  104a74:	873e                	mv	a4,a5
  104a76:	0007d363          	bgez	a5,104a7c <__subtf3+0xd0e>
  104a7a:	4701                	li	a4,0
  104a7c:	01f47593          	andi	a1,s0,31
  104a80:	00279693          	slli	a3,a5,0x2
  104a84:	edc9                	bnez	a1,104b1e <__subtf3+0xdb0>
  104a86:	458d                	li	a1,3
  104a88:	4701                	li	a4,0
  104a8a:	8d9d                	sub	a1,a1,a5
  104a8c:	00d60533          	add	a0,a2,a3
  104a90:	4108                	lw	a0,0(a0)
  104a92:	0705                	addi	a4,a4,1
  104a94:	c208                	sw	a0,0(a2)
  104a96:	0611                	addi	a2,a2,4
  104a98:	fee5dae3          	bge	a1,a4,104a8c <__subtf3+0xd1e>
  104a9c:	4511                	li	a0,4
  104a9e:	40f507b3          	sub	a5,a0,a5
  104aa2:	a0c9                	j	104b64 <__subtf3+0xdf6>
  104aa4:	0115e5b3          	or	a1,a1,a7
  104aa8:	01e5e5b3          	or	a1,a1,t5
  104aac:	8ddd                	or	a1,a1,a5
  104aae:	d8058ae3          	beqz	a1,104842 <__subtf3+0xad4>
  104ab2:	bf89                	j	104a04 <__subtf3+0xc96>
  104ab4:	5562                	lw	a0,56(sp)
  104ab6:	c509                	beqz	a0,104ac0 <__subtf3+0xd52>
  104ab8:	2715                	jal	1051dc <__clzsi2>
  104aba:	02050513          	addi	a0,a0,32
  104abe:	b7b9                	j	104a0c <__subtf3+0xc9e>
  104ac0:	5552                	lw	a0,52(sp)
  104ac2:	c509                	beqz	a0,104acc <__subtf3+0xd5e>
  104ac4:	2f21                	jal	1051dc <__clzsi2>
  104ac6:	04050513          	addi	a0,a0,64
  104aca:	b789                	j	104a0c <__subtf3+0xc9e>
  104acc:	5542                	lw	a0,48(sp)
  104ace:	2739                	jal	1051dc <__clzsi2>
  104ad0:	06050513          	addi	a0,a0,96
  104ad4:	bf25                	j	104a0c <__subtf3+0xc9e>
  104ad6:	56f1                	li	a3,-4
  104ad8:	02d606b3          	mul	a3,a2,a3
  104adc:	187c                	addi	a5,sp,60
  104ade:	470d                	li	a4,3
  104ae0:	00d785b3          	add	a1,a5,a3
  104ae4:	418c                	lw	a1,0(a1)
  104ae6:	177d                	addi	a4,a4,-1
  104ae8:	17f1                	addi	a5,a5,-4
  104aea:	c3cc                	sw	a1,4(a5)
  104aec:	fec75ae3          	bge	a4,a2,104ae0 <__subtf3+0xd72>
  104af0:	167d                	addi	a2,a2,-1
  104af2:	bfa9                	j	104a4c <__subtf3+0xcde>
  104af4:	4394                	lw	a3,0(a5)
  104af6:	ffc7a803          	lw	a6,-4(a5)
  104afa:	00b78333          	add	t1,a5,a1
  104afe:	00a696b3          	sll	a3,a3,a0
  104b02:	00e85833          	srl	a6,a6,a4
  104b06:	0106e6b3          	or	a3,a3,a6
  104b0a:	00d32023          	sw	a3,0(t1)
  104b0e:	17f1                	addi	a5,a5,-4
  104b10:	b725                	j	104a38 <__subtf3+0xcca>
  104b12:	428c                	lw	a1,0(a3)
  104b14:	0705                	addi	a4,a4,1
  104b16:	0691                	addi	a3,a3,4
  104b18:	00b96933          	or	s2,s2,a1
  104b1c:	bf91                	j	104a70 <__subtf3+0xd02>
  104b1e:	02000613          	li	a2,32
  104b22:	02c46433          	rem	s0,s0,a2
  104b26:	5871                	li	a6,-4
  104b28:	070a                	slli	a4,a4,0x2
  104b2a:	008c                	addi	a1,sp,64
  104b2c:	972e                	add	a4,a4,a1
  104b2e:	ff072703          	lw	a4,-16(a4) # 7fff0 <tohost+0x5ffe8>
  104b32:	4501                	li	a0,0
  104b34:	03078833          	mul	a6,a5,a6
  104b38:	8e01                	sub	a2,a2,s0
  104b3a:	00c71733          	sll	a4,a4,a2
  104b3e:	00e96933          	or	s2,s2,a4
  104b42:	1818                	addi	a4,sp,48
  104b44:	96ba                	add	a3,a3,a4
  104b46:	470d                	li	a4,3
  104b48:	8f1d                	sub	a4,a4,a5
  104b4a:	04e54363          	blt	a0,a4,104b90 <__subtf3+0xe22>
  104b4e:	54f2                	lw	s1,60(sp)
  104b50:	070a                	slli	a4,a4,0x2
  104b52:	0094                	addi	a3,sp,64
  104b54:	4511                	li	a0,4
  104b56:	9736                	add	a4,a4,a3
  104b58:	0084d433          	srl	s0,s1,s0
  104b5c:	40f507b3          	sub	a5,a0,a5
  104b60:	fe872823          	sw	s0,-16(a4)
  104b64:	4711                	li	a4,4
  104b66:	4601                	li	a2,0
  104b68:	00f74563          	blt	a4,a5,104b72 <__subtf3+0xe04>
  104b6c:	8f1d                	sub	a4,a4,a5
  104b6e:	00271613          	slli	a2,a4,0x2
  104b72:	00279513          	slli	a0,a5,0x2
  104b76:	181c                	addi	a5,sp,48
  104b78:	953e                	add	a0,a0,a5
  104b7a:	4581                	li	a1,0
  104b7c:	f3bfc0ef          	jal	ra,101ab6 <memset>
  104b80:	5742                	lw	a4,48(sp)
  104b82:	012037b3          	snez	a5,s2
  104b86:	4481                	li	s1,0
  104b88:	8fd9                	or	a5,a5,a4
  104b8a:	d83e                	sw	a5,48(sp)
  104b8c:	b46ff06f          	j	103ed2 <__subtf3+0x164>
  104b90:	428c                	lw	a1,0(a3)
  104b92:	0046a883          	lw	a7,4(a3)
  104b96:	01068333          	add	t1,a3,a6
  104b9a:	0085d5b3          	srl	a1,a1,s0
  104b9e:	00c898b3          	sll	a7,a7,a2
  104ba2:	0115e5b3          	or	a1,a1,a7
  104ba6:	00b32023          	sw	a1,0(t1)
  104baa:	0505                	addi	a0,a0,1
  104bac:	0691                	addi	a3,a3,4
  104bae:	bf71                	j	104b4a <__subtf3+0xddc>
  104bb0:	57f2                	lw	a5,60(sp)
  104bb2:	fff80737          	lui	a4,0xfff80
  104bb6:	177d                	addi	a4,a4,-1
  104bb8:	8ff9                	and	a5,a5,a4
  104bba:	8c81                	sub	s1,s1,s0
  104bbc:	de3e                	sw	a5,60(sp)
  104bbe:	b14ff06f          	j	103ed2 <__subtf3+0x164>
  104bc2:	de02                	sw	zero,60(sp)
  104bc4:	dc02                	sw	zero,56(sp)
  104bc6:	da02                	sw	zero,52(sp)
  104bc8:	d802                	sw	zero,48(sp)
  104bca:	b5cff06f          	j	103f26 <__subtf3+0x1b8>

00104bce <__fixtfdi>:
  104bce:	4158                	lw	a4,4(a0)
  104bd0:	451c                	lw	a5,8(a0)
  104bd2:	4554                	lw	a3,12(a0)
  104bd4:	4110                	lw	a2,0(a0)
  104bd6:	7179                	addi	sp,sp,-48
  104bd8:	c23a                	sw	a4,4(sp)
  104bda:	c43e                	sw	a5,8(sp)
  104bdc:	ca3a                	sw	a4,20(sp)
  104bde:	cc3e                	sw	a5,24(sp)
  104be0:	6711                	lui	a4,0x4
  104be2:	00169793          	slli	a5,a3,0x1
  104be6:	c032                	sw	a2,0(sp)
  104be8:	c832                	sw	a2,16(sp)
  104bea:	d606                	sw	ra,44(sp)
  104bec:	0117d613          	srli	a2,a5,0x11
  104bf0:	d422                	sw	s0,40(sp)
  104bf2:	c636                	sw	a3,12(sp)
  104bf4:	ffe70793          	addi	a5,a4,-2 # 3ffe <_min_stack+0x1ffe>
  104bf8:	0ec7d263          	bge	a5,a2,104cdc <__fixtfdi+0x10e>
  104bfc:	03d70793          	addi	a5,a4,61
  104c00:	01f6d413          	srli	s0,a3,0x1f
  104c04:	02c7d263          	bge	a5,a2,104c28 <__fixtfdi+0x5a>
  104c08:	4505                	li	a0,1
  104c0a:	8d01                	sub	a0,a0,s0
  104c0c:	41f55713          	srai	a4,a0,0x1f
  104c10:	800005b7          	lui	a1,0x80000
  104c14:	00a037b3          	snez	a5,a0
  104c18:	8d99                	sub	a1,a1,a4
  104c1a:	40a00533          	neg	a0,a0
  104c1e:	8d9d                	sub	a1,a1,a5
  104c20:	50b2                	lw	ra,44(sp)
  104c22:	5422                	lw	s0,40(sp)
  104c24:	6145                	addi	sp,sp,48
  104c26:	8082                	ret
  104c28:	06c2                	slli	a3,a3,0x10
  104c2a:	67c1                	lui	a5,0x10
  104c2c:	82c1                	srli	a3,a3,0x10
  104c2e:	8edd                	or	a3,a3,a5
  104c30:	06f70793          	addi	a5,a4,111
  104c34:	8f91                	sub	a5,a5,a2
  104c36:	4057d513          	srai	a0,a5,0x5
  104c3a:	ce36                	sw	a3,28(sp)
  104c3c:	8bfd                	andi	a5,a5,31
  104c3e:	00251613          	slli	a2,a0,0x2
  104c42:	cb95                	beqz	a5,104c76 <__fixtfdi+0xa8>
  104c44:	5371                	li	t1,-4
  104c46:	02650333          	mul	t1,a0,t1
  104c4a:	0818                	addi	a4,sp,16
  104c4c:	02000893          	li	a7,32
  104c50:	963a                	add	a2,a2,a4
  104c52:	470d                	li	a4,3
  104c54:	40f888b3          	sub	a7,a7,a5
  104c58:	4801                	li	a6,0
  104c5a:	8f09                	sub	a4,a4,a0
  104c5c:	06e84063          	blt	a6,a4,104cbc <__fixtfdi+0xee>
  104c60:	4611                	li	a2,4
  104c62:	40a60533          	sub	a0,a2,a0
  104c66:	070a                	slli	a4,a4,0x2
  104c68:	1010                	addi	a2,sp,32
  104c6a:	9732                	add	a4,a4,a2
  104c6c:	00f6d6b3          	srl	a3,a3,a5
  104c70:	fed72823          	sw	a3,-16(a4)
  104c74:	a005                	j	104c94 <__fixtfdi+0xc6>
  104c76:	468d                	li	a3,3
  104c78:	081c                	addi	a5,sp,16
  104c7a:	4701                	li	a4,0
  104c7c:	8e89                	sub	a3,a3,a0
  104c7e:	00c785b3          	add	a1,a5,a2
  104c82:	418c                	lw	a1,0(a1)
  104c84:	0705                	addi	a4,a4,1
  104c86:	c38c                	sw	a1,0(a5)
  104c88:	0791                	addi	a5,a5,4
  104c8a:	fee6dae3          	bge	a3,a4,104c7e <__fixtfdi+0xb0>
  104c8e:	4791                	li	a5,4
  104c90:	40a78533          	sub	a0,a5,a0
  104c94:	4611                	li	a2,4
  104c96:	8e09                	sub	a2,a2,a0
  104c98:	081c                	addi	a5,sp,16
  104c9a:	050a                	slli	a0,a0,0x2
  104c9c:	4581                	li	a1,0
  104c9e:	060a                	slli	a2,a2,0x2
  104ca0:	953e                	add	a0,a0,a5
  104ca2:	e15fc0ef          	jal	ra,101ab6 <memset>
  104ca6:	4542                	lw	a0,16(sp)
  104ca8:	45d2                	lw	a1,20(sp)
  104caa:	d83d                	beqz	s0,104c20 <__fixtfdi+0x52>
  104cac:	00a037b3          	snez	a5,a0
  104cb0:	40b005b3          	neg	a1,a1
  104cb4:	8d9d                	sub	a1,a1,a5
  104cb6:	40a00533          	neg	a0,a0
  104cba:	b79d                	j	104c20 <__fixtfdi+0x52>
  104cbc:	420c                	lw	a1,0(a2)
  104cbe:	00462e03          	lw	t3,4(a2)
  104cc2:	00660eb3          	add	t4,a2,t1
  104cc6:	00f5d5b3          	srl	a1,a1,a5
  104cca:	011e1e33          	sll	t3,t3,a7
  104cce:	01c5e5b3          	or	a1,a1,t3
  104cd2:	00bea023          	sw	a1,0(t4)
  104cd6:	0805                	addi	a6,a6,1
  104cd8:	0611                	addi	a2,a2,4
  104cda:	b749                	j	104c5c <__fixtfdi+0x8e>
  104cdc:	4501                	li	a0,0
  104cde:	4581                	li	a1,0
  104ce0:	b781                	j	104c20 <__fixtfdi+0x52>

00104ce2 <__floatditf>:
  104ce2:	7139                	addi	sp,sp,-64
  104ce4:	d64e                	sw	s3,44(sp)
  104ce6:	de06                	sw	ra,60(sp)
  104ce8:	dc22                	sw	s0,56(sp)
  104cea:	da26                	sw	s1,52(sp)
  104cec:	d84a                	sw	s2,48(sp)
  104cee:	d452                	sw	s4,40(sp)
  104cf0:	00c5e7b3          	or	a5,a1,a2
  104cf4:	89aa                	mv	s3,a0
  104cf6:	0e078c63          	beqz	a5,104dee <__floatditf+0x10c>
  104cfa:	84ae                	mv	s1,a1
  104cfc:	8432                	mv	s0,a2
  104cfe:	01f65913          	srli	s2,a2,0x1f
  104d02:	00065963          	bgez	a2,104d14 <__floatditf+0x32>
  104d06:	00b03633          	snez	a2,a1
  104d0a:	40800433          	neg	s0,s0
  104d0e:	8c11                	sub	s0,s0,a2
  104d10:	40b004b3          	neg	s1,a1
  104d14:	c821                	beqz	s0,104d64 <__floatditf+0x82>
  104d16:	8522                	mv	a0,s0
  104d18:	21d1                	jal	1051dc <__clzsi2>
  104d1a:	03150793          	addi	a5,a0,49
  104d1e:	6a11                	lui	s4,0x4
  104d20:	03ea0a13          	addi	s4,s4,62 # 403e <_min_stack+0x203e>
  104d24:	4057d613          	srai	a2,a5,0x5
  104d28:	c826                	sw	s1,16(sp)
  104d2a:	ca22                	sw	s0,20(sp)
  104d2c:	cc02                	sw	zero,24(sp)
  104d2e:	ce02                	sw	zero,28(sp)
  104d30:	8bfd                	andi	a5,a5,31
  104d32:	40aa0a33          	sub	s4,s4,a0
  104d36:	cf85                	beqz	a5,104d6e <__floatditf+0x8c>
  104d38:	5771                	li	a4,-4
  104d3a:	02e60733          	mul	a4,a2,a4
  104d3e:	02000513          	li	a0,32
  104d42:	01010893          	addi	a7,sp,16
  104d46:	8d1d                	sub	a0,a0,a5
  104d48:	00261593          	slli	a1,a2,0x2
  104d4c:	0731                	addi	a4,a4,12
  104d4e:	9746                	add	a4,a4,a7
  104d50:	08e89063          	bne	a7,a4,104dd0 <__floatditf+0xee>
  104d54:	1018                	addi	a4,sp,32
  104d56:	95ba                	add	a1,a1,a4
  104d58:	00f497b3          	sll	a5,s1,a5
  104d5c:	167d                	addi	a2,a2,-1
  104d5e:	fef5a823          	sw	a5,-16(a1) # 7ffffff0 <fromhost+0x7fec7fe0>
  104d62:	a025                	j	104d8a <__floatditf+0xa8>
  104d64:	8526                	mv	a0,s1
  104d66:	299d                	jal	1051dc <__clzsi2>
  104d68:	02050513          	addi	a0,a0,32
  104d6c:	b77d                	j	104d1a <__floatditf+0x38>
  104d6e:	56f1                	li	a3,-4
  104d70:	02d606b3          	mul	a3,a2,a3
  104d74:	087c                	addi	a5,sp,28
  104d76:	470d                	li	a4,3
  104d78:	00d785b3          	add	a1,a5,a3
  104d7c:	418c                	lw	a1,0(a1)
  104d7e:	177d                	addi	a4,a4,-1
  104d80:	17f1                	addi	a5,a5,-4
  104d82:	c3cc                	sw	a1,4(a5)
  104d84:	fec75ae3          	bge	a4,a2,104d78 <__floatditf+0x96>
  104d88:	167d                	addi	a2,a2,-1
  104d8a:	0605                	addi	a2,a2,1
  104d8c:	060a                	slli	a2,a2,0x2
  104d8e:	4581                	li	a1,0
  104d90:	0808                	addi	a0,sp,16
  104d92:	d25fc0ef          	jal	ra,101ab6 <memset>
  104d96:	47f2                	lw	a5,28(sp)
  104d98:	093e                	slli	s2,s2,0xf
  104d9a:	01496933          	or	s2,s2,s4
  104d9e:	01211723          	sh	s2,14(sp)
  104da2:	00f11623          	sh	a5,12(sp)
  104da6:	4642                	lw	a2,16(sp)
  104da8:	46d2                	lw	a3,20(sp)
  104daa:	4762                	lw	a4,24(sp)
  104dac:	47b2                	lw	a5,12(sp)
  104dae:	50f2                	lw	ra,60(sp)
  104db0:	5462                	lw	s0,56(sp)
  104db2:	00c9a023          	sw	a2,0(s3)
  104db6:	00d9a223          	sw	a3,4(s3)
  104dba:	00e9a423          	sw	a4,8(s3)
  104dbe:	00f9a623          	sw	a5,12(s3)
  104dc2:	54d2                	lw	s1,52(sp)
  104dc4:	5942                	lw	s2,48(sp)
  104dc6:	5a22                	lw	s4,40(sp)
  104dc8:	854e                	mv	a0,s3
  104dca:	59b2                	lw	s3,44(sp)
  104dcc:	6121                	addi	sp,sp,64
  104dce:	8082                	ret
  104dd0:	4314                	lw	a3,0(a4)
  104dd2:	ffc72803          	lw	a6,-4(a4)
  104dd6:	00b70333          	add	t1,a4,a1
  104dda:	00f696b3          	sll	a3,a3,a5
  104dde:	00a85833          	srl	a6,a6,a0
  104de2:	0106e6b3          	or	a3,a3,a6
  104de6:	00d32023          	sw	a3,0(t1)
  104dea:	1771                	addi	a4,a4,-4
  104dec:	b795                	j	104d50 <__floatditf+0x6e>
  104dee:	ce02                	sw	zero,28(sp)
  104df0:	cc02                	sw	zero,24(sp)
  104df2:	ca02                	sw	zero,20(sp)
  104df4:	c802                	sw	zero,16(sp)
  104df6:	4a01                	li	s4,0
  104df8:	4901                	li	s2,0
  104dfa:	bf71                	j	104d96 <__floatditf+0xb4>

00104dfc <__extenddftf2>:
  104dfc:	01465793          	srli	a5,a2,0x14
  104e00:	00c61713          	slli	a4,a2,0xc
  104e04:	7ff7f793          	andi	a5,a5,2047
  104e08:	7139                	addi	sp,sp,-64
  104e0a:	8331                	srli	a4,a4,0xc
  104e0c:	00178693          	addi	a3,a5,1 # 10001 <_stack_len+0x8001>
  104e10:	dc22                	sw	s0,56(sp)
  104e12:	da26                	sw	s1,52(sp)
  104e14:	d84a                	sw	s2,48(sp)
  104e16:	de06                	sw	ra,60(sp)
  104e18:	d64e                	sw	s3,44(sp)
  104e1a:	c82e                	sw	a1,16(sp)
  104e1c:	ca3a                	sw	a4,20(sp)
  104e1e:	ce02                	sw	zero,28(sp)
  104e20:	cc02                	sw	zero,24(sp)
  104e22:	7fe6f693          	andi	a3,a3,2046
  104e26:	892a                	mv	s2,a0
  104e28:	842e                	mv	s0,a1
  104e2a:	01f65493          	srli	s1,a2,0x1f
  104e2e:	cea1                	beqz	a3,104e86 <__extenddftf2+0x8a>
  104e30:	6691                	lui	a3,0x4
  104e32:	c0068693          	addi	a3,a3,-1024 # 3c00 <_min_stack+0x1c00>
  104e36:	97b6                	add	a5,a5,a3
  104e38:	0045d513          	srli	a0,a1,0x4
  104e3c:	00475693          	srli	a3,a4,0x4
  104e40:	0772                	slli	a4,a4,0x1c
  104e42:	8f49                	or	a4,a4,a0
  104e44:	01c59413          	slli	s0,a1,0x1c
  104e48:	ce36                	sw	a3,28(sp)
  104e4a:	cc3a                	sw	a4,24(sp)
  104e4c:	ca22                	sw	s0,20(sp)
  104e4e:	c802                	sw	zero,16(sp)
  104e50:	45f2                	lw	a1,28(sp)
  104e52:	04be                	slli	s1,s1,0xf
  104e54:	8fc5                	or	a5,a5,s1
  104e56:	00b11623          	sh	a1,12(sp)
  104e5a:	00f11723          	sh	a5,14(sp)
  104e5e:	4642                	lw	a2,16(sp)
  104e60:	46d2                	lw	a3,20(sp)
  104e62:	4762                	lw	a4,24(sp)
  104e64:	47b2                	lw	a5,12(sp)
  104e66:	50f2                	lw	ra,60(sp)
  104e68:	5462                	lw	s0,56(sp)
  104e6a:	00c92023          	sw	a2,0(s2) # 800000 <fromhost+0x6c7ff0>
  104e6e:	00d92223          	sw	a3,4(s2)
  104e72:	00e92423          	sw	a4,8(s2)
  104e76:	00f92623          	sw	a5,12(s2)
  104e7a:	54d2                	lw	s1,52(sp)
  104e7c:	59b2                	lw	s3,44(sp)
  104e7e:	854a                	mv	a0,s2
  104e80:	5942                	lw	s2,48(sp)
  104e82:	6121                	addi	sp,sp,64
  104e84:	8082                	ret
  104e86:	00b76533          	or	a0,a4,a1
  104e8a:	efd9                	bnez	a5,104f28 <__extenddftf2+0x12c>
  104e8c:	d171                	beqz	a0,104e50 <__extenddftf2+0x54>
  104e8e:	c321                	beqz	a4,104ece <__extenddftf2+0xd2>
  104e90:	853a                	mv	a0,a4
  104e92:	26a9                	jal	1051dc <__clzsi2>
  104e94:	89aa                	mv	s3,a0
  104e96:	03198593          	addi	a1,s3,49
  104e9a:	4055d613          	srai	a2,a1,0x5
  104e9e:	89fd                	andi	a1,a1,31
  104ea0:	c99d                	beqz	a1,104ed6 <__extenddftf2+0xda>
  104ea2:	5771                	li	a4,-4
  104ea4:	02e60733          	mul	a4,a2,a4
  104ea8:	02000513          	li	a0,32
  104eac:	01010893          	addi	a7,sp,16
  104eb0:	8d0d                	sub	a0,a0,a1
  104eb2:	00261693          	slli	a3,a2,0x2
  104eb6:	0731                	addi	a4,a4,12
  104eb8:	9746                	add	a4,a4,a7
  104eba:	04e89863          	bne	a7,a4,104f0a <__extenddftf2+0x10e>
  104ebe:	101c                	addi	a5,sp,32
  104ec0:	96be                	add	a3,a3,a5
  104ec2:	00b415b3          	sll	a1,s0,a1
  104ec6:	167d                	addi	a2,a2,-1
  104ec8:	feb6a823          	sw	a1,-16(a3)
  104ecc:	a01d                	j	104ef2 <__extenddftf2+0xf6>
  104ece:	2639                	jal	1051dc <__clzsi2>
  104ed0:	02050993          	addi	s3,a0,32
  104ed4:	b7c9                	j	104e96 <__extenddftf2+0x9a>
  104ed6:	56f1                	li	a3,-4
  104ed8:	02d606b3          	mul	a3,a2,a3
  104edc:	087c                	addi	a5,sp,28
  104ede:	470d                	li	a4,3
  104ee0:	00d785b3          	add	a1,a5,a3
  104ee4:	418c                	lw	a1,0(a1)
  104ee6:	177d                	addi	a4,a4,-1
  104ee8:	17f1                	addi	a5,a5,-4
  104eea:	c3cc                	sw	a1,4(a5)
  104eec:	fec75ae3          	bge	a4,a2,104ee0 <__extenddftf2+0xe4>
  104ef0:	167d                	addi	a2,a2,-1
  104ef2:	0605                	addi	a2,a2,1
  104ef4:	060a                	slli	a2,a2,0x2
  104ef6:	4581                	li	a1,0
  104ef8:	0808                	addi	a0,sp,16
  104efa:	bbdfc0ef          	jal	ra,101ab6 <memset>
  104efe:	6791                	lui	a5,0x4
  104f00:	c0c78793          	addi	a5,a5,-1012 # 3c0c <_min_stack+0x1c0c>
  104f04:	413787b3          	sub	a5,a5,s3
  104f08:	b7a1                	j	104e50 <__extenddftf2+0x54>
  104f0a:	431c                	lw	a5,0(a4)
  104f0c:	ffc72803          	lw	a6,-4(a4)
  104f10:	00d70333          	add	t1,a4,a3
  104f14:	00b797b3          	sll	a5,a5,a1
  104f18:	00a85833          	srl	a6,a6,a0
  104f1c:	0107e7b3          	or	a5,a5,a6
  104f20:	00f32023          	sw	a5,0(t1)
  104f24:	1771                	addi	a4,a4,-4
  104f26:	bf51                	j	104eba <__extenddftf2+0xbe>
  104f28:	67a1                	lui	a5,0x8
  104f2a:	cd19                	beqz	a0,104f48 <__extenddftf2+0x14c>
  104f2c:	01c71793          	slli	a5,a4,0x1c
  104f30:	0045d693          	srli	a3,a1,0x4
  104f34:	8fd5                	or	a5,a5,a3
  104f36:	cc3e                	sw	a5,24(sp)
  104f38:	8311                	srli	a4,a4,0x4
  104f3a:	67a1                	lui	a5,0x8
  104f3c:	01c59413          	slli	s0,a1,0x1c
  104f40:	8f5d                	or	a4,a4,a5
  104f42:	ca22                	sw	s0,20(sp)
  104f44:	c802                	sw	zero,16(sp)
  104f46:	ce3a                	sw	a4,28(sp)
  104f48:	17fd                	addi	a5,a5,-1
  104f4a:	b719                	j	104e50 <__extenddftf2+0x54>

00104f4c <__trunctfdf2>:
  104f4c:	7179                	addi	sp,sp,-48
  104f4e:	451c                	lw	a5,8(a0)
  104f50:	d422                	sw	s0,40(sp)
  104f52:	4540                	lw	s0,12(a0)
  104f54:	4158                	lw	a4,4(a0)
  104f56:	4114                	lw	a3,0(a0)
  104f58:	c43e                	sw	a5,8(sp)
  104f5a:	cc3e                	sw	a5,24(sp)
  104f5c:	01041793          	slli	a5,s0,0x10
  104f60:	c23a                	sw	a4,4(sp)
  104f62:	ca3a                	sw	a4,20(sp)
  104f64:	83c1                	srli	a5,a5,0x10
  104f66:	00141713          	slli	a4,s0,0x1
  104f6a:	c622                	sw	s0,12(sp)
  104f6c:	d606                	sw	ra,44(sp)
  104f6e:	d226                	sw	s1,36(sp)
  104f70:	c036                	sw	a3,0(sp)
  104f72:	c836                	sw	a3,16(sp)
  104f74:	ce3e                	sw	a5,28(sp)
  104f76:	8345                	srli	a4,a4,0x11
  104f78:	807d                	srli	s0,s0,0x1f
  104f7a:	0808                	addi	a0,sp,16
  104f7c:	0870                	addi	a2,sp,28
  104f7e:	421c                	lw	a5,0(a2)
  104f80:	ffc62683          	lw	a3,-4(a2)
  104f84:	1671                	addi	a2,a2,-4
  104f86:	078e                	slli	a5,a5,0x3
  104f88:	82f5                	srli	a3,a3,0x1d
  104f8a:	8fd5                	or	a5,a5,a3
  104f8c:	c25c                	sw	a5,4(a2)
  104f8e:	fec518e3          	bne	a0,a2,104f7e <__trunctfdf2+0x32>
  104f92:	46c2                	lw	a3,16(sp)
  104f94:	00170793          	addi	a5,a4,1
  104f98:	00369593          	slli	a1,a3,0x3
  104f9c:	66a1                	lui	a3,0x8
  104f9e:	16f9                	addi	a3,a3,-2
  104fa0:	c82e                	sw	a1,16(sp)
  104fa2:	8ff5                	and	a5,a5,a3
  104fa4:	12078f63          	beqz	a5,1050e2 <__trunctfdf2+0x196>
  104fa8:	77f1                	lui	a5,0xffffc
  104faa:	40078793          	addi	a5,a5,1024 # ffffc400 <fromhost+0xffec43f0>
  104fae:	973e                	add	a4,a4,a5
  104fb0:	7fe00793          	li	a5,2046
  104fb4:	16e7c363          	blt	a5,a4,10511a <__trunctfdf2+0x1ce>
  104fb8:	04e05663          	blez	a4,105004 <__trunctfdf2+0xb8>
  104fbc:	4562                	lw	a0,24(sp)
  104fbe:	4672                	lw	a2,28(sp)
  104fc0:	47d2                	lw	a5,20(sp)
  104fc2:	01c55693          	srli	a3,a0,0x1c
  104fc6:	0612                	slli	a2,a2,0x4
  104fc8:	8e55                	or	a2,a2,a3
  104fca:	00479693          	slli	a3,a5,0x4
  104fce:	8ecd                	or	a3,a3,a1
  104fd0:	83f1                	srli	a5,a5,0x1c
  104fd2:	0512                	slli	a0,a0,0x4
  104fd4:	00d036b3          	snez	a3,a3
  104fd8:	8fc9                	or	a5,a5,a0
  104fda:	8edd                	or	a3,a3,a5
  104fdc:	ca32                	sw	a2,20(sp)
  104fde:	c836                	sw	a3,16(sp)
  104fe0:	46c2                	lw	a3,16(sp)
  104fe2:	47d2                	lw	a5,20(sp)
  104fe4:	0076f613          	andi	a2,a3,7
  104fe8:	12060d63          	beqz	a2,105122 <__trunctfdf2+0x1d6>
  104fec:	00f6f613          	andi	a2,a3,15
  104ff0:	4591                	li	a1,4
  104ff2:	12b60863          	beq	a2,a1,105122 <__trunctfdf2+0x1d6>
  104ff6:	00468613          	addi	a2,a3,4 # 8004 <_stack_len+0x4>
  104ffa:	00d636b3          	sltu	a3,a2,a3
  104ffe:	97b6                	add	a5,a5,a3
  105000:	86b2                	mv	a3,a2
  105002:	a205                	j	105122 <__trunctfdf2+0x1d6>
  105004:	fcc00793          	li	a5,-52
  105008:	00f75763          	bge	a4,a5,105016 <__trunctfdf2+0xca>
  10500c:	ca02                	sw	zero,20(sp)
  10500e:	4785                	li	a5,1
  105010:	c83e                	sw	a5,16(sp)
  105012:	4701                	li	a4,0
  105014:	b7f1                	j	104fe0 <__trunctfdf2+0x94>
  105016:	47f2                	lw	a5,28(sp)
  105018:	000808b7          	lui	a7,0x80
  10501c:	85aa                	mv	a1,a0
  10501e:	00f8e8b3          	or	a7,a7,a5
  105022:	03d00793          	li	a5,61
  105026:	40e78733          	sub	a4,a5,a4
  10502a:	ce46                	sw	a7,28(sp)
  10502c:	40575793          	srai	a5,a4,0x5
  105030:	4681                	li	a3,0
  105032:	4481                	li	s1,0
  105034:	0005a803          	lw	a6,0(a1)
  105038:	0685                	addi	a3,a3,1
  10503a:	0591                	addi	a1,a1,4
  10503c:	0104e4b3          	or	s1,s1,a6
  105040:	fed79ae3          	bne	a5,a3,105034 <__trunctfdf2+0xe8>
  105044:	8b7d                	andi	a4,a4,31
  105046:	00279693          	slli	a3,a5,0x2
  10504a:	e30d                	bnez	a4,10506c <__trunctfdf2+0x120>
  10504c:	458d                	li	a1,3
  10504e:	8d9d                	sub	a1,a1,a5
  105050:	00d60833          	add	a6,a2,a3
  105054:	00082803          	lw	a6,0(a6)
  105058:	0705                	addi	a4,a4,1
  10505a:	01062023          	sw	a6,0(a2)
  10505e:	0611                	addi	a2,a2,4
  105060:	fee5d8e3          	bge	a1,a4,105050 <__trunctfdf2+0x104>
  105064:	4711                	li	a4,4
  105066:	40f707b3          	sub	a5,a4,a5
  10506a:	a83d                	j	1050a8 <__trunctfdf2+0x15c>
  10506c:	5e71                	li	t3,-4
  10506e:	03c78e33          	mul	t3,a5,t3
  105072:	1010                	addi	a2,sp,32
  105074:	9636                	add	a2,a2,a3
  105076:	ff062603          	lw	a2,-16(a2)
  10507a:	02000813          	li	a6,32
  10507e:	40e80833          	sub	a6,a6,a4
  105082:	01061633          	sll	a2,a2,a6
  105086:	8cd1                	or	s1,s1,a2
  105088:	460d                	li	a2,3
  10508a:	96aa                	add	a3,a3,a0
  10508c:	4301                	li	t1,0
  10508e:	8e1d                	sub	a2,a2,a5
  105090:	02c34963          	blt	t1,a2,1050c2 <__trunctfdf2+0x176>
  105094:	4691                	li	a3,4
  105096:	40f687b3          	sub	a5,a3,a5
  10509a:	060a                	slli	a2,a2,0x2
  10509c:	1014                	addi	a3,sp,32
  10509e:	9636                	add	a2,a2,a3
  1050a0:	00e8d733          	srl	a4,a7,a4
  1050a4:	fee62823          	sw	a4,-16(a2)
  1050a8:	4611                	li	a2,4
  1050aa:	8e1d                	sub	a2,a2,a5
  1050ac:	078a                	slli	a5,a5,0x2
  1050ae:	953e                	add	a0,a0,a5
  1050b0:	060a                	slli	a2,a2,0x2
  1050b2:	4581                	li	a1,0
  1050b4:	a03fc0ef          	jal	ra,101ab6 <memset>
  1050b8:	4742                	lw	a4,16(sp)
  1050ba:	009037b3          	snez	a5,s1
  1050be:	8fd9                	or	a5,a5,a4
  1050c0:	bf81                	j	105010 <__trunctfdf2+0xc4>
  1050c2:	428c                	lw	a1,0(a3)
  1050c4:	0046ae83          	lw	t4,4(a3)
  1050c8:	01c68f33          	add	t5,a3,t3
  1050cc:	00e5d5b3          	srl	a1,a1,a4
  1050d0:	010e9eb3          	sll	t4,t4,a6
  1050d4:	01d5e5b3          	or	a1,a1,t4
  1050d8:	00bf2023          	sw	a1,0(t5)
  1050dc:	0305                	addi	t1,t1,1
  1050de:	0691                	addi	a3,a3,4
  1050e0:	bf45                	j	105090 <__trunctfdf2+0x144>
  1050e2:	4652                	lw	a2,20(sp)
  1050e4:	47e2                	lw	a5,24(sp)
  1050e6:	4572                	lw	a0,28(sp)
  1050e8:	00f666b3          	or	a3,a2,a5
  1050ec:	8ec9                	or	a3,a3,a0
  1050ee:	8ecd                	or	a3,a3,a1
  1050f0:	e709                	bnez	a4,1050fa <__trunctfdf2+0x1ae>
  1050f2:	00d036b3          	snez	a3,a3
  1050f6:	4781                	li	a5,0
  1050f8:	b5f5                	j	104fe4 <__trunctfdf2+0x98>
  1050fa:	c2d1                	beqz	a3,10517e <__trunctfdf2+0x232>
  1050fc:	01c65693          	srli	a3,a2,0x1c
  105100:	0512                	slli	a0,a0,0x4
  105102:	00479613          	slli	a2,a5,0x4
  105106:	83f1                	srli	a5,a5,0x1c
  105108:	00400737          	lui	a4,0x400
  10510c:	8ed1                	or	a3,a3,a2
  10510e:	8fc9                	or	a5,a5,a0
  105110:	8fd9                	or	a5,a5,a4
  105112:	9ae1                	andi	a3,a3,-8
  105114:	7ff00713          	li	a4,2047
  105118:	b5f1                	j	104fe4 <__trunctfdf2+0x98>
  10511a:	4781                	li	a5,0
  10511c:	4681                	li	a3,0
  10511e:	7ff00713          	li	a4,2047
  105122:	00800637          	lui	a2,0x800
  105126:	8e7d                	and	a2,a2,a5
  105128:	ca11                	beqz	a2,10513c <__trunctfdf2+0x1f0>
  10512a:	0705                	addi	a4,a4,1
  10512c:	7ff00613          	li	a2,2047
  105130:	04c70963          	beq	a4,a2,105182 <__trunctfdf2+0x236>
  105134:	ff800637          	lui	a2,0xff800
  105138:	167d                	addi	a2,a2,-1
  10513a:	8ff1                	and	a5,a5,a2
  10513c:	01d79613          	slli	a2,a5,0x1d
  105140:	828d                	srli	a3,a3,0x3
  105142:	8ed1                	or	a3,a3,a2
  105144:	7ff00613          	li	a2,2047
  105148:	838d                	srli	a5,a5,0x3
  10514a:	00c71963          	bne	a4,a2,10515c <__trunctfdf2+0x210>
  10514e:	8edd                	or	a3,a3,a5
  105150:	4781                	li	a5,0
  105152:	c689                	beqz	a3,10515c <__trunctfdf2+0x210>
  105154:	000807b7          	lui	a5,0x80
  105158:	4681                	li	a3,0
  10515a:	4401                	li	s0,0
  10515c:	0752                	slli	a4,a4,0x14
  10515e:	7ff00637          	lui	a2,0x7ff00
  105162:	07b2                	slli	a5,a5,0xc
  105164:	8f71                	and	a4,a4,a2
  105166:	83b1                	srli	a5,a5,0xc
  105168:	047e                	slli	s0,s0,0x1f
  10516a:	8fd9                	or	a5,a5,a4
  10516c:	50b2                	lw	ra,44(sp)
  10516e:	0087e733          	or	a4,a5,s0
  105172:	5422                	lw	s0,40(sp)
  105174:	5492                	lw	s1,36(sp)
  105176:	8536                	mv	a0,a3
  105178:	85ba                	mv	a1,a4
  10517a:	6145                	addi	sp,sp,48
  10517c:	8082                	ret
  10517e:	4781                	li	a5,0
  105180:	bf79                	j	10511e <__trunctfdf2+0x1d2>
  105182:	4781                	li	a5,0
  105184:	4681                	li	a3,0
  105186:	bf5d                	j	10513c <__trunctfdf2+0x1f0>

00105188 <__lshrdi3>:
  105188:	ce01                	beqz	a2,1051a0 <__lshrdi3+0x18>
  10518a:	02000793          	li	a5,32
  10518e:	8f91                	sub	a5,a5,a2
  105190:	00f04963          	bgtz	a5,1051a2 <__lshrdi3+0x1a>
  105194:	fe060513          	addi	a0,a2,-32 # 7fefffe0 <fromhost+0x7fdc7fd0>
  105198:	4701                	li	a4,0
  10519a:	00a5d533          	srl	a0,a1,a0
  10519e:	85ba                	mv	a1,a4
  1051a0:	8082                	ret
  1051a2:	00c5d733          	srl	a4,a1,a2
  1051a6:	00c55533          	srl	a0,a0,a2
  1051aa:	00f595b3          	sll	a1,a1,a5
  1051ae:	8d4d                	or	a0,a0,a1
  1051b0:	b7fd                	j	10519e <__lshrdi3+0x16>

001051b2 <__ashldi3>:
  1051b2:	ce01                	beqz	a2,1051ca <__ashldi3+0x18>
  1051b4:	02000793          	li	a5,32
  1051b8:	8f91                	sub	a5,a5,a2
  1051ba:	00f04963          	bgtz	a5,1051cc <__ashldi3+0x1a>
  1051be:	fe060593          	addi	a1,a2,-32
  1051c2:	4701                	li	a4,0
  1051c4:	00b515b3          	sll	a1,a0,a1
  1051c8:	853a                	mv	a0,a4
  1051ca:	8082                	ret
  1051cc:	00c51733          	sll	a4,a0,a2
  1051d0:	00c595b3          	sll	a1,a1,a2
  1051d4:	00f55533          	srl	a0,a0,a5
  1051d8:	8dc9                	or	a1,a1,a0
  1051da:	b7fd                	j	1051c8 <__ashldi3+0x16>

001051dc <__clzsi2>:
  1051dc:	67c1                	lui	a5,0x10
  1051de:	02f57663          	bgeu	a0,a5,10520a <__clzsi2+0x2e>
  1051e2:	0ff00793          	li	a5,255
  1051e6:	00a7b7b3          	sltu	a5,a5,a0
  1051ea:	078e                	slli	a5,a5,0x3
  1051ec:	00105737          	lui	a4,0x105
  1051f0:	02000693          	li	a3,32
  1051f4:	8e9d                	sub	a3,a3,a5
  1051f6:	00f55533          	srl	a0,a0,a5
  1051fa:	4b070793          	addi	a5,a4,1200 # 1054b0 <__clz_tab>
  1051fe:	953e                	add	a0,a0,a5
  105200:	00054503          	lbu	a0,0(a0)
  105204:	40a68533          	sub	a0,a3,a0
  105208:	8082                	ret
  10520a:	01000737          	lui	a4,0x1000
  10520e:	47c1                	li	a5,16
  105210:	fce56ee3          	bltu	a0,a4,1051ec <__clzsi2+0x10>
  105214:	47e1                	li	a5,24
  105216:	bfd9                	j	1051ec <__clzsi2+0x10>

00105218 <main>:
  105218:	1141                	addi	sp,sp,-16
  10521a:	c226                	sw	s1,4(sp)
  10521c:	001054b7          	lui	s1,0x105
  105220:	7304a783          	lw	a5,1840(s1) # 105730 <pbar>
  105224:	c422                	sw	s0,8(sp)

00105226 <.SnowflakeIoT$10002$luihi$foo>:
  105226:	00100437          	lui	s0,0x100
  10522a:	c606                	sw	ra,12(sp)

0010522c <.SnowflakeIoT$10003$addilo$foo>:    100268   10010c   548 652
  10522c:	10c40513          	addi	a0,s0,268 # 10010c <foo>  
  105230:	9782                	jalr	a5
  105232:	7304a783          	lw	a5,1840(s1)

00105236 <.SnowflakeIoT$10004$addilo$foo>:
  105236:	10c40513          	addi	a0,s0,268
  10523a:	9782                	jalr	a5
  10523c:	7304a783          	lw	a5,1840(s1)

00105240 <.SnowflakeIoT$10005$addilo$foo>:
  105240:	10c40513          	addi	a0,s0,268
  105244:	9782                	jalr	a5
  105246:	001057b7          	lui	a5,0x105
  10524a:	7347a583          	lw	a1,1844(a5) # 105734 <aglobal>
  10524e:	00105537          	lui	a0,0x105
  105252:	5b050513          	addi	a0,a0,1456 # 1055b0 <__clz_tab+0x100>
  105256:	b4afb0ef          	jal	ra,1005a0 <libmin_printf>
  10525a:	e62fc0ef          	jal	ra,1018bc <libmin_success>
  10525e:	40b2                	lw	ra,12(sp)
  105260:	4422                	lw	s0,8(sp)
  105262:	4492                	lw	s1,4(sp)
  105264:	4501                	li	a0,0
  105266:	0141                	addi	sp,sp,16
  105268:	8082                	ret
