
./qsort_enc_full.elf:     file format elf32-littleriscv


Disassembly of section .text:

00100084 <(null)-0x67bc>:
  100084:	e7f0063b          	0xe7f0063b
  100088:	e810060b          	0xe810060b
  10008c:	d1d026e7          	0xd1d026e7
  100090:	2256                	fld	ft4,336(sp)
  100092:	22de                	fld	ft5,464(sp)
  100094:	2146                	fld	ft2,80(sp)
  100096:	21ce                	fld	ft3,208(sp)
  100098:	2076                	fld	ft0,344(sp)
  10009a:	20fe                	fld	ft1,472(sp)
  10009c:	2766                	fld	fa4,88(sp)
  10009e:	27ee                	fld	fa5,216(sp)
  1000a0:	2696                	fld	fa3,320(sp)
  1000a2:	261e                	fld	fa2,448(sp)
  1000a4:	2586                	fld	fa1,64(sp)
  1000a6:	250e                	fld	fa0,192(sp)
  1000a8:	24b6                	fld	fs1,328(sp)
  1000aa:	243e                	fld	fs0,456(sp)
  1000ac:	2ba6                	fld	fs7,72(sp)
  1000ae:	2b2e                	fld	fs6,200(sp)
  1000b0:	2ad6                	fld	fs5,336(sp)
  1000b2:	2a5e                	fld	fs4,464(sp)
  1000b4:	29c6                	fld	fs3,80(sp)
  1000b6:	294e                	fld	fs2,208(sp)
  1000b8:	28f6                	fld	fa7,344(sp)
  1000ba:	287e                	fld	fa6,472(sp)
  1000bc:	2fe6                	fld	ft11,88(sp)
  1000be:	2f6e                	fld	ft10,216(sp)
  1000c0:	2f16                	fld	ft10,320(sp)
  1000c2:	2f9e                	fld	ft11,448(sp)
  1000c4:	2c06                	fld	fs8,64(sp)
  1000c6:	2c8e                	fld	fs9,192(sp)
  1000c8:	2d36                	fld	fs10,328(sp)
  1000ca:	2dbe                	fld	fs11,456(sp)
  1000cc:	d1d3a663          	0xd1d3a663
  1000d0:	22912617          	auipc	a2,0x22912
  1000d4:	d1d05a03          	lhu	s4,-739(zero) # fffffd1d <(null)+0xffec7d0d>
  1000d8:	469d2a37          	lui	s4,0x469d2
  1000dc:	d1d0daa3          	0xd1d0daa3
  1000e0:	46ddaa57          	0x46ddaa57
  1000e4:	d06d70b7          	lui	ra,0xd06d7
  1000e8:	d1dd07c7          	fmsub.s	fa5,fs10,ft9,fs10,rne
  1000ec:	afb1                	j	100848 <(null)+0x1f6>
  1000ee:	fa1f 2e7d e7d9      	0xe7d92e7dfa1f
  1000f4:	e741                	bnez	a4,10017c <(null)+0x1e>
  1000f6:	d8d04773          	0xd8d04773
  1000fa:	d1d2251b          	0xd1d2251b
  1000fe:	a049                	j	100180 <(null)+0x22>
  100100:	e615                	bnez	a2,10012c <(null)+0x18>
  100102:	d1b2806f          	j	28e1c <(null)+0x8e14>
  100106:	c180202f          	amominu.w	zero,s8,(zero)
  10010a:	1acd                	addi	s5,s5,-13
  10010c:	e428                	fsw	fa0,72(s0)
  10010e:	e4b4                	fsw	fa3,72(s1)
  100110:	284d                	jal	1001c2 <(null)+0x22>
  100112:	25da                	fld	fa1,400(sp)
  100114:	b401                	j	ffb14 <(null)+0xdfb0c>
  100116:	6502                	flw	fa0,0(sp)
  100118:	d1c04913          	xori	s2,zero,-740
  10011c:	6746                	flw	fa4,80(sp)
  10011e:	ec60                	fsw	fs0,92(s0)
  100120:	213e                	fld	ft2,456(sp)
  100122:	cad9054f          	fnmadd.d	fa0,fs2,fa3,fs9,rne
  100126:	638e                	flw	ft7,192(sp)
  100128:	6192                	flw	ft3,4(sp)
  10012a:	8eb07003          	0x8eb07003
  10012e:	057f                	0x57f
  100130:	cad9                	beqz	a3,1001c6 <(null)+0x26>
  100132:	21f2                	fld	ft3,280(sp)
  100134:	ed48                	fsw	fa0,28(a0)
  100136:	8f707073          	csrci	0x8f7,0
  10013a:	2052                	fld	ft0,272(sp)
  10013c:	20c2                	fld	ft1,16(sp)
  10013e:	d1807053          	0xd1807053
  100142:	e2e071a3          	0xe2e071a3
  100146:	e4ba                	fsw	fa4,72(sp)
  100148:	e012                	fsw	ft4,0(sp)
  10014a:	e0aa                	fsw	fa0,64(sp)
  10014c:	ed22                	fsw	fs0,152(sp)
  10014e:	a569                	j	1007d8 <(null)+0x186>
  100150:	24d2                	fld	fs1,272(sp)
  100152:	e5d4                	fsw	fa3,12(a1)
  100154:	e548                	fsw	fa0,12(a0)
  100156:	f0100173          	0xf0100173
  10015a:	f0500143          	fmadd.s	ft2,ft0,ft5,ft10,rne
  10015e:	69fd                	lui	s3,0x1f
  100160:	b591                	j	fffa4 <(null)+0xdff9c>
  100162:	68ba                	flw	fa7,140(sp)
  100164:	6ea6                	flw	ft9,72(sp)
  100166:	6cc2                	flw	fs9,16(sp)
  100168:	62fe                	flw	ft5,220(sp)
  10016a:	6abe                	flw	fs5,204(sp)
  10016c:	2d8e                	fld	fs11,192(sp)
  10016e:	2082                	fld	ft1,0(sp)
  100170:	e051                	bnez	s0,1001f4 <(null)+0x54>
  100172:	d1c0483b          	0xd1c0483b
  100176:	e4c4                	fsw	fs1,12(s1)
  100178:	b319a4b7          	lui	s1,0xb319a
  10017c:	a065                	j	100224 <(null)+0x8>
  10017e:	bef02153          	0xbef02153
  100182:	a309                	j	100684 <(null)+0x32>
  100184:	2f493bb7          	lui	s7,0x2f493
  100188:	e352                	fsw	fs4,132(sp)
  10018a:	e7ca                	fsw	fs2,204(sp)
  10018c:	e3f2                	fsw	ft8,196(sp)
  10018e:	ee6a                	fsw	fs10,28(sp)
  100190:	eee2                	fsw	fs8,92(sp)
  100192:	e271                	bnez	a2,100256 <(null)+0xa>
  100194:	c645                	beqz	a2,10023c <(null)+0x20>
  100196:	f3f00273          	0xf3f00273
  10019a:	e251                	bnez	a2,10021e <(null)+0x2>
  10019c:	f010025b          	0xf010025b
  1001a0:	d1c04573          	0xd1c04573
  1001a4:	cc57a547          	0xcc57a547
  1001a8:	d1d78de7          	jalr	s11,-739(a5)
  1001ac:	d1978c77          	0xd1978c77
  1001b0:	d1578c87          	0xd1578c87
  1001b4:	d1178197          	auipc	gp,0xd1178
  1001b8:	d0d78a27          	0xd0d78a27
  1001bc:	d0978ab7          	lui	s5,0xd0978
  1001c0:	e99c                	fsw	fa5,16(a1)
  1001c2:	e9c8                	fsw	fa0,20(a1)
  1001c4:	f594                	fsw	fa3,40(a1)
  1001c6:	f5d0                	fsw	fa2,44(a1)
  1001c8:	f1ac                	fsw	fa1,96(a1)
  1001ca:	d765                	beqz	a4,1001b2 <(null)+0x12>
  1001cc:	d1c04643          	fmadd.s	fa2,ft0,ft8,fs10,rmm
  1001d0:	62f2                	flw	ft5,28(sp)
  1001d2:	261f b295 a608      	0xa608b295261f
  1001d8:	64d6                	flw	fs1,84(sp)
  1001da:	66b2                	flw	fa3,12(sp)
  1001dc:	782e                	flw	fa6,232(sp)
  1001de:	60ee                	flw	ft1,216(sp)
  1001e0:	64ea                	flw	fs1,152(sp)
  1001e2:	62ee                	flw	ft5,216(sp)
  1001e4:	60f2                	flw	ft1,28(sp)
  1001e6:	6e92                	flw	ft9,4(sp)
  1001e8:	6cf6                	flw	fs9,92(sp)
  1001ea:	6afa                	flw	fs5,156(sp)
  1001ec:	688e                	flw	fa7,192(sp)
  1001ee:	769a                	flw	fa3,164(sp)
  1001f0:	74e6                	flw	fs1,120(sp)
  1001f2:	72e2                	flw	ft5,56(sp)
  1001f4:	70fe                	flw	ft1,252(sp)
  1001f6:	d2d12a8f          	0xd2d12a8f
  1001fa:	c8100343          	fmadd.s	ft6,ft0,ft1,fs9,rne
  1001fe:	224a                	fld	ft4,144(sp)
  100200:	d1c045f3          	0xd1c045f3
  100204:	e98c                	fsw	fa1,16(a1)
  100206:	b319a94f          	fnmadd.d	fs2,fs3,fa7,fs6,rdn
  10020a:	ada9                	j	100864 <(null)+0x212>
  10020c:	8cb5                	xor	s1,s1,a3
  10020e:	b79f 2ef4 ec71      	0xec712ef4b79f
  100214:	cb900cfb          	0xcb900cfb
  100218:	83c6ba93          	sltiu	s5,a3,-1988
  10021c:	4716aaa7          	fsw	fa7,1141(a3)
  100220:	ef81                	bnez	a5,100238 <(null)+0x1c>
  100222:	ec35                	bnez	s0,10029e <(null)+0x12>
  100224:	a9c8                	fsd	fa0,144(a1)
  100226:	bba03c33          	0xbba03c33
  10022a:	e9b4                	fsw	fa3,80(a1)
  10022c:	b319a9e7          	0xb319a9e7
  100230:	adc1                	j	100900 <(null)+0x90>
  100232:	84e5                	srai	s1,s1,0x19
  100234:	2ef43777          	0x2ef43777
  100238:	ecd9                	bnez	s1,1002d6 <(null)+0x4a>
  10023a:	c6300c43          	fmadd.q	fs8,ft0,ft3,fs8,rne
  10023e:	e95e                	fsw	fs7,144(sp)
  100240:	ec36                	fsw	fa3,24(sp)
  100242:	ec8e                	fsw	ft3,88(sp)
  100244:	e106                	fsw	ft1,128(sp)
  100246:	f1fa                	fsw	ft10,224(sp)
  100248:	c951                	beqz	a0,1002dc <(null)+0x50>
  10024a:	28ba                	fld	fa7,392(sp)
  10024c:	65ad                	lui	a1,0xb
  10024e:	b929                	j	ffe68 <(null)+0xdfe60>
  100250:	6472                	flw	fs0,28(sp)
  100252:	627e                	flw	ft4,220(sp)
  100254:	600a                	flw	ft0,128(sp)
  100256:	6e06                	flw	ft8,64(sp)
  100258:	6676                	flw	fa2,92(sp)
  10025a:	2156                	fld	ft2,336(sp)
  10025c:	2c4a                	fld	fs8,144(sp)
  10025e:	ece9                	bnez	s1,100338 <(null)+0x1e>
  100260:	d1c04473          	0xd1c04473
  100264:	e88c                	fsw	fa1,16(s1)
  100266:	b519a8cf          	0xb519a8cf
  10026a:	ac3d                	j	1004a8 <(null)+0x36>
  10026c:	8db1                	xor	a1,a1,a2
  10026e:	acb9                	j	1004cc <(null)+0x5a>
  100270:	2f493767          	0x2f493767
  100274:	eca2                	fsw	fs0,88(sp)
  100276:	e83a                	fsw	fa4,16(sp)
  100278:	ec22                	fsw	fs0,24(sp)
  10027a:	e1ba                	fsw	fa4,192(sp)
  10027c:	e152                	fsw	fs4,128(sp)
  10027e:	edc1                	bnez	a1,100316 <(null)+0x2c>
  100280:	ca15                	beqz	a2,1002b4 <(null)+0x28>
  100282:	c2b00e23          	sb	a1,-964(zero) # fffffc3c <(null)+0xffec7c2c>
  100286:	ee21                	bnez	a2,1002de <(null)+0x52>
  100288:	c2d00e0b          	0xc2d00e0b
  10028c:	d1c049c3          	fmadd.s	fs3,ft0,ft8,fs10,rmm
  100290:	cc57a997          	auipc	s3,0xcc57a
  100294:	d3178617          	auipc	a2,0xd3178
  100298:	f0fc                	fsw	fa5,100(s1)
  10029a:	f0a8                	fsw	fa0,96(s1)
  10029c:	f4f4                	fsw	fa3,108(s1)
  10029e:	f4b0                	fsw	fa2,104(s1)
  1002a0:	e82c                	fsw	fa1,80(s0)
  1002a2:	daa1                	beqz	a3,1001f2 <(null)+0x52>
  1002a4:	d1c04be3          	bgtz	t3,fffba <(null)+0xdffb2>
  1002a8:	7792                	flw	fa5,36(sp)
  1002aa:	2bff                	0x2bff
  1002ac:	b495                	j	ffd10 <(null)+0xdfd08>
  1002ae:	ab88                	fsd	fa0,16(a5)
  1002b0:	71f6                	flw	ft3,124(sp)
  1002b2:	7392                	flw	ft7,36(sp)
  1002b4:	7d8e                	flw	fs11,224(sp)
  1002b6:	75ce                	flw	fa1,240(sp)
  1002b8:	6fb2                	flw	ft11,12(sp)
  1002ba:	6dd6                	flw	fs11,84(sp)
  1002bc:	63d2                	flw	ft7,20(sp)
  1002be:	61de                	flw	ft3,212(sp)
  1002c0:	662a                	flw	fa2,136(sp)
  1002c2:	6426                	flw	fs0,72(sp)
  1002c4:	d3d12647          	fmsub.d	fa2,ft2,ft9,fs10,rdn
  1002c8:	dd300f8b          	0xdd300f8b
  1002cc:	2e82                	fld	ft9,0(sp)
  1002ce:	d1c046cb          	fnmsub.s	fa3,ft0,ft8,fs10,rmm
  1002d2:	ead4                	fsw	fa3,20(a3)
  1002d4:	b519aa07          	flw	fs4,-1199(s3) # cc679de1 <(null)+0xcc541dd1>
  1002d8:	aee1                	j	1006b0 <(null)+0x5e>
  1002da:	8121                	srli	a0,a0,0x8
  1002dc:	2ef4b4d7          	0x2ef4b4d7
  1002e0:	efb9                	bnez	a5,10033e <(null)+0x24>
  1002e2:	dcb00f23          	sb	a1,-546(zero) # fffffdde <(null)+0xffec7dce>
  1002e6:	83c6b96b          	0x83c6b96b
  1002ea:	a97f                	0xa97f
  1002ec:	42f6                	lw	t0,92(sp)
  1002ee:	ecb9                	bnez	s1,10034c <(null)+0x32>
  1002f0:	ef49                	bnez	a4,10038a <(null)+0x1a>
  1002f2:	aaf0                	fsd	fa2,208(a3)
  1002f4:	8c403f7b          	0x8c403f7b
  1002f8:	eafc                	fsw	fa5,84(a3)
  1002fa:	b519aabf 8695aef9 	0x8695aef9b519aabf
  100302:	2ef433af          	0x2ef433af
  100306:	e821                	bnez	s0,100356 <(null)+0x3c>
  100308:	dad0088b          	0xdad0088b
  10030c:	fdd2                	fsw	fs4,248(sp)
  10030e:	f94a                	fsw	fs2,176(sp)
  100310:	f982                	fsw	ft0,240(sp)
  100312:	f41a                	fsw	ft6,40(sp)
  100314:	f4f2                	fsw	ft8,104(sp)
  100316:	cc69                	beqz	s0,1003f0 <(null)>
  100318:	2df2                	fld	fs11,280(sp)
  10031a:	68d1                	lui	a7,0x14
  10031c:	bc61                	j	ffdb4 <(null)+0xdfdac>
  10031e:	614a                	flw	ft2,144(sp)
  100320:	67b6                	flw	fa5,76(sp)
  100322:	65d2                	flw	fa1,20(sp)
  100324:	6bce                	flw	fs7,208(sp)
  100326:	638e                	flw	ft7,192(sp)
  100328:	249e                	fld	fs1,448(sp)
  10032a:	2992                	fld	fs3,256(sp)
  10032c:	e921                	bnez	a0,10037c <(null)+0xc>
  10032e:	d1c0414b          	fnmsub.s	ft2,ft0,ft8,fs10,rmm
  100332:	e5d0                	fsw	fa2,12(a1)
  100334:	a945                	j	1007e4 <(null)+0x192>
  100336:	c8207873          	csrrci	a6,instreth,0
  10033a:	2bd2                	fld	fs7,272(sp)
  10033c:	2b4e                	fld	fs6,208(sp)
  10033e:	b719adaf          	0xb719adaf
  100342:	29ba                	fld	fs3,392(sp)
  100344:	8f35                	xor	a4,a4,a3
  100346:	a859                	j	1003dc <(null)+0x6c>
  100348:	2f493c87          	fld	fs9,756(s2)
  10034c:	e842                	fsw	fa6,16(sp)
  10034e:	ecda                	fsw	fs6,88(sp)
  100350:	e882                	fsw	ft0,80(sp)
  100352:	e51a                	fsw	ft6,136(sp)
  100354:	e5f2                	fsw	ft8,200(sp)
  100356:	d1c04c2b          	0xd1c04c2b
  10035a:	b9152c3f 09abcd6d 	0x9abcd6db9152c3f
  100362:	d2b0                	sw	a2,96(a3)
  100364:	d1c04ce3          	bgtz	t3,10007c <(null)+0x7c>
  100368:	b9152cf7          	0xb9152cf7
  10036c:	d370099b          	0xd370099b
  100370:	d1c04f33          	0xd1c04f33
  100374:	ddf5                	beqz	a1,100370 <(null)>
  100376:	cc56af0f          	0xcc56af0f
  10037a:	d596ae3f 623263ee 	0x623263eed596ae3f
  100382:	643e                	flw	fs0,204(sp)
  100384:	664a                	flw	fa2,144(sp)
  100386:	6846                	flw	fa6,80(sp)
  100388:	6a62                	flw	fs4,24(sp)
  10038a:	af00                	fsd	fs0,24(a4)
  10038c:	da16ace7          	0xda16ace7
  100390:	d1d78287          	0xd1d78287
  100394:	d1978217          	auipc	tp,0xd1978
  100398:	e8f8                	fsw	fa4,84(s1)
  10039a:	e8b4                	fsw	fa3,80(s1)
  10039c:	e4f0                	fsw	fa2,76(s1)
  10039e:	0a1f d0c7 08ef      	0x8efd0c70a1f
  1003a4:	6880d0d7          	0x6880d0d7
  1003a8:	68fc                	flw	fa5,84(s1)
  1003aa:	64a8                	flw	fa0,72(s1)
  1003ac:	a871                	j	100448 <(null)+0x14>
  1003ae:	a8f9                	j	10048c <(null)+0x1a>
  1003b0:	2f07ba67          	0x2f07ba67
  1003b4:	d1c04fa3          	0xd1c04fa3
  1003b8:	b8d52fb7          	lui	t6,0xb8d52
  1003bc:	afc0                	fsd	fs0,152(a5)
  1003be:	ac403a53          	0xac403a53
  1003c2:	225f d9d1 2aaa      	0x2aaad9d1225f
  1003c8:	d1c042d3          	0xd1c042d3
  1003cc:	e6a8                	fsw	fa0,72(a3)
  1003ce:	c1a07b93          	andi	s7,zero,-998
  1003d2:	2872                	fld	fa6,280(sp)
  1003d4:	28ee                	fld	fa7,216(sp)
  1003d6:	b719ae0f          	0xb719ae0f
  1003da:	2bde                	fld	fs7,464(sp)
  1003dc:	aab1                	j	100538 <(null)+0xc6>
  1003de:	8721                	srai	a4,a4,0x8
  1003e0:	2ef4bd27          	fsd	fa5,762(s1) # b319a2fa <(null)+0xb30622ea>
  1003e4:	d1c041e3          	bgtz	t3,1000e6 <(null)+0x12>
  1003e8:	b91a2ef7          	0xb91a2ef7
  1003ec:	ab603b1b          	0xab603b1b
  1003f0:	83c6bd33          	0x83c6bd33
  1003f4:	4696ad07          	flw	fs10,1129(a3)
  1003f8:	e8a1                	bnez	s1,100448 <(null)+0x14>
  1003fa:	eb61                	bnez	a4,1004ca <(null)+0x58>
  1003fc:	aec8                	fsd	fa0,152(a3)
  1003fe:	9d203b53          	0x9d203b53
  100402:	b13c                	fsd	fa5,96(a0)
  100404:	f988                	fsw	fa0,48(a1)
  100406:	dd2064b3          	0xdd2064b3
  10040a:	3712                	fld	fa4,288(sp)
  10040c:	378e                	fld	fa5,224(sp)
  10040e:	b719b16f          	jal	sp,9bf7e <(null)+0x7bf76>
  100412:	34fe                	fld	fs1,504(sp)
  100414:	b591                	j	100258 <(null)+0xc>
  100416:	98e1                	andi	s1,s1,-8
  100418:	2ef4a2c7          	fmsub.q	ft5,fs1,fa5,ft5,rdn
  10041c:	b91a3127          	fsd	fa7,-1150(s4) # 469d1b82 <(null)+0x46899b72>
  100420:	a6a0242b          	0xa6a0242b
  100424:	d1c051e3          	blez	t3,100126 <(null)+0x12>
  100428:	bad531f7          	0xbad531f7
  10042c:	a760241b          	0xa760241b
  100430:	83c6a233          	0x83c6a233
  100434:	4276b207          	fld	ft4,1063(a3)
  100438:	f7a1                	bnez	a5,100380 <(null)+0x10>
  10043a:	f461                	bnez	s0,100402 <(null)+0xe>
  10043c:	b1c8                	fsd	fa0,160(a1)
  10043e:	99202453          	0x99202453
  100442:	f810                	fsw	fa2,48(s0)
  100444:	d8c065bb          	0xd8c065bb
  100448:	361a                	fld	fa2,416(sp)
  10044a:	3696                	fld	fa3,352(sp)
  10044c:	b719b067          	0xb719b067
  100450:	35f2                	fld	fa1,312(sp)
  100452:	b409                	j	ffe54 <(null)+0xdfe4c>
  100454:	9971                	andi	a0,a0,-4
  100456:	23ff                	0x23ff
  100458:	2ef4                	fld	fa3,216(a3)
  10045a:	b91a303f a24025d3 	0xa24025d3b91a303f
  100462:	f062                	fsw	fs8,32(sp)
  100464:	f4ea                	fsw	fs10,104(sp)
  100466:	f452                	fsw	fs4,40(sp)
  100468:	f9fa                	fsw	ft10,240(sp)
  10046a:	f902                	fsw	ft0,176(sp)
  10046c:	fa8a                	fsw	ft2,116(sp)
  10046e:	d1a5                	beqz	a1,1003ce <(null)+0x5e>
  100470:	3052                	fld	ft0,304(sp)
  100472:	c1a1                	beqz	a1,1004b2 <(null)+0x40>
  100474:	2e27fd07          	0x2e27fd07
  100478:	9028ed37          	lui	s10,0x9028e
  10047c:	66c2                	flw	fa3,16(sp)
  10047e:	d5d846af          	0xd5d846af
  100482:	ceff                	0xceff
  100484:	273fd0c7          	fmsub.q	ft1,ft11,fs3,ft4,unknown
  100488:	770fd3d3          	0x770fd3d3
  10048c:	cbd6                	sw	s5,212(sp)
  10048e:	d1f841ef          	jal	gp,851ac <(null)+0x651a4>
  100492:	cbd7ac6f          	jal	s8,7b14e <(null)+0x5b146>
  100496:	d198448f          	0xd198448f
  10049a:	f779                	bnez	a4,100468 <(null)+0x34>
  10049c:	d1d2be57          	0xd1d2be57
  1004a0:	f795                	bnez	a5,1003cc <(null)+0x5c>
  1004a2:	345f d3d0 1391      	0x1391d3d0345f
  1004a8:	f7b1                	bnez	a5,1003f4 <(null)>
  1004aa:	f139                	bnez	a0,1003f0 <(null)>
  1004ac:	d3d84167          	0xd3d84167
  1004b0:	c7d7b5e7          	0xc7d7b5e7
  1004b4:	d1c05823          	0xd1c05823
  1004b8:	bcdeb837          	lui	a6,0xbcdeb
  1004bc:	f061                	bnez	s0,10047c <(null)+0xa>
  1004be:	d111392f          	0xd111392f
  1004c2:	fd49                	bnez	a0,10045c <(null)+0x28>
  1004c4:	1219                	addi	tp,tp,-26
  1004c6:	c633b93f d30640df 	0xd30640dfc633b93f
  1004ce:	b1ad                	j	100138 <(null)+0x24>
  1004d0:	d1afb937          	lui	s2,0xd1afb
  1004d4:	3172                	fld	ft2,312(sp)
  1004d6:	25be                	fld	fa1,456(sp)
  1004d8:	d1d7f0a7          	0xd1d7f0a7
  1004dc:	d3066107          	0xd3066107
  1004e0:	2f2e3867          	0x2f2e3867
  1004e4:	2f034637          	lui	a2,0x2f034
  1004e8:	f561                	bnez	a0,1004b0 <(null)+0x3e>
  1004ea:	c523bb8f          	0xc523bb8f
  1004ee:	a2b4                	fsd	fa3,64(a3)
  1004f0:	254e                	fld	fa0,208(sp)
  1004f2:	2fd7b1af          	0x2fd7b1af
  1004f6:	350e                	fld	fa0,224(sp)
  1004f8:	91a8bf17          	auipc	t5,0x91a8b
  1004fc:	d1a7e4d7          	0xd1a7e4d7
  100500:	328e                	fld	ft5,224(sp)
  100502:	3a05                	jal	ffe32 <(null)+0xdfe2a>
  100504:	3a01                	jal	ffe14 <(null)+0xdfe0c>
  100506:	2e28f6cf          	fnmadd.q	fa3,fa7,ft2,ft5
  10050a:	7e7f                	0x7e7f
  10050c:	33d52e27          	fsw	ft9,828(a0)
  100510:	902e6e17          	auipc	t3,0x902e6
  100514:	d0d84607          	flq	fa2,-755(a6) # bcdead0d <(null)+0xbccb2cfd>
  100518:	f4ec                	fsw	fa1,108(s1)
  10051a:	c69f d108 4e0f      	0x4e0fd108c69f
  100520:	48dfd017          	auipc	zero,0x48dfd
  100524:	d1c8                	sw	a0,36(a1)
  100526:	7fdd                	lui	t6,0xffff7
  100528:	de16ff87          	0xde16ff87
  10052c:	fda1                	bnez	a1,100484 <(null)+0x12>
  10052e:	bc9f d1d2 379f      	0x379fd1d2bc9f
  100534:	ee20                	fsw	fs0,88(a2)
  100536:	56ff                	0x56ff
  100538:	2252d127          	0x2252d127
  10053c:	d187b097          	auipc	ra,0xd187b
  100540:	f58c                	fsw	fa1,40(a1)
  100542:	b39d                	j	1002a8 <(null)+0x1c>
  100544:	759c                	flw	fa5,40(a1)
  100546:	768d                	lui	a3,0xfffe3
  100548:	ee203777          	0xee203777
  10054c:	d2d039e7          	0xd2d039e7
  100550:	d1253637          	lui	a2,0xd1253
  100554:	d7265f77          	0xd7265f77
  100558:	d0c73107          	fld	ft2,-756(a4)
  10055c:	f5fc                	fsw	fa5,108(a1)
  10055e:	a295                	j	1006c2 <(null)+0x70>
  100560:	b315                	j	100284 <(null)+0x38>
  100562:	7504                	flw	fs1,40(a0)
  100564:	4275                	li	tp,29
  100566:	d1afb6ef          	jal	a3,fba80 <(null)+0xdba78>
  10056a:	37ff                	0x37ff
  10056c:	ee20                	fsw	fs0,88(a2)
  10056e:	d125374f          	fnmadd.s	fa4,fa0,fs2,fs10,rup
  100572:	d52658ef          	jal	a7,65ac4 <(null)+0x45abc>
  100576:	761f 2e27 a385      	0xa3852e27761f
  10057c:	d126b197          	auipc	gp,0xd126b
  100580:	f68c                	fsw	fa1,40(a3)
  100582:	b09d                	j	ffde8 <(null)+0xdfde0>
  100584:	769c                	flw	fa5,40(a3)
  100586:	2f3fa6bf ee2034ff 	0xee2034ff2f3fa6bf
  10058e:	d3d0346f          	jal	s0,42ca <(null)+0x22ca>
  100592:	d1d83c6f          	jal	s8,842ae <(null)+0x642a6>
  100596:	d125352f          	0xd125352f
  10059a:	d126df4f          	fnmadd.s	ft10,fa3,fs2,fs10,unknown
  10059e:	321f d117 f604      	0xf604d117321f
  1005a4:	bf85                	j	100514 <(null)+0xa2>
  1005a6:	b00d                	j	ffdc8 <(null)+0xdfdc0>
  1005a8:	762c                	flw	fa1,104(a2)
  1005aa:	2fd8240f          	0x2fd8240f
  1005ae:	e39a                	fsw	ft6,196(sp)
  1005b0:	d695                	beqz	a3,1004dc <(null)+0x6a>
  1005b2:	375a                	fld	fa4,432(sp)
  1005b4:	b045                	j	ffe54 <(null)+0xdfe4c>
  1005b6:	7654                	flw	fa3,44(a2)
  1005b8:	bff5                	j	1005b4 <(null)+0x142>
  1005ba:	2dd82c4f          	0x2dd82c4f
  1005be:	e3da                	fsw	fs6,196(sp)
  1005c0:	d755                	beqz	a4,10056c <(null)+0xfa>
  1005c2:	369a                	fld	fa3,416(sp)
  1005c4:	b185                	j	100224 <(null)+0x8>
  1005c6:	7794                	flw	fa3,40(a5)
  1005c8:	a14d                	j	100a6a <(null)+0x1fa>
  1005ca:	2b3fa18f          	0x2b3fa18f
  1005ce:	095d                	addi	s2,s2,23
  1005d0:	b1d5                	j	1002b4 <(null)+0x28>
  1005d2:	77c4                	flw	fs1,44(a5)
  1005d4:	a0bd                	j	100642 <(null)+0x1d0>
  1005d6:	48e5                	li	a7,25
  1005d8:	0109                	addi	sp,sp,2
  1005da:	d5d8204f          	0xd5d8204f
  1005de:	301a                	fld	ft0,416(sp)
  1005e0:	ee2030d7          	0xee2030d7
  1005e4:	d3d03bc7          	fmsub.d	fs7,ft0,ft9,fs10,rup
  1005e8:	d7306087          	0xd7306087
  1005ec:	d1253b47          	fmsub.s	fs6,fa0,fs2,fs10,rup
  1005f0:	d52357e7          	0xd52357e7
  1005f4:	d0d8b3b7          	lui	t2,0xd0d8b
  1005f8:	f76c                	fsw	fa1,108(a4)
  1005fa:	a085                	j	10065a <(null)+0x8>
  1005fc:	b165                	j	1002a4 <(null)+0x18>
  1005fe:	7774                	flw	fa3,108(a4)
  100600:	4f65                	li	t5,25
  100602:	3e6a                	fld	ft8,184(sp)
  100604:	2e2e3447          	fmsub.q	fs0,ft8,ft2,ft5,rup
  100608:	d0107f07          	0xd0107f07
  10060c:	fe25                	bnez	a2,100584 <(null)+0x112>
  10060e:	9138344f          	fnmadd.s	fs0,fa6,fs3,fs2,rup
  100612:	b15d                	j	1002b8 <(null)+0x2c>
  100614:	0669                	addi	a2,a2,26
  100616:	d1c052ab          	0xd1c052ab
  10061a:	bf9eb2bf 34f70411 	0x34f70411bf9eb2bf
  100622:	9010                	0x9010
  100624:	0ea9                	addi	t4,t4,10
  100626:	3f7a                	fld	ft10,440(sp)
  100628:	f1b1                	bnez	a1,10056c <(null)+0xfa>
  10062a:	0ea9                	addi	t4,t4,10
  10062c:	91103ac7          	fmsub.s	fs5,ft0,fa7,fs2,rup
  100630:	fdd5                	bnez	a1,1005ec <(null)+0x17a>
  100632:	3e1f d300 0455      	0x455d3003e1f
  100638:	be75                	j	1001f4 <(null)+0x54>
  10063a:	7864                	flw	fs1,116(s0)
  10063c:	af9d                	j	100db2 <(null)+0x542>
  10063e:	4fb5                	li	t6,13
  100640:	0fd9                	addi	t6,t6,22
  100642:	fbd5                	bnez	a5,1005f6 <(null)+0x184>
  100644:	0d6d                	addi	s10,s10,27
  100646:	fc0d                	bnez	s0,100580 <(null)+0x10e>
  100648:	d3603ff7          	0xd3603ff7
  10064c:	0da5                	addi	s11,s11,9
  10064e:	305a                	fld	ft0,432(sp)
  100650:	05a9                	addi	a1,a1,10
  100652:	c901                	beqz	a0,100662 <(null)+0x10>
  100654:	d1c05aa3          	0xd1c05aa3
  100658:	7c92                	flw	fs9,36(sp)
  10065a:	7a9e                	flw	fs5,228(sp)
  10065c:	ca579137          	lui	sp,0xca579
  100660:	ca179147          	fmsub.d	ft2,fa5,ft1,fs9,rtz
  100664:	d1c05a63          	blez	t3,ffb78 <(null)+0xdfb70>
  100668:	706a                	flw	ft0,184(sp)
  10066a:	7e66                	flw	ft8,120(sp)
  10066c:	cdd796f7          	0xcdd796f7
  100670:	cd979607          	0xcd979607
  100674:	d1c05a23          	0xd1c05a23
  100678:	6c52                	flw	fs8,20(sp)
  10067a:	6a5e                	flw	fs4,212(sp)
  10067c:	7432                	flw	fs0,44(sp)
  10067e:	723e                	flw	ft4,236(sp)
  100680:	7bfa                	flw	fs7,188(sp)
  100682:	6576                	flw	fa0,92(sp)
  100684:	cd579457          	0xcd579457
  100688:	cd1794e7          	0xcd1794e7
  10068c:	6da6                	flw	fs11,72(sp)
  10068e:	6be2                	flw	fs7,24(sp)
  100690:	759e                	flw	fa1,228(sp)
  100692:	7372                	flw	ft6,60(sp)
  100694:	716e                	flw	ft2,248(sp)
  100696:	7d7a                	flw	fs10,188(sp)
  100698:	3fda                	fld	ft11,432(sp)
  10069a:	3f56                	fld	ft10,368(sp)
  10069c:	f661                	bnez	a2,100664 <(null)+0x12>
  10069e:	368a                	fld	fa3,160(sp)
  1006a0:	7bf6                	flw	fs7,124(sp)
  1006a2:	79fa                	flw	fs3,188(sp)
  1006a4:	7fe6                	flw	ft11,120(sp)
  1006a6:	1bbd                	addi	s7,s7,-17
  1006a8:	3e96                	fld	ft9,352(sp)
  1006aa:	3e1a                	fld	ft8,416(sp)
  1006ac:	3dfa                	fld	fs11,440(sp)
  1006ae:	3d76                	fld	fs10,376(sp)
  1006b0:	88501e6b          	0x88501e6b
  1006b4:	3f6a                	fld	ft10,184(sp)
  1006b6:	3fe6                	fld	ft11,120(sp)
  1006b8:	3e92                	fld	ft9,288(sp)
  1006ba:	3e1e                	fld	ft8,480(sp)
  1006bc:	3db2                	fld	fs11,296(sp)
  1006be:	3d3e                	fld	fs10,488(sp)
  1006c0:	89501fab          	0x89501fab
  1006c4:	b705                	j	1005e4 <(null)+0x172>
  1006c6:	d79038cf          	fnmadd.q	fa7,ft0,fs9,fs10,rup
  1006ca:	3612                	fld	fa2,288(sp)
  1006cc:	368e                	fld	fa3,224(sp)
  1006ce:	321f d72d 3ffa      	0x3ffad72d321f
  1006d4:	3f66                	fld	ft10,120(sp)
  1006d6:	ad201ff3          	csrrw	t6,0xad2,zero
  1006da:	d3300fc3          	fmadd.d	ft11,ft0,fs3,fs10,rne
  1006de:	fcea                	fsw	fs10,120(sp)
  1006e0:	33ba                	fld	ft7,424(sp)
  1006e2:	3336                	fld	ft6,360(sp)
  1006e4:	3cee                	fld	fs9,248(sp)
  1006e6:	3fae                	fld	ft11,232(sp)
  1006e8:	3f12                	fld	ft10,288(sp)
  1006ea:	88202f03          	lw	t5,-1918(zero) # fffff882 <(null)+0xffec7872>
  1006ee:	3c82                	fld	fs9,32(sp)
  1006f0:	3c7e                	fld	fs8,504(sp)
  1006f2:	3f92                	fld	ft11,288(sp)
  1006f4:	3f0e                	fld	ft10,224(sp)
  1006f6:	9b101f73          	csrrw	t5,0x9b1,zero
  1006fa:	3d52                	fld	fs10,304(sp)
  1006fc:	fcf2                	fsw	ft8,120(sp)
  1006fe:	fc4a                	fsw	fs2,56(sp)
  100700:	3836                	fld	fa6,360(sp)
  100702:	38ba                	fld	fa7,424(sp)
  100704:	2b207ab7          	lui	s5,0x2b207
  100708:	c9c0188b          	0xc9c0188b
  10070c:	3b0a                	fld	fs6,160(sp)
  10070e:	3b86                	fld	fs7,96(sp)
  100710:	381a                	fld	fa6,416(sp)
  100712:	3896                	fld	fa7,352(sp)
  100714:	ef5018fb          	0xef5018fb
  100718:	29d570c7          	fmsub.s	ft1,fa0,ft9,ft5
  10071c:	d3dd2457          	0xd3dd2457
  100720:	fb22                	fsw	fs0,180(sp)
  100722:	d0f698ef          	jal	a7,6a430 <(null)+0x4a428>
  100726:	9aff                	0x9aff
  100728:	d0e6                	sw	s9,96(sp)
  10072a:	ed0e                	fsw	ft3,152(sp)
  10072c:	e986                	fsw	ft1,208(sp)
  10072e:	e93e                	fsw	fa5,144(sp)
  100730:	e4d6                	fsw	fs5,72(sp)
  100732:	f42e                	fsw	fa1,40(sp)
  100734:	f7a6                	fsw	fs1,236(sp)
  100736:	f71e                	fsw	ft7,172(sp)
  100738:	f6b6                	fsw	fa3,108(sp)
  10073a:	f64e                	fsw	fs3,44(sp)
  10073c:	f1c6                	fsw	fa7,224(sp)
  10073e:	f17e                	fsw	ft11,160(sp)
  100740:	f116                	fsw	ft5,160(sp)
  100742:	e1ea                	fsw	fs10,192(sp)
  100744:	dd65                	beqz	a0,10073c <(null)+0xea>
  100746:	3c8a                	fld	fs9,160(sp)
  100748:	fb82                	fsw	ft0,244(sp)
  10074a:	d1d7994f          	fnmadd.s	fs2,fa5,ft9,fs10,rtz
  10074e:	9b5f d1d7 03b9      	0x3b9d1d79b5f
  100754:	3a22                	fld	fs4,40(sp)
  100756:	3aae                	fld	fs5,232(sp)
  100758:	393a                	fld	fs2,424(sp)
  10075a:	39b6                	fld	fs3,360(sp)
  10075c:	9f1019db          	0x9f1019db
  100760:	3b3e                	fld	fs6,488(sp)
  100762:	3bb2                	fld	fs7,296(sp)
  100764:	70aa                	flw	ft1,168(sp)
  100766:	72a6                	flw	ft5,104(sp)
  100768:	f9f2                	fsw	ft8,240(sp)
  10076a:	f96a                	fsw	fs10,176(sp)
  10076c:	3a1e                	fld	fs4,480(sp)
  10076e:	3a92                	fld	fs5,288(sp)
  100770:	c040196b          	0xc040196b
  100774:	d1c05e23          	0xd1c05e23
  100778:	ca5795a7          	0xca5795a7
  10077c:	ca179537          	lui	a0,0xca179
  100780:	d1c05df3          	csrrwi	s11,0xd1c,0
  100784:	cdd79157          	0xcdd79157
  100788:	cd9791e7          	0xcd9791e7
  10078c:	d1c05dc3          	fmadd.s	fs11,ft0,ft8,fs10,unknown
  100790:	cd579007          	0xcd579007
  100794:	cd179097          	auipc	ra,0xcd179
  100798:	775a                	flw	fa4,180(sp)
  10079a:	7556                	flw	fa0,116(sp)
  10079c:	3bca                	fld	fs7,176(sp)
  10079e:	3b46                	fld	fs6,112(sp)
  1007a0:	f291                	bnez	a3,1006a4 <(null)+0x52>
  1007a2:	327a                	fld	ft4,440(sp)
  1007a4:	7fe6                	flw	ft11,120(sp)
  1007a6:	7dea                	flw	fs11,184(sp)
  1007a8:	7bd6                	flw	fs7,116(sp)
  1007aa:	1f8d                	addi	t6,t6,-29
  1007ac:	3a86                	fld	fs5,96(sp)
  1007ae:	3a0a                	fld	fs4,160(sp)
  1007b0:	398a                	fld	fs3,160(sp)
  1007b2:	3906                	fld	fs2,96(sp)
  1007b4:	98901a7b          	0x98901a7b
  1007b8:	3b5a                	fld	fs6,432(sp)
  1007ba:	3bd6                	fld	fs7,368(sp)
  1007bc:	3a82                	fld	fs5,32(sp)
  1007be:	3a0e                	fld	fs4,224(sp)
  1007c0:	3842                	fld	fa6,48(sp)
  1007c2:	38ce                	fld	fa7,240(sp)
  1007c4:	99901bbb          	0x99901bbb
  1007c8:	b335                	j	1004f4 <(null)+0x82>
  1007ca:	3cff                	0x3cff
  1007cc:	d790                	sw	a2,40(a5)
  1007ce:	3202                	fld	ft4,32(sp)
  1007d0:	32fe                	fld	ft5,504(sp)
  1007d2:	d72d386f          	jal	a6,d3d44 <(null)+0xb3d3c>
  1007d6:	3bea                	fld	fs7,184(sp)
  1007d8:	3b56                	fld	fs6,368(sp)
  1007da:	bd601bc3          	0xbd601bc3
  1007de:	a3601bd3          	flt.d	s7,ft0,fs6
  1007e2:	f81a                	fsw	ft6,48(sp)
  1007e4:	37aa                	fld	fa5,168(sp)
  1007e6:	3726                	fld	fa4,104(sp)
  1007e8:	38de                	fld	fa7,496(sp)
  1007ea:	3b9e                	fld	fs7,480(sp)
  1007ec:	3b02                	fld	fs6,32(sp)
  1007ee:	98602b13          	slti	s6,zero,-1658
  1007f2:	38f2                	fld	fa7,312(sp)
  1007f4:	386e                	fld	fa6,248(sp)
  1007f6:	3b82                	fld	fs7,32(sp)
  1007f8:	3b3e                	fld	fs6,488(sp)
  1007fa:	eb501b43          	fmadd.d	fs6,ft0,fs5,ft9,rtz
  1007fe:	3942                	fld	fs2,48(sp)
  100800:	c702                	sw	zero,140(sp)
  100802:	c7ba                	sw	a4,204(sp)
  100804:	0426                	slli	s0,s0,0x9
  100806:	04aa                	slli	s1,s1,0xa
  100808:	2b204687          	flq	fa3,690(zero) # 2b2 <(null)-0x1d4e>
  10080c:	d600249b          	0xd600249b
  100810:	077a                	slli	a4,a4,0x1e
  100812:	07f6                	slli	a5,a5,0x1d
  100814:	040a                	slli	s0,s0,0x2
  100816:	0486                	slli	s1,s1,0x1
  100818:	ff9024cb          	fnmsub.q	fs1,ft0,fs9,ft11,rdn
  10081c:	29d54cd7          	0x29d54cd7
  100820:	d1dd1ba7          	0xd1dd1ba7
  100824:	c4e2                	sw	s8,72(sp)
  100826:	c47a                	sw	t5,8(sp)
  100828:	07fa                	slli	a5,a5,0x1e
  10082a:	0776                	slli	a4,a4,0x1d
  10082c:	9400141b          	0x9400141b
  100830:	c662                	sw	s8,12(sp)
  100832:	4250                	lw	a2,4(a2)
  100834:	420c                	lw	a1,0(a2)
  100836:	3c1d                	jal	10026c <(null)+0x20>
  100838:	c8f1                	beqz	s1,10090c <(null)+0x9c>
  10083a:	c879                	beqz	s0,100910 <(null)+0xa0>
  10083c:	3605                	jal	10035c <(null)+0x42>
  10083e:	078a                	slli	a5,a5,0x2
  100840:	055a                	slli	a0,a0,0x16
  100842:	05d6                	slli	a1,a1,0x15
  100844:	06e6                	slli	a3,a3,0x19
  100846:	91f025b3          	0x91f025b3
  10084a:	0492                	slli	s1,s1,0x4
  10084c:	040e                	slli	s0,s0,0x3
  10084e:	c56a                	sw	s10,136(sp)
  100850:	c582                	sw	zero,200(sp)
  100852:	06fa                	slli	a3,a3,0x1e
  100854:	0666                	slli	a2,a2,0x19
  100856:	d2e025f3          	csrr	a1,0xd2e
  10085a:	9048                	0x9048
  10085c:	bbbd                	j	1005da <(null)+0x168>
  10085e:	d64a                	sw	s2,44(sp)
  100860:	d622                	sw	s0,44(sp)
  100862:	05be                	slli	a1,a1,0xf
  100864:	0522                	slli	a0,a0,0x8
  100866:	93e01533          	0x93e01533
  10086a:	0992                	slli	s3,s3,0x4
  10086c:	090e                	slli	s2,s2,0x3
  10086e:	3ff5                	jal	10086a <(null)+0x218>
  100870:	58d10497          	auipc	s1,0x58d10
  100874:	a5c123b7          	lui	t2,0xa5c12
  100878:	a5512187          	flw	ft3,-1451(sp) # ca578a55 <(null)+0xca440a45>
  10087c:	a5412797          	auipc	a5,0xa5412
  100880:	a4f12667          	0xa4f12667
  100884:	a2e12877          	0xa2e12877
  100888:	a2912a47          	fmsub.d	fs4,ft2,fs1,fs4,rdn
  10088c:	a2812c57          	0xa2812c57
  100890:	a2b12e27          	fsw	fa1,-1476(sp)
  100894:	a2a12037          	lui	zero,0xa2a12
  100898:	a2512207          	flw	ft4,-1499(sp)
  10089c:	a2412417          	auipc	s0,0xa2412
  1008a0:	a27126e7          	0xa27126e7
  1008a4:	a06128f7          	0xa06128f7
  1008a8:	d1d548e7          	0xd1d548e7
  1008ac:	a49105e7          	jalr	a1,-1463(sp)
  1008b0:	a72124a7          	fsw	fs2,-1431(sp)
  1008b4:	a5612cb7          	lui	s9,0xa5612
  1008b8:	a5112a87          	flw	fs5,-1455(sp)
  1008bc:	a5012897          	auipc	a7,0xa5012
  1008c0:	a7312767          	0xa7312767
  1008c4:	a6d12377          	0xa6d12377
  1008c8:	a6c12147          	fmsub.q	ft2,ft2,fa2,fs4,rdn
  1008cc:	473a                	lw	a4,140(sp)
  1008ce:	452a                	lw	a0,136(sp)
  1008d0:	c5d1                	beqz	a1,10095c <(null)+0xec>
  1008d2:	d7de1d6f          	jal	s10,e264e <(null)+0xc2646>
  1008d6:	0576                	slli	a0,a0,0x1d
  1008d8:	ee3000b7          	lui	ra,0xee300
  1008dc:	d137e057          	0xd137e057
  1008e0:	a0d10057          	0xa0d10057
  1008e4:	15be                	slli	a1,a1,0x2f
  1008e6:	07ff                	0x7ff
  1008e8:	42ef11d7          	0x42ef11d7
  1008ec:	e0d1                	bnez	s1,100970 <(null)+0x100>
  1008ee:	005f a1d1 4f81      	0x4f81a1d1005f
  1008f4:	8cc0                	0x8cc0
  1008f6:	c64d                	beqz	a2,1009a0 <(null)+0x130>
  1008f8:	0e71                	addi	t3,t3,28
  1008fa:	e4401743          	0xe4401743
  1008fe:	d1c442bf d14407ff 	0xd14407ffd1c442bf
  100906:	810d                	srli	a0,a0,0x3
  100908:	7c5d                	lui	s8,0xffff7
  10090a:	a51120ef          	jal	ra,1335a <(null)+0xb35a>
  10090e:	247f                	0x247f
  100910:	a551                	j	100f94 <(null)+0x724>
  100912:	a591248f          	0xa591248f
  100916:	291f a5d1 29af      	0x29afa5d1291f
  10091c:	a211                	j	100a20 <(null)+0x1b0>
  10091e:	a2512a3f a2912a4f 	0xa2912a4fa2512a3f
  100926:	2bdf a2d1 2b6f      	0x2b6fa2d12bdf
  10092c:	a311                	j	100e30 <(null)+0x5c0>
  10092e:	2cff                	0x2cff
  100930:	a351                	j	100eb4 <(null)+0x644>
  100932:	a3912c0f          	0xa3912c0f
  100936:	2d9f a3d1 2d2f      	0x2d2fa3d12d9f
  10093c:	a011                	j	100940 <(null)+0xd0>
  10093e:	00d6                	slli	ra,ra,0x15
  100940:	a6d10057          	0xa6d10057
  100944:	0482                	c.slli64	s1
  100946:	d1c066eb          	0xd1c066eb
  10094a:	cd97a96f          	jal	s2,7b622 <(null)+0x5b61a>
  10094e:	a6ff                	0xa6ff
  100950:	059fcdd7          	0x59fcdd7
  100954:	d1c5                	beqz	a1,1008f4 <(null)+0x84>
  100956:	460a                	lw	a2,128(sp)
  100958:	444e                	lw	s0,208(sp)
  10095a:	e0d10abf 080ac3e9 	0x80ac3e9e0d10abf
  100962:	877f                	0x877f
  100964:	03b6d12b          	0x3b6d12b
  100968:	c1b1                	beqz	a1,1009ac <(null)+0x13c>
  10096a:	07ff                	0x7ff
  10096c:	d380                	sw	s0,32(a5)
  10096e:	ee20046f          	jal	s0,1050 <(null)-0xfb0>
  100972:	d31e0bef          	jal	s7,e16a2 <(null)+0xc169a>
  100976:	eeff                	0xeeff
  100978:	d135                	beqz	a0,1008dc <(null)+0x6c>
  10097a:	807d                	srli	s0,s0,0x1f
  10097c:	d0168197          	auipc	gp,0xd0168
  100980:	2e24cc47          	fmsub.q	fs8,fs1,ft2,ft5,rmm
  100984:	8005                	srli	s0,s0,0x1
  100986:	818d                	srli	a1,a1,0x3
  100988:	25de0a87          	0x25de0a87
  10098c:	c225                	beqz	a2,1009ec <(null)+0x17c>
  10098e:	30fd                	jal	10027c <(null)+0x30>
  100990:	c0d1                	beqz	s1,100a14 <(null)+0x1a4>
  100992:	38fd                	jal	100290 <(null)+0x4>
  100994:	d1d4cc17          	auipc	s8,0xd1d4c
  100998:	8075                	srli	s0,s0,0x1d
  10099a:	83fd                	srli	a5,a5,0x1f
  10099c:	81e5                	srli	a1,a1,0x19
  10099e:	0fdf 23de c29d      	0xc29d23de0fdf
  1009a4:	3079                	jal	100232 <(null)+0x16>
  1009a6:	edd5013f c5774082 	0xc5774082edd5013f
  1009ae:	d1d4                	sw	a3,36(a1)
  1009b0:	5055                	c.li	zero,-11
  1009b2:	d1c065bb          	0xd1c065bb
  1009b6:	d1c48f0f          	0xd1c48f0f
  1009ba:	ce79                	beqz	a2,100a98 <(null)+0x228>
  1009bc:	c1a1                	beqz	a1,1009fc <(null)+0x18c>
  1009be:	f897042f          	0xf897042f
  1009c2:	845f 2fd7 744f      	0x744f2fd7845f
  1009c8:	650fde27          	0x650fde27
  1009cc:	d136                	sw	a3,160(sp)
  1009ce:	8122                	mv	sp,s0
  1009d0:	1166                	slli	sp,sp,0x39
  1009d2:	c540                	sw	s0,12(a0)
  1009d4:	0142                	slli	sp,sp,0x10
  1009d6:	cf49                	beqz	a4,100a70 <(null)+0x200>
  1009d8:	d1c07593          	andi	a1,zero,-740
  1009dc:	55d6a437          	lui	s0,0x55d6a
  1009e0:	d1c795d7          	0xd1c795d7
  1009e4:	11b2                	slli	gp,gp,0x2c
  1009e6:	54df d1d7 0da9      	0xda9d1d754df
  1009ec:	419d                	li	gp,7
  1009ee:	d1f914ef          	jal	s1,9270c <(null)+0x72704>
  1009f2:	859f 2cd7 c41f      	0xc41f2cd7859f
  1009f8:	d1dd                	beqz	a1,10099e <(null)+0x12e>
  1009fa:	11b2                	slli	gp,gp,0x2c
  1009fc:	81e6                	mv	gp,s9
  1009fe:	d1360a8f          	0xd1360a8f
  100a02:	849d                	srai	s1,s1,0x7
  100a04:	76e1                	lui	a3,0xffff8
  100a06:	ceb2                	sw	a2,92(sp)
  100a08:	3cc9                	jal	1004da <(null)+0x68>
  100a0a:	d1ddcbef          	jal	s7,dd726 <(null)+0xbd71e>
  100a0e:	d0d9e5ef          	jal	a1,9f71a <(null)+0x7f712>
  100a12:	84dd                	srai	s1,s1,0x17
  100a14:	7e9d                	lui	t4,0xfffe7
  100a16:	cef2                	sw	t3,92(sp)
  100a18:	340d                	jal	10043a <(null)+0x6>
  100a1a:	d1ddcbaf          	0xd1ddcbaf
  100a1e:	d1c9e5af          	0xd1c9e5af
  100a22:	841d                	srai	s0,s0,0x7
  100a24:	7659                	lui	a2,0xffff6
  100a26:	ce32                	sw	a2,28(sp)
  100a28:	3ccd                	jal	10051a <(null)+0xa8>
  100a2a:	d1ddcb6f          	jal	s6,dd746 <(null)+0xbd73e>
  100a2e:	d1f9e56f          	jal	a0,9f74c <(null)+0x7f744>
  100a32:	845d                	srai	s0,s0,0x17
  100a34:	7e19                	lui	t3,0xfffe6
  100a36:	ce72                	sw	t3,28(sp)
  100a38:	3489                	jal	10047a <(null)+0x8>
  100a3a:	d1ddcb2f          	0xd1ddcb2f
  100a3e:	d159e52f          	0xd159e52f
  100a42:	859d                	srai	a1,a1,0x7
  100a44:	77bd                	lui	a5,0xfffef
  100a46:	cfb2                	sw	a2,220(sp)
  100a48:	3d49                	jal	1008da <(null)+0x6a>
  100a4a:	d1ddcaef          	jal	s5,dd766 <(null)+0xbd75e>
  100a4e:	d199e4ef          	jal	s1,9f766 <(null)+0x7f75e>
  100a52:	85dd                	srai	a1,a1,0x17
  100a54:	7ffd                	lui	t6,0xfffff
  100a56:	cff2                	sw	t3,220(sp)
  100a58:	35cd                	jal	10093a <(null)+0xca>
  100a5a:	d3700a3f ff3784df 	0xff3784dfd3700a3f
  100a62:	0adf d330 dcf5      	0xdcf5d3300adf
  100a68:	f5378f07          	0xf5378f07
  100a6c:	d7500ae7          	jalr	s5,-651(zero) # 0 <(null)-0x2000>
  100a70:	fb378167          	jalr	sp,-77(a5) # fffeefb3 <(null)+0xffeb6fa3>
  100a74:	d7100a87          	0xd7100a87
  100a78:	f9378347          	fmsub.s	ft6,fa5,fs3,ft11,rne
  100a7c:	d5100aa7          	0xd5100aa7
  100a80:	fb3780a7          	0xfb3780a7
  100a84:	cc01                	beqz	s0,100a9c <(null)+0x22c>
  100a86:	2c6789cf          	0x2c6789cf
  100a8a:	f9ff                	0xf9ff
  100a8c:	08efde27          	0x8efde27
  100a90:	d4e0                	sw	s0,108(s1)
  100a92:	8a9f d1cd ee7f      	0xee7fd1cd8a9f
  100a98:	d526                	sw	s1,168(sp)
  100a9a:	d1c0689b          	0xd1c0689b
  100a9e:	8ce2                	mv	s9,s8
  100aa0:	fc568857          	0xfc568857
  100aa4:	1c36                	slli	s8,s8,0x2d
  100aa6:	c814                	sw	a3,16(s0)
  100aa8:	0c32                	slli	s8,s8,0xc
  100aaa:	e77f                	0xe77f
  100aac:	d3d9                	beqz	a5,100a32 <(null)+0x1c2>
  100aae:	cc2d                	beqz	s0,100b28 <(null)+0x2b8>
  100ab0:	d5d9e697          	auipc	a3,0xd5d9e
  100ab4:	d12706f7          	0xd12706f7
  100ab8:	cc79                	beqz	s0,100b96 <(null)+0x326>
  100aba:	d1270bcf          	fnmadd.s	fs7,fa4,fs2,fs10,rne
  100abe:	cc79                	beqz	s0,100b9c <(null)+0x32c>
  100ac0:	972702a7          	0x972702a7
  100ac4:	d1dca957          	0xd1dca957
  100ac8:	86a1                	srai	a3,a3,0x8
  100aca:	0d9a                	slli	s11,s11,0x6
  100acc:	0d6a                	slli	s10,s10,0x1a
  100ace:	cce9                	beqz	s1,100ba8 <(null)+0x338>
  100ad0:	8b3c                	0x8b3c
  100ad2:	0f06                	slli	t5,t5,0x1
  100ad4:	b039                	j	1002e2 <(null)+0x56>
  100ad6:	cdf2                	sw	t3,216(sp)
  100ad8:	d1ddc127          	fsq	ft9,-766(s11)
  100adc:	0fde02d7          	0xfde02d7
  100ae0:	3fd9                	jal	100ab6 <(null)+0x246>
  100ae2:	cd15                	beqz	a0,100b1e <(null)+0x2ae>
  100ae4:	fb270e37          	lui	t3,0xfb270
  100ae8:	d1ac8cf7          	0xd1ac8cf7
  100aec:	2e537ce7          	0x2e537ce7
  100af0:	cd6a                	sw	s10,152(sp)
  100af2:	031f d153 3d05      	0x3d05d153031f
  100af8:	cd75                	beqz	a0,100bf4 <(null)+0x384>
  100afa:	d12707cf          	fnmadd.s	fa5,fa4,fs2,fs10,rne
  100afe:	cd61                	beqz	a0,100bd6 <(null)+0x366>
  100b00:	d1270d27          	0xd1270d27
  100b04:	ca91                	beqz	a3,100b18 <(null)+0x2a8>
  100b06:	95270cbf d1dcae6f 	0xd1dcae6f95270cbf
  100b0e:	81b9                	srli	a1,a1,0xe
  100b10:	051e                	slli	a0,a0,0x7
  100b12:	0afa                	slli	s5,s5,0x1e
  100b14:	0a0a                	slli	s4,s4,0x2
  100b16:	cbe1                	beqz	a5,100be6 <(null)+0x376>
  100b18:	8c1c                	0x8c1c
  100b1a:	0826                	slli	a6,a6,0x9
  100b1c:	b7f9                	j	100aea <(null)+0x27a>
  100b1e:	320d                	jal	100440 <(null)+0xc>
  100b20:	ca2a                	sw	a0,20(sp)
  100b22:	0fdf ee20 61bf      	0x61bfee200fdf
  100b28:	0fffd127          	0xfffd127
  100b2c:	a0d1                	j	100bf0 <(null)+0x380>
  100b2e:	d3800e6f          	jal	t3,1066 <(null)-0xf9a>
  100b32:	1ae6                	slli	s5,s5,0x39
  100b34:	110708b7          	lui	a7,0x11070
  100b38:	8a75                	andi	a2,a2,29
  100b3a:	4ac6                	lw	s5,80(sp)
  100b3c:	3291                	jal	100480 <(null)+0xe>
  100b3e:	cbed                	beqz	a5,100c30 <(null)+0x3c0>
  100b40:	cbaa                	sw	a0,212(sp)
  100b42:	8fdf d19c 08bf      	0x8bfd19c8fdf
  100b48:	ca31ed17          	auipc	s10,0xca31e
  100b4c:	eb170197          	auipc	gp,0xeb170
  100b50:	ca41                	beqz	a2,100be0 <(null)+0x370>
  100b52:	ed170bef          	jal	s7,71a22 <(null)+0x51a1a>
  100b56:	ae1f d1dc 00ce      	0xced1dcae1f
  100b5c:	4f7c                	lw	a5,92(a4)
  100b5e:	cbd2                	sw	s4,212(sp)
  100b60:	3335                	jal	10088c <(null)+0x1c>
  100b62:	cb15                	beqz	a4,100b96 <(null)+0x326>
  100b64:	e7270737          	lui	a4,0xe7270
  100b68:	d1ac8af7          	0xd1ac8af7
  100b6c:	2e537ae7          	0x2e537ae7
  100b70:	d1d32c07          	flw	fs8,-739(t1)
  100b74:	d1932f97          	auipc	t6,0xd1932
  100b78:	d6d105b7          	lui	a1,0xd6d10
  100b7c:	0982                	c.slli64	s3
  100b7e:	d153052f          	0xd153052f
  100b82:	cf505aa3          	0xcf505aa3
  100b86:	d85e                	sw	s7,48(sp)
  100b88:	d276                	sw	t4,36(sp)
  100b8a:	d45e                	sw	s7,40(sp)
  100b8c:	d5d6                	sw	s5,232(sp)
  100b8e:	4f9f f5d4 c899      	0xc899f5d44f9f
  100b94:	0562                	slli	a0,a0,0x18
  100b96:	d97f                	0xd97f
  100b98:	c539d157          	0xc539d157
  100b9c:	9fec                	0x9fec
  100b9e:	0a0a                	slli	s4,s4,0x2
  100ba0:	552a                	lw	a0,168(sp)
  100ba2:	4ba2                	lw	s7,8(sp)
  100ba4:	576a                	lw	a4,184(sp)
  100ba6:	5352                	lw	t1,52(sp)
  100ba8:	5166                	lw	sp,120(sp)
  100baa:	5f3a                	lw	t5,172(sp)
  100bac:	5d22                	lw	s10,40(sp)
  100bae:	5b2a                	lw	s6,168(sp)
  100bb0:	5952                	lw	s2,52(sp)
  100bb2:	bc802a63          	0xbc802a63
  100bb6:	c8ea                	sw	s10,80(sp)
  100bb8:	f3d54d47          	fmsub.d	fs10,fa0,ft9,ft10,rmm
  100bbc:	0a82                	c.slli64	s5
  100bbe:	5552                	lw	a0,52(sp)
  100bc0:	56fa                	lw	a3,188(sp)
  100bc2:	52c2                	lw	t0,48(sp)
  100bc4:	50d6                	lw	ra,116(sp)
  100bc6:	fe905bb3          	cmov	s7,s1,zero,t6
  100bca:	fcff                	0xfcff
  100bcc:	d1f9                	beqz	a1,100b92 <(null)+0x322>
  100bce:	0902                	c.slli64	s2
  100bd0:	067e                	slli	a2,a2,0x1f
  100bd2:	ffd799ef          	jal	s3,7abce <(null)+0x5abc6>
  100bd6:	d199fc8f          	0xd199fc8f
  100bda:	4246                	lw	tp,80(sp)
  100bdc:	4062                	0x4062
  100bde:	49f9                	li	s3,30
  100be0:	c915                	beqz	a0,100c14 <(null)+0x3a4>
  100be2:	40a6                	lw	ra,72(sp)
  100be4:	d3d00c47          	fmsub.d	fs8,ft0,ft9,fs10,rne
  100be8:	428e                	lw	t0,192(sp)
  100bea:	0b82                	c.slli64	s7
  100bec:	0b62                	slli	s6,s6,0x18
  100bee:	87b8                	0x87b8
  100bf0:	46ea                	lw	a3,152(sp)
  100bf2:	4a9a                	lw	s5,132(sp)
  100bf4:	b279                	j	100582 <(null)+0x110>
  100bf6:	c6ea                	sw	s10,76(sp)
  100bf8:	c9b2                	sw	a2,208(sp)
  100bfa:	91d4084f          	fnmadd.s	fa6,fs0,ft9,fs2,rne
  100bfe:	2e2a0c2f          	0x2e2a0c2f
  100c02:	4326                	lw	t1,72(sp)
  100c04:	efd79db7          	lui	s11,0xefd79
  100c08:	2e3a13f7          	0x2e3a13f7
  100c0c:	efd79497          	auipc	s1,0xefd79
  100c10:	2e0a1397          	auipc	t2,0x2e0a1
  100c14:	edd791f7          	0xedd791f7
  100c18:	2e1a13b7          	lui	t2,0x2e1a1
  100c1c:	83d79ed7          	0x83d79ed7
  100c20:	2e6a1357          	0x2e6a1357
  100c24:	81d79b37          	lui	s6,0x81d79
  100c28:	2e7a1377          	0x2e7a1377
  100c2c:	81d79017          	auipc	zero,0x81d79
  100c30:	2e4a1317          	auipc	t1,0x2e4a1
  100c34:	9fd79d77          	0x9fd79d77
  100c38:	2e5a1337          	lui	t1,0x2e5a1
  100c3c:	83d79d57          	0x83d79d57
  100c40:	2eaa12d7          	0x2eaa12d7
  100c44:	81d798b7          	lui	a7,0x81d79
  100c48:	2eba12f7          	0x2eba12f7
  100c4c:	83d79c97          	auipc	s9,0x83d79
  100c50:	2e8a1297          	auipc	t0,0x2e8a1
  100c54:	9dd794f7          	0x9dd794f7
  100c58:	2e9a12b7          	lui	t0,0x2e9a1
  100c5c:	8fd795d7          	0x8fd795d7
  100c60:	2eea1257          	0x2eea1257
  100c64:	8dd79137          	lui	sp,0x8dd79
  100c68:	2efa1277          	0x2efa1277
  100c6c:	8bd79d17          	auipc	s10,0x8bd79
  100c70:	d655                	beqz	a2,100c1c <(null)+0x3ac>
  100c72:	8907986f          	jal	a6,79d02 <(null)+0x59cfa>
  100c76:	d1c0732b          	0xd1c0732b
  100c7a:	a156b22f          	0xa156b22f
  100c7e:	a116b8bf d9cad842 	0xd9cad842a116b8bf
  100c86:	16ca                	slli	a3,a3,0x32
  100c88:	15ea                	slli	a1,a1,0x3a
  100c8a:	1602                	slli	a2,a2,0x20
  100c8c:	1576                	slli	a0,a0,0x3d
  100c8e:	5716                	lw	a4,100(sp)
  100c90:	ee5036eb          	0xee5036eb
  100c94:	156e                	slli	a0,a0,0x3b
  100c96:	16e2                	slli	a3,a3,0x38
  100c98:	1612                	slli	a2,a2,0x24
  100c9a:	dcd046c3          	0xdcd046c3
  100c9e:	c42e                	sw	a1,8(sp)
  100ca0:	9b0c                	0x9b0c
  100ca2:	1626                	slli	a2,a2,0x29
  100ca4:	5b3a                	lw	s6,172(sp)
  100ca6:	c4de                	sw	s7,72(sp)
  100ca8:	438e                	lw	t2,192(sp)
  100caa:	d41a                	sw	t1,40(sp)
  100cac:	591a                	lw	s2,164(sp)
  100cae:	c4ce                	sw	s3,72(sp)
  100cb0:	9340                	0x9340
  100cb2:	8350                	0x8350
  100cb4:	5f7a                	lw	t5,188(sp)
  100cb6:	c4be                	sw	a5,72(sp)
  100cb8:	574e                	lw	a4,240(sp)
  100cba:	5512                	lw	a0,36(sp)
  100cbc:	5d5a                	lw	s10,180(sp)
  100cbe:	536a                	lw	t1,184(sp)
  100cc0:	5092                	lw	ra,36(sp)
  100cc2:	ba4037a3          	0xba4037a3
  100cc6:	cc0e                	sw	gp,24(sp)
  100cc8:	ca26                	sw	s1,20(sp)
  100cca:	c49e                	sw	t2,72(sp)
  100ccc:	c516                	sw	t0,136(sp)
  100cce:	174a                	slli	a4,a4,0x32
  100cd0:	4aa2                	lw	s5,8(sp)
  100cd2:	442a                	lw	s0,136(sp)
  100cd4:	4882                	lw	a7,0(sp)
  100cd6:	460a                	lw	a2,128(sp)
  100cd8:	4ec6                	lw	t4,80(sp)
  100cda:	584e                	lw	a6,240(sp)
  100cdc:	4cda                	lw	s9,148(sp)
  100cde:	5a52                	lw	s4,52(sp)
  100ce0:	d120572b          	0xd120572b
  100ce4:	152e                	slli	a0,a0,0x2b
  100ce6:	14b6                	slli	s1,s1,0x2d
  100ce8:	171a                	slli	a4,a4,0x26
  100cea:	1f92                	slli	t6,t6,0x24
  100cec:	17c2                	slli	a5,a5,0x30
  100cee:	5696                	lw	a3,100(sp)
  100cf0:	c0e0576b          	0xc0e0576b
  100cf4:	d582                	sw	zero,232(sp)
  100cf6:	ccfa                	sw	t5,88(sp)
  100cf8:	cad2                	sw	s4,84(sp)
  100cfa:	5c42                	lw	s8,48(sp)
  100cfc:	c5a6                	sw	s1,200(sp)
  100cfe:	d43a                	sw	a4,40(sp)
  100d00:	c092                	sw	tp,64(sp)
  100d02:	55a2                	lw	a1,40(sp)
  100d04:	c256                	sw	s5,4(sp)
  100d06:	8594                	0x8594
  100d08:	100e                	c.slli	zero,0x23
  100d0a:	5782                	lw	a5,32(sp)
  100d0c:	c246                	sw	a7,4(sp)
  100d0e:	95b8                	0x95b8
  100d10:	5da2                	lw	s11,40(sp)
  100d12:	51e2                	lw	gp,56(sp)
  100d14:	c236                	sw	a3,4(sp)
  100d16:	5f8a                	lw	t6,160(sp)
  100d18:	59c6                	lw	s3,112(sp)
  100d1a:	53c2                	lw	t2,48(sp)
  100d1c:	c70020db          	0xc70020db
  100d20:	c296                	sw	t0,68(sp)
  100d22:	c09a                	sw	t1,64(sp)
  100d24:	951c                	0x951c
  100d26:	5d32                	lw	s10,44(sp)
  100d28:	c2a6                	sw	s1,68(sp)
  100d2a:	1006                	c.slli	zero,0x21
  100d2c:	5522                	lw	a0,40(sp)
  100d2e:	5f12                	lw	t5,36(sp)
  100d30:	c2f6                	sw	t4,68(sp)
  100d32:	575a                	lw	a4,180(sp)
  100d34:	5142                	lw	sp,48(sp)
  100d36:	5972                	lw	s2,60(sp)
  100d38:	c2c6                	sw	a7,68(sp)
  100d3a:	5b42                	lw	s6,48(sp)
  100d3c:	ee2e1783          	lh	a5,-286(t3) # fb26fee2 <(null)+0xfb137ed2>
  100d40:	52aa                	lw	t0,168(sp)
  100d42:	94c031a3          	0x94c031a3
  100d46:	d3aa                	sw	a0,228(sp)
  100d48:	c5d55a87          	0xc5d55a87
  100d4c:	d1cd1467          	0xd1cd1467
  100d50:	d07524b7          	lui	s1,0xd0752
  100d54:	01fe                	slli	gp,gp,0x1f
  100d56:	fdc031f3          	csrrc	gp,0xfdc,zero
  100d5a:	13d6                	slli	t2,t2,0x35
  100d5c:	134a                	slli	t1,t1,0x32
  100d5e:	11c2                	slli	gp,gp,0x30
  100d60:	12ae                	slli	t0,t0,0x2b
  100d62:	11fa                	slli	gp,gp,0x3e
  100d64:	5bbe                	lw	s7,236(sp)
  100d66:	59b2                	lw	s3,44(sp)
  100d68:	d1f0410b          	0xd1f0410b
  100d6c:	c376                	sw	t4,132(sp)
  100d6e:	c9ee                	sw	s11,208(sp)
  100d70:	50ee                	lw	ra,248(sp)
  100d72:	c33e                	sw	a5,132(sp)
  100d74:	5cfe                	lw	s9,252(sp)
  100d76:	c33e                	sw	a5,132(sp)
  100d78:	5ece                	lw	t4,240(sp)
  100d7a:	c36a                	sw	s10,132(sp)
  100d7c:	f1d79257          	0xf1d79257
  100d80:	2e3a15d7          	0x2e3a15d7
  100d84:	453e                	lw	a0,204(sp)
  100d86:	81d798bf 2e0a15ff 	0x2e0a15ff81d798bf
  100d8e:	9d9f 9fd7 159f      	0x159f9fd79d9f
  100d94:	2e1a                	fld	ft8,384(sp)
  100d96:	96ff                	0x96ff
  100d98:	15bf97d7          	0x15bf97d7
  100d9c:	2e6a                	fld	ft8,152(sp)
  100d9e:	9bdf 95d7 155f      	0x155f95d79bdf
  100da4:	2e7a                	fld	ft8,408(sp)
  100da6:	93d79c3f 2e4a157f 	0x2e4a157f93d79c3f
  100dae:	911f 93d7 151f      	0x151f93d7911f
  100db4:	2e5a                	fld	ft8,400(sp)
  100db6:	957f                	0x957f
  100db8:	153f91d7          	0x153f91d7
  100dbc:	2eaa                	fld	ft9,136(sp)
  100dbe:	995f efd7 14df      	0x14dfefd7995f
  100dc4:	2eba                	fld	ft9,392(sp)
  100dc6:	edd79cbf 2e8a14ff 	0x2e8a14ffedd79cbf
  100dce:	909f edd7 149f      	0x149fedd7909f
  100dd4:	2e9a                	fld	ft9,384(sp)
  100dd6:	90ff                	0x90ff
  100dd8:	14bf9bd7          	0x14bf9bd7
  100ddc:	2eea                	fld	ft9,152(sp)
  100dde:	94df 99d7 145f      	0x145f99d794df
  100de4:	2efa                	fld	ft9,408(sp)
  100de6:	97d7983f 9317d1bd 	0x9317d1bd97d7983f
  100dee:	74339737          	lui	a4,0x74339
  100df2:	d1c0                	sw	s0,36(a1)
  100df4:	a157b497          	auipc	s1,0xa157b
  100df8:	a117b427          	fsd	fa7,-1528(a5)
  100dfc:	d042                	sw	a6,32(sp)
  100dfe:	8664                	0x8664
  100e00:	1c72                	slli	s8,s8,0x3c
  100e02:	43ae                	lw	t2,200(sp)
  100e04:	dfc2                	sw	a6,252(sp)
  100e06:	41e2                	lw	gp,24(sp)
  100e08:	49b2                	lw	s3,12(sp)
  100e0a:	458e                	lw	a1,192(sp)
  100e0c:	dff2                	sw	t3,252(sp)
  100e0e:	4baa                	lw	s7,136(sp)
  100e10:	4dea                	lw	s11,152(sp)
  100e12:	47ee                	lw	a5,216(sp)
  100e14:	4ffe                	lw	t6,220(sp)
  100e16:	e6003cf3          	csrrc	s9,0xe60,zero
  100e1a:	ddd5564f          	0xddd5564f
  100e1e:	d1c07b8b          	0xd1c07b8b
  100e22:	ca57bacf          	fnmadd.d	fs5,fa5,ft5,fs9,rup
  100e26:	ba5f ca17 1cee      	0x1ceeca17ba5f
  100e2c:	1c7a                	slli	s8,s8,0x3e
  100e2e:	b4700c13          	li	s8,-1209
  100e32:	ce4a                	sw	s2,28(sp)
  100e34:	50ea                	lw	ra,184(sp)
  100e36:	52e6                	lw	t0,120(sp)
  100e38:	135a                	slli	t1,t1,0x36
  100e3a:	12d6                	slli	t0,t0,0x35
  100e3c:	85d79857          	0x85d79857
  100e40:	2e0a1ad7          	0x2e0a1ad7
  100e44:	83d795b7          	lui	a1,0x83d79
  100e48:	2e1a1af7          	0x2e1a1af7
  100e4c:	81d79197          	auipc	gp,0x81d79
  100e50:	2e6a1a97          	auipc	s5,0x2e6a1
  100e54:	81d79df7          	0x81d79df7
  100e58:	2e7a1ab7          	lui	s5,0x2e7a1
  100e5c:	9fd799d7          	0x9fd799d7
  100e60:	2e4a1a57          	0x2e4a1a57
  100e64:	9dd79537          	lui	a0,0x9dd79
  100e68:	2e5a1a77          	0x2e5a1a77
  100e6c:	9bd79617          	auipc	a2,0x9bd79
  100e70:	2eaa1a17          	auipc	s4,0x2eaa1
  100e74:	99d79377          	0x99d79377
  100e78:	2eba1a37          	lui	s4,0x2eba1
  100e7c:	99d79c57          	0x99d79c57
  100e80:	2e8a19d7          	0x2e8a19d7
  100e84:	97d79ab7          	lui	s5,0x97d79
  100e88:	2e9a19f7          	0x2e9a19f7
  100e8c:	95d79997          	auipc	s3,0x95d79
  100e90:	2eea1997          	auipc	s3,0x2eea1
  100e94:	93d794f7          	0x93d794f7
  100e98:	2efa19b7          	lui	s3,0x2efa1
  100e9c:	91d793d7          	0x91d793d7
  100ea0:	dc95                	beqz	s1,100ddc <(null)+0x56c>
  100ea2:	91379f2f          	0x91379f2f
  100ea6:	d1c0796b          	0xd1c0796b
  100eaa:	a157b9ef          	jal	s3,7c8be <(null)+0x5c8b6>
  100eae:	b97f                	0xb97f
  100eb0:	dd59a117          	auipc	sp,0xdd59a
  100eb4:	d3e2                	sw	s8,228(sp)
  100eb6:	cdca                	sw	s2,216(sp)
  100eb8:	8b7c                	0x8b7c
  100eba:	493a                	lw	s2,140(sp)
  100ebc:	d3a2                	sw	s0,228(sp)
  100ebe:	1e8a                	slli	t4,t4,0x22
  100ec0:	50a6                	lw	ra,104(sp)
  100ec2:	4eda                	lw	t4,148(sp)
  100ec4:	d252                	sw	s4,36(sp)
  100ec6:	56b2                	lw	a3,44(sp)
  100ec8:	548e                	lw	s1,224(sp)
  100eca:	4cfa                	lw	s9,156(sp)
  100ecc:	4aca                	lw	s5,144(sp)
  100ece:	52aa                	lw	t0,168(sp)
  100ed0:	aa502feb          	0xaa502feb
  100ed4:	cd86                	sw	ra,216(sp)
  100ed6:	8ac0                	0x8ac0
  100ed8:	4ace                	lw	s5,208(sp)
  100eda:	cdae                	sw	a1,216(sp)
  100edc:	48de                	lw	a7,212(sp)
  100ede:	cd8e                	sw	gp,216(sp)
  100ee0:	4e2e                	lw	t3,200(sp)
  100ee2:	cd6e                	sw	s11,152(sp)
  100ee4:	4c3e                	lw	s8,204(sp)
  100ee6:	ac805f33          	fsr	t5,zero,s5,s0
  100eea:	5792                	lw	a5,36(sp)
  100eec:	558e                	lw	a1,224(sp)
  100eee:	d1c073cb          	fnmsub.s	ft7,ft0,ft8,fs10
  100ef2:	d7d9                	beqz	a5,100e80 <(null)+0x610>
  100ef4:	bf9c1387          	0xbf9c1387
  100ef8:	5ed6                	lw	t4,116(sp)
  100efa:	52da                	lw	t0,180(sp)
  100efc:	3ac9                	jal	1008ce <(null)+0x5e>
  100efe:	c2a0182f          	0xc2a0182f
  100f02:	ab2d1a2f          	0xab2d1a2f
  100f06:	db0a                	sw	sp,180(sp)
  100f08:	dba2                	sw	s0,244(sp)
  100f0a:	186e                	slli	a6,a6,0x3b
  100f0c:	18fa                	slli	a7,a7,0x3e
  100f0e:	82600893          	li	a7,-2010
  100f12:	9448                	0x9448
  100f14:	19ea                	slli	s3,s3,0x3a
  100f16:	1966                	slli	s2,s2,0x39
  100f18:	227fe8cb          	fnmsub.d	fa7,ft11,ft7,ft4,unknown
  100f1c:	d63a                	sw	a4,44(sp)
  100f1e:	d7a2                	sw	s0,236(sp)
  100f20:	18b6                	slli	a7,a7,0x2d
  100f22:	1b42                	slli	s6,s6,0x30
  100f24:	1bd6                	slli	s7,s7,0x35
  100f26:	182a                	slli	a6,a6,0x2a
  100f28:	c7d0380b          	0xc7d0380b
  100f2c:	d1c07f43          	fmadd.s	ft10,ft0,ft8,fs10
  100f30:	ccd7be87          	fld	ft9,-819(a5)
  100f34:	cc97be17          	auipc	t3,0xcc97b
  100f38:	90f5                	srli	s1,s1,0x3d
  100f3a:	85300843          	0x85300843
  100f3e:	d1c07f0b          	0xd1c07f0b
  100f42:	cd57bf4f          	0xcd57bf4f
  100f46:	bfdf cd17 0983      	0x983cd17bfdf
  100f4c:	9e20                	0x9e20
  100f4e:	a4b03993          	sltiu	s3,zero,-1461
  100f52:	d17c1ebf d1d7de1f 	0xd1d7de1fd17c1ebf
  100f5a:	8d64                	0x8d64
  100f5c:	0b8a                	slli	s7,s7,0x2
  100f5e:	193e                	slli	s2,s2,0x2f
  100f60:	194a                	slli	s2,s2,0x32
  100f62:	da99                	beqz	a3,100e78 <(null)+0x608>
  100f64:	da01                	beqz	a2,100e74 <(null)+0x604>
  100f66:	967f                	0x967f
  100f68:	09032f37          	lui	t5,0x9032
  100f6c:	e340                	fsw	fs0,4(a4)
  100f6e:	65e9                	lui	a1,0x1a
  100f70:	c2a01e17          	auipc	t3,0xc2a01
  100f74:	d862                	sw	s8,48(sp)
  100f76:	d88a                	sw	sp,112(sp)
  100f78:	a32d15c7          	fmsub.d	fa1,fs10,fs2,fs4,rtz
  100f7c:	db1a                	sw	t1,180(sp)
  100f7e:	db82                	sw	zero,244(sp)
  100f80:	d911                	beqz	a0,100e94 <(null)+0x624>
  100f82:	1aa6                	slli	s5,s5,0x29
  100f84:	593e                	lw	s2,236(sp)
  100f86:	a0d11dcf          	fnmadd.s	fs11,ft2,fa3,fs4,rtz
  100f8a:	925f d077 d9a9      	0xd9a9d077925f
  100f90:	1a6a                	slli	s4,s4,0x3a
  100f92:	49d8122f          	0x49d8122f
  100f96:	5b72                	lw	s6,60(sp)
  100f98:	fe600acb          	fnmsub.q	fs5,ft0,ft6,ft11,rne
  100f9c:	b5d51857          	0xb5d51857
  100fa0:	d8b2                	sw	a2,112(sp)
  100fa2:	d82a                	sw	a0,48(sp)
  100fa4:	d501                	beqz	a0,100eac <(null)+0x63c>
  100fa6:	cc5111cf          	0xcc5111cf
  100faa:	579e                	lw	a5,228(sp)
  100fac:	5582                	lw	a1,32(sp)
  100fae:	3f91                	jal	100f02 <(null)+0x692>
  100fb0:	c2a01c17          	auipc	s8,0xc2a01
  100fb4:	d8e2                	sw	s8,112(sp)
  100fb6:	d87a                	sw	t5,48(sp)
  100fb8:	d10a9647          	fmsub.s	fa2,fs5,fa6,fs10,rtz
  100fbc:	d9e2                	sw	s8,240(sp)
  100fbe:	d97a                	sw	t5,176(sp)
  100fc0:	1b2a                	slli	s6,s6,0x2a
  100fc2:	1ba6                	slli	s7,s7,0x29
  100fc4:	99800bbb          	0x99800bbb
  100fc8:	9700                	0x9700
  100fca:	1a92                	slli	s5,s5,0x24
  100fcc:	1a0e                	slli	s4,s4,0x23
  100fce:	399feb93          	ori	s7,t6,921
  100fd2:	d932                	sw	a2,176(sp)
  100fd4:	d9ba                	sw	a4,240(sp)
  100fd6:	1b6e                	slli	s6,s6,0x3b
  100fd8:	184a                	slli	a6,a6,0x32
  100fda:	18c6                	slli	a7,a7,0x31
  100fdc:	1bc2                	slli	s7,s7,0x30
  100fde:	5a52                	lw	s4,52(sp)
  100fe0:	58ae                	lw	a7,232(sp)
  100fe2:	dbb03b23          	0xdbb03b23
  100fe6:	d1c07c6b          	0xd1c07c6b
  100fea:	ccd7bdef          	jal	s11,7ccb6 <(null)+0x5ccae>
  100fee:	bd7f                	0xbd7f
  100ff0:	945dcc97          	auipc	s9,0x945dc
  100ff4:	98900b7b          	0x98900b7b
  100ff8:	d1c07c13          	andi	s8,zero,-740
  100ffc:	cd57bdb7          	lui	s11,0xcd57b
  101000:	cd17c2c7          	0xcd17c2c7
  101004:	958074bb          	0x958074bb
  101008:	b810448b          	0xb810448b
  10100c:	d17c62c7          	fmsub.s	ft5,fs8,fs7,fs10,unknown
  101010:	d1d6ac87          	flw	fs9,-739(a3) # d5e9e7cd <(null)+0xd5d667bd>
  101014:	a662                	fsd	fs8,264(sp)
  101016:	a6fa                	fsd	ft10,328(sp)
  101018:	d08b6c17          	auipc	s8,0xd08b6
  10101c:	a761                	j	1017a4 <(null)+0xf34>
  10101e:	a7e9                	j	1017e8 <(null)+0xf78>
  101020:	64aa                	flw	fs1,136(sp)
  101022:	6426                	flw	fs0,72(sp)
  101024:	2ec86b77          	0x2ec86b77
  101028:	f760740b          	0xf760740b
  10102c:	10f1                	addi	ra,ra,-4
  10102e:	c2a0636f          	jal	t1,7458 <(null)+0x5458>
  101032:	a51a                	fsd	ft6,136(sp)
  101034:	a592                	fsd	ft4,200(sp)
  101036:	908a6a2f          	0x908a6a2f
  10103a:	a32aefcf          	fnmadd.d	ft11,fs5,fs2,fs4,unknown
  10103e:	a61a                	fsd	ft6,264(sp)
  101040:	90796377          	0x90796377
  101044:	90966367          	0x90966367
  101048:	f64d                	bnez	a2,100ff2 <(null)+0x782>
  10104a:	6e25                	lui	t3,0x9
  10104c:	a0d162e7          	0xa0d162e7
  101050:	7786                	flw	fa5,96(sp)
  101052:	a09f 2e2e 220f      	0x220f2e2ea09f
  101058:	2e26                	fld	ft8,72(sp)
  10105a:	6585                	lui	a1,0x1
  10105c:	671d                	lui	a4,0x7
  10105e:	e11f 7dd7 935f      	0x935f7dd7e11f
  101064:	d1c9                	beqz	a1,100fe6 <(null)+0x776>
  101066:	a732                	fsd	fa2,392(sp)
  101068:	d16e9057          	0xd16e9057
  10106c:	6fd1                	lui	t6,0x14
  10106e:	e89f 89d6 62bf      	0x62bf89d6e89f
  101074:	9130                	0x9130
  101076:	a6aa                	fsd	fa0,328(sp)
  101078:	2ae9                	jal	101252 <(null)+0x9e2>
  10107a:	ee20633f d12682df 	0xd12682dfee20633f
  101082:	60df a0d1 75b6      	0x75b6a0d160df
  101088:	1116e647          	fmsub.s	fa2,fa3,fa7,ft2,unknown
  10108c:	e4a5                	bnez	s1,1010f4 <(null)+0x884>
  10108e:	f23c                	fsw	fa5,96(a2)
  101090:	75ba                	flw	fa1,172(sp)
  101092:	d12be03f d126e9af 	0xd126e9afd12be03f
  10109a:	ee20693f 910fe30f 	0x910fe30fee20693f
  1010a2:	d17f00af          	0xd17f00af
  1010a6:	a3df 2e26 66cf      	0x66cf2e26a3df
  1010ac:	d176                	sw	t4,160(sp)
  1010ae:	f555                	bnez	a0,10105a <(null)+0x7ea>
  1010b0:	f2d8                	fsw	fa4,36(a3)
  1010b2:	e5dd                	bnez	a1,101160 <(null)+0x8f0>
  1010b4:	2f057377          	0x2f057377
  1010b8:	741a                	flw	fs0,164(sp)
  1010ba:	24c6                	fld	fs1,80(sp)
  1010bc:	2bd1                	jal	101690 <(null)+0xe20>
  1010be:	ee20602f          	0xee20602f
  1010c2:	d1268e2f          	0xd1268e2f
  1010c6:	a0d161cf          	fnmadd.s	ft3,ft2,fa3,fs4,unknown
  1010ca:	617f                	0x617f
  1010cc:	d330                	sw	a2,96(a4)
  1010ce:	7496                	flw	fs1,100(sp)
  1010d0:	1116e727          	0x1116e727
  1010d4:	d1c7e207          	0xd1c7e207
  1010d8:	255a                	fld	fa0,400(sp)
  1010da:	bbdae74f          	fnmadd.d	fa4,fs5,ft9,fs7,unknown
  1010de:	cc516c2f          	0xcc516c2f
  1010e2:	a49d                	j	101348 <(null)+0xad8>
  1010e4:	d08b6167          	0xd08b6167
  1010e8:	756e                	flw	fa0,248(sp)
  1010ea:	61df 90a6 68ef      	0x68ef90a661df
  1010f0:	ee20                	fsw	fs0,88(a2)
  1010f2:	d1266fbf d0df01ff 	0xd0df01ffd1266fbf
  1010fa:	2e26afaf          	0x2e26afaf
  1010fe:	e71f d0d7 f3e5      	0xf3e5d0d7e71f
  101104:	e285                	bnez	a3,101124 <(null)+0x8b4>
  101106:	2f0b76bf d08567df 	0xd08567df2f0b76bf
  10110e:	2216                	fld	ft4,320(sp)
  101110:	f0003667          	0xf0003667
  101114:	ee206687          	0xee206687
  101118:	d1268947          	fmsub.s	fs2,fa3,fs2,fs10,rne
  10111c:	a0d166a7          	0xa0d166a7
  101120:	d2d066d7          	0xd2d066d7
  101124:	733e                	flw	ft6,236(sp)
  101126:	e0ff                	0xe0ff
  101128:	1116                	slli	sp,sp,0x25
  10112a:	e6ff                	0xe6ff
  10112c:	2e25                	jal	101464 <(null)+0xbf4>
  10112e:	d1c7e66f          	jal	a2,7f64a <(null)+0x5f642>
  101132:	cfd663ef          	jal	t2,67e2e <(null)+0x47e26>
  101136:	ee20668f          	0xee20668f
  10113a:	d10609cf          	fnmadd.s	fs3,fa2,fa6,fs10,rne
  10113e:	a0d166af          	0xa0d166af
  101142:	72aa                	flw	ft5,168(sp)
  101144:	d2d06747          	fmsub.d	fa4,ft0,fa3,fs10,unknown
  101148:	1116e147          	fmsub.s	ft2,fa3,fa7,ft2,unknown
  10114c:	2e35e767          	0x2e35e767
  101150:	d1f7e797          	auipc	a5,0xd1f7e
  101154:	cdd66377          	0xcdd66377
  101158:	ee206737          	lui	a4,0xee206
  10115c:	d1060857          	0xd1060857
  101160:	a0d167d7          	0xa0d167d7
  101164:	7232                	flw	ft4,44(sp)
  101166:	d2d067cf          	fnmadd.d	fa5,ft0,fa3,fs10,unknown
  10116a:	1116e1cf          	fnmadd.s	ft3,fa3,fa7,ft2,unknown
  10116e:	2e05e7ef          	jal	a5,15f44e <(null)+0x2743e>
  101172:	e71f d1e7 60ff      	0x60ffd1e7e71f
  101178:	cbd6                	sw	s5,212(sp)
  10117a:	ee2067bf d10608df 	0xd10608dfee2067bf
  101182:	645f a0d1 71ba      	0x71baa0d1645f
  101188:	d2d06477          	0xd2d06477
  10118c:	1116e257          	0x1116e257
  101190:	2e15e417          	auipc	s0,0x2e15e
  101194:	d197e487          	0xd197e487
  101198:	c9d66247          	fmsub.s	ft4,fa2,ft9,fs9,unknown
  10119c:	ee206427          	0xee206427
  1011a0:	d1060ba7          	0xd1060ba7
  1011a4:	a0d164c7          	fmsub.s	fs1,ft2,fa3,fs4,unknown
  1011a8:	7102                	flw	ft2,32(sp)
  1011aa:	64ff                	0x64ff
  1011ac:	d2d0                	sw	a2,36(a3)
  1011ae:	e2df 1116 e49f      	0xe49f1116e2df
  1011b4:	2e65                	jal	10156c <(null)+0xcfc>
  1011b6:	d187e40f          	0xd187e40f
  1011ba:	c5d66dcf          	0xc5d66dcf
  1011be:	ee2064af          	0xee2064af
  1011c2:	d1060a2f          	0xd1060a2f
  1011c6:	a0d1654f          	fnmadd.s	fa0,ft2,fa3,fs4,unknown
  1011ca:	708a                	flw	ft1,160(sp)
  1011cc:	d2d06567          	0xd2d06567
  1011d0:	1116e327          	0x1116e327
  1011d4:	2e75e507          	0x2e75e507
  1011d8:	d1b7e5b7          	lui	a1,0xd1b7e
  1011dc:	c3d66d57          	0xc3d66d57
  1011e0:	ee2065d7          	0xee2065d7
  1011e4:	d1060ab7          	lui	s5,0xd1060
  1011e8:	a0d165f7          	0xa0d165f7
  1011ec:	7012                	flw	ft0,36(sp)
  1011ee:	d2d065ef          	jal	a1,7f1a <(null)+0x5f1a>
  1011f2:	1116e3af          	0x1116e3af
  1011f6:	2e45e58f          	0x2e45e58f
  1011fa:	d1a7e53f c1d66edf 	0xc1d66edfd1a7e53f
  101202:	6a5f ee20 053f      	0x53fee206a5f
  101208:	d106                	sw	ra,160(sp)
  10120a:	6a7f                	0x6a7f
  10120c:	a0d1                	j	1012d0 <(null)+0xa60>
  10120e:	7f9a                	flw	ft11,164(sp)
  101210:	d2d06a17          	auipc	s4,0xd2d06
  101214:	1116ec37          	lui	s8,0x1116e
  101218:	2e55ea37          	lui	s4,0x2e55e
  10121c:	d157eaa7          	0xd157eaa7
  101220:	27f5                	jal	101a0c <(null)+0x119c>
  101222:	6adf ee20 05bf      	0x5bfee206adf
  101228:	d106                	sw	ra,160(sp)
  10122a:	6aff                	0x6aff
  10122c:	a0d1                	j	1012f0 <(null)+0xa80>
  10122e:	7f1a                	flw	ft10,164(sp)
  101230:	d2d06a97          	auipc	s5,0xd2d06
  101234:	1116ecb7          	lui	s9,0x1116e
  101238:	2ea5eab7          	lui	s5,0x2ea5e
  10123c:	d147ea27          	0xd147ea27
  101240:	2671                	jal	1015cc <(null)+0xd5c>
  101242:	6b5f ee20 043f      	0x43fee206b5f
  101248:	d106                	sw	ra,160(sp)
  10124a:	6b7f                	0x6b7f
  10124c:	a0d1                	j	101310 <(null)+0xaa0>
  10124e:	7e9a                	flw	ft9,164(sp)
  101250:	d2d06b17          	auipc	s6,0xd2d06
  101254:	1116ed37          	lui	s10,0x1116e
  101258:	2eb5eb37          	lui	s6,0x2eb5e
  10125c:	d177eba7          	0xd177eba7
  101260:	26d5                	jal	101644 <(null)+0xdd4>
  101262:	6bdf ee20 04bf      	0x4bfee206bdf
  101268:	d106                	sw	ra,160(sp)
  10126a:	6bff                	0x6bff
  10126c:	a0d1                	j	101330 <(null)+0xac0>
  10126e:	7e1a                	flw	ft8,164(sp)
  101270:	d2d06b97          	auipc	s7,0xd2d06
  101274:	1116edb7          	lui	s11,0x1116e
  101278:	2e85ebb7          	lui	s7,0x2e85e
  10127c:	d167eb27          	0xd167eb27
  101280:	2551                	jal	101904 <(null)+0x1094>
  101282:	685f ee20 073f      	0x73fee20685f
  101288:	d106                	sw	ra,160(sp)
  10128a:	687f                	0x687f
  10128c:	a0d1                	j	101350 <(null)+0xae0>
  10128e:	7d9a                	flw	fs11,164(sp)
  101290:	d2d06817          	auipc	a6,0xd2d06
  101294:	1116ee37          	lui	t3,0x1116e
  101298:	2e95e837          	lui	a6,0x2e95e
  10129c:	d117e8a7          	0xd117e8a7
  1012a0:	25b5                	jal	10190c <(null)+0x109c>
  1012a2:	68df ee20 07bf      	0x7bfee2068df
  1012a8:	d106                	sw	ra,160(sp)
  1012aa:	68ff                	0x68ff
  1012ac:	a0d1                	j	101370 <(null)+0xb00>
  1012ae:	7d1a                	flw	fs10,164(sp)
  1012b0:	d2d06897          	auipc	a7,0xd2d06
  1012b4:	1116eeb7          	lui	t4,0x1116e
  1012b8:	2ee5e8b7          	lui	a7,0x2ee5e
  1012bc:	d107e827          	0xd107e827
  1012c0:	2431                	jal	1014cc <(null)+0xc5c>
  1012c2:	695f ee20 063f      	0x63fee20695f
  1012c8:	d106                	sw	ra,160(sp)
  1012ca:	697f                	0x697f
  1012cc:	a0d1                	j	101390 <(null)+0xb20>
  1012ce:	7c9a                	flw	fs9,164(sp)
  1012d0:	d2d06917          	auipc	s2,0xd2d06
  1012d4:	1116ef37          	lui	t5,0x1116e
  1012d8:	2ef5e937          	lui	s2,0x2ef5e
  1012dc:	d137e9a7          	0xd137e9a7
  1012e0:	2495                	jal	101544 <(null)+0xcd4>
  1012e2:	6adf ee20 06bf      	0x6bfee206adf
  1012e8:	d105                	beqz	a0,101208 <(null)+0x998>
  1012ea:	6aff                	0x6aff
  1012ec:	a0d1                	j	1013b0 <(null)+0xb40>
  1012ee:	7c02                	flw	fs8,32(sp)
  1012f0:	d2d06a97          	auipc	s5,0xd2d06
  1012f4:	1176efb7          	lui	t6,0x1176e
  1012f8:	aff5                	j	101af4 <(null)+0x1284>
  1012fa:	d127e93f d17662df 	0xd17662dfd127e93f
  101302:	6e5f ee20 013f      	0x13fee206e5f
  101308:	d106                	sw	ra,160(sp)
  10130a:	6e7f                	0x6e7f
  10130c:	a0d1                	j	1013d0 <(null)+0xb60>
  10130e:	7b9a                	flw	fs7,164(sp)
  101310:	d2d06e17          	auipc	t3,0xd2d06
  101314:	1116e837          	lui	a6,0x1116e
  101318:	7ade                	flw	fs5,244(sp)
  10131a:	2a46                	fld	fs4,80(sp)
  10131c:	2bd76557          	0x2bd76557
  101320:	d12bee77          	0xd12bee77
  101324:	9137efe7          	0x9137efe7
  101328:	ee206ef7          	0xee206ef7
  10132c:	d3d06d67          	0xd3d06d67
  101330:	d1260ce7          	jalr	s9,-750(a2) # 9be79b7e <(null)+0x9bd41b6e>
  101334:	d166e8b7          	lui	a7,0xd166e
  101338:	ea75                	bnez	a2,10142c <(null)+0xbbc>
  10133a:	eb7d                	bnez	a4,101430 <(null)+0xbc0>
  10133c:	2f37f257          	0x2f37f257
  101340:	2b2e                	fld	fs6,200(sp)
  101342:	28bf9923          	sh	a1,658(t6) # 1176e292 <(null)+0x11636282>
  101346:	abb2                	fsd	fa2,464(sp)
  101348:	ee206ff7          	0xee206ff7
  10134c:	d19cee67          	0xd19cee67
  101350:	d1268067          	jr	-750(a3)
  101354:	d1dccf17          	auipc	t5,0xd1dcc
  101358:	a0d16fb7          	lui	t6,0xa0d16
  10135c:	7ade                	flw	fs5,244(sp)
  10135e:	e91f 1116 eb1d      	0xeb1d1116e91f
  101364:	2bbe                	fld	fs7,456(sp)
  101366:	6032                	flw	ft0,12(sp)
  101368:	26df998b          	0x26df998b
  10136c:	d1fdeee7          	0xd1fdeee7
  101370:	ab6a                	fsd	fs10,400(sp)
  101372:	617e                	flw	ft2,220(sp)
  101374:	687a                	flw	fa6,156(sp)
  101376:	27ff99f3          	csrrw	s3,0x27f,t6
  10137a:	ab7d                	j	101938 <(null)+0x10c8>
  10137c:	d5d981a7          	0xd5d981a7
  101380:	d1276227          	0xd1276227
  101384:	a889                	j	1013d6 <(null)+0xb66>
  101386:	d1276f3f 6717a8a9 	0x6717a8a9d1276f3f
  10138e:	cc07e927          	0xcc07e927
  101392:	d1dc                	sw	a5,36(a1)
  101394:	e3d1                	bnez	a5,101418 <(null)+0xba8>
  101396:	261f9a73          	csrrw	s4,0x261,t6
  10139a:	b885                	j	100c0a <(null)+0x39a>
  10139c:	d1dcc037          	lui	zero,0xd1dcc
  1013a0:	e301                	bnez	a4,1013a0 <(null)+0xb30>
  1013a2:	c1246aaf          	0xc1246aaf
  1013a6:	d0f03dbf d1d42f8f 	0xd1d42f8fd0f03dbf
  1013ae:	399f d0f4 6b92      	0x6b92d0f4399f
  1013b4:	e3da6bf7          	0xe3da6bf7
  1013b8:	d1da2d27          	fsw	ft9,-742(s4) # 2e55dd1a <(null)+0x2e425d0a>
  1013bc:	edd7ebd7          	0xedd7ebd7
  1013c0:	a991                	j	101814 <(null)+0xfa4>
  1013c2:	e99d                	bnez	a1,1013f8 <(null)+0xb88>
  1013c4:	d12a6c67          	0xd12a6c67
  1013c8:	d1d72c67          	0xd1d72c67
  1013cc:	155d                	addi	a0,a0,-9
  1013ce:	91296ccf          	fnmadd.s	fs9,fs2,fs2,fs2,unknown
  1013d2:	ac1f 2e27 6935      	0x69352e27ac1f
  1013d8:	d1c992b7          	lui	t0,0xd1c99
  1013dc:	611d                	addi	sp,sp,416
  1013de:	f35f cbd9 3aaf      	0x3aafcbd9f35f
  1013e4:	e920                	fsw	fs0,80(a0)
  1013e6:	3f5033bf 6b9aa902 	0x6b9aa9023f5033bf
  1013ee:	91576e4f          	fnmadd.s	ft8,fa4,fs5,fs2,unknown
  1013f2:	d12bed3f ee206d8f 	0xee206d8fd12bed3f
  1013fa:	d3d063bf d1260fdf 	0xd1260fdfd3d063bf
  101402:	d0d6f46f          	jal	s0,7110e <(null)+0x51106>
  101406:	e675                	bnez	a2,1014f2 <(null)+0xc82>
  101408:	f6b5                	bnez	a3,101374 <(null)+0xb04>
  10140a:	7ddf 9135 7e1f      	0x7e1f91357ddf
  101410:	f7dde5d7          	0xf7dde5d7
  101414:	2f6761f7          	0x2f6761f7
  101418:	364e                	fld	fa2,240(sp)
  10141a:	d1da32af          	0xd1da32af
  10141e:	f95f 3bd6 aeaf      	0xaeaf3bd6f95f
  101424:	3b59                	jal	1011ba <(null)+0x94a>
  101426:	b7b2                	fsd	fa2,488(sp)
  101428:	ee207af7          	0xee207af7
  10142c:	d1147cc7          	fmsub.s	fs9,fs0,fa7,fs10
  101430:	90e87cb7          	lui	s9,0x90e87
  101434:	d11bf127          	0xd11bf127
  101438:	7642                	flw	fa2,48(sp)
  10143a:	fd1f 9119 10df      	0x10df9119fd1f
  101440:	d12e                	sw	a1,160(sp)
  101442:	d105f56f          	jal	a0,60952 <(null)+0x4094a>
  101446:	f78d                	bnez	a5,101370 <(null)+0xb00>
  101448:	9117f3d7          	0x9117f3d7
  10144c:	371e                	fld	fa4,480(sp)
  10144e:	66fa                	flw	fa3,156(sp)
  101450:	d1d6b387          	fld	ft7,-739(a3)
  101454:	d129f027          	0xd129f027
  101458:	c5d6f647          	0xc5d6f647
  10145c:	f5e5                	bnez	a1,101444 <(null)+0xbd4>
  10145e:	e5df 2ed7 85a3      	0x85a32ed7e5df
  101464:	369f d3df d1dc      	0xd1dcd3df369f
  10146a:	78f6                	flw	fa7,124(sp)
  10146c:	fc31                	bnez	s0,1013c8 <(null)+0xb58>
  10146e:	341f8593          	addi	a1,t6,833 # a0d16341 <(null)+0xa0bde331>
  101472:	b75d                	j	101418 <(null)+0xba8>
  101474:	d5d99d87          	0xd5d99d87
  101478:	d1277dc7          	fmsub.s	fs11,fa4,fs2,fs10
  10147c:	b769                	j	101406 <(null)+0xb96>
  10147e:	70df d127 b489      	0xb489d12770df
  101484:	f5277637          	lui	a2,0xf5277
  101488:	d1dcd067          	0xd1dcd067
  10148c:	ffb1                	bnez	a5,1013e8 <(null)+0xb78>
  10148e:	748a                	flw	fs1,160(sp)
  101490:	741a                	flw	fs0,164(sp)
  101492:	b5f9                	j	101360 <(null)+0xaf0>
  101494:	f22c                	fsw	fa1,96(a2)
  101496:	7616                	flw	fa2,100(sp)
  101498:	2c6f96cb          	0x2c6f96cb
  10149c:	b4da                	fsd	fs6,104(sp)
  10149e:	327f8653          	0x327f8653
  1014a2:	76ca                	flw	fa3,176(sp)
  1014a4:	a090763b          	0xa090763b
  1014a8:	779a                	flw	fa5,164(sp)
  1014aa:	4e4d                	li	t3,19
  1014ac:	d1ddb177          	0xd1ddb177
  1014b0:	d1cdfe17          	auipc	t3,0xd1cdf
  1014b4:	05d7fff7          	0x5d7fff7
  1014b8:	7e36                	flw	ft8,108(sp)
  1014ba:	55d6d1af          	0x55d6d1af
  1014be:	d1c7e0af          	0xd1c7e0af
  1014c2:	652a                	flw	fa0,136(sp)
  1014c4:	d1d72057          	0xd1d72057
  1014c8:	7921                	lui	s2,0xfffe8
  1014ca:	3125                	jal	1010f2 <(null)+0x882>
  1014cc:	2e243067          	0x2e243067
  1014d0:	752d                	lui	a0,0xfffeb
  1014d2:	7e21                	lui	t3,0xfffe8
  1014d4:	2cd7f107          	0x2cd7f107
  1014d8:	d1f46037          	lui	zero,0xd1f46
  1014dc:	d1ddb0b7          	lui	ra,0xd1ddb
  1014e0:	66aa                	flw	fa3,136(sp)
  1014e2:	f69e                	fsw	ft7,108(sp)
  1014e4:	66b2                	flw	fa3,12(sp)
  1014e6:	ff0d                	bnez	a4,101420 <(null)+0xbb0>
  1014e8:	0959                	addi	s2,s2,22
  1014ea:	b502                	fsd	ft0,168(sp)
  1014ec:	6f7f879b          	0x6f7f879b
  1014f0:	d3707097          	auipc	ra,0xd3707
  1014f4:	0737ebf7          	0x737ebf7
  1014f8:	d1ddb027          	fsd	ft9,-768(s11) # 1116dd00 <(null)+0x11035cf0>
  1014fc:	d1dcd3b7          	lui	t2,0xd1dcd
  101500:	d19cf357          	0xd19cf357
  101504:	d1cdf8c7          	fmsub.s	fa7,fs11,ft8,fs10
  101508:	1fd7ff07          	0x1fd7ff07
  10150c:	78e6                	flw	fa7,120(sp)
  10150e:	79b2                	flw	fs3,44(sp)
  101510:	041f806b          	0x41f806b
  101514:	d1ddb797          	auipc	a5,0xd1ddb
  101518:	d537fd47          	0xd537fd47
  10151c:	f8e5                	bnez	s1,10150c <(null)+0xc9c>
  10151e:	f45f 1fd7 b291      	0xb2911fd7f45f
  101524:	07ff80bb          	0x7ff80bb
  101528:	d1ddb767          	0xd1ddb767
  10152c:	d1cdf867          	0xd1cdf867
  101530:	1dd7fbe7          	0x1dd7fbe7
  101534:	7806                	flw	fa6,96(sp)
  101536:	b2cd                	j	100f18 <(null)+0x6a8>
  101538:	053f80cb          	0x53f80cb
  10153c:	d1ddb737          	lui	a4,0xd1ddb
  101540:	d1cdf9d7          	0xd1cdf9d7
  101544:	1dd7f037          	lui	zero,0x1dd7f
  101548:	79f6                	flw	fs3,124(sp)
  10154a:	b335                	j	101276 <(null)+0xa06>
  10154c:	027f811b          	0x27f811b
  101550:	d1ddb687          	fld	fa3,-739(s11)
  101554:	d1dcd817          	auipc	a6,0xd1dcd
  101558:	d19cf237          	lui	tp,0xd19cf
  10155c:	d1cdf9a7          	0xd1cdf9a7
  101560:	1bd7f2a7          	0x1bd7f2a7
  101564:	7946                	flw	fs2,112(sp)
  101566:	7812                	flw	fa6,36(sp)
  101568:	1e7f818b          	0x1e7f818b
  10156c:	739e                	flw	ft7,228(sp)
  10156e:	123f8193          	addi	gp,t6,291
  101572:	d1cdb60f          	0xd1cdb60f
  101576:	d1fdf90f          	0xd1fdf90f
  10157a:	19d7f7cf          	fnmadd.s	fa5,fa5,ft9,ft3
  10157e:	792e                	flw	fs2,232(sp)
  101580:	b001                	j	100d80 <(null)+0x510>
  101582:	019f8223          	sb	s9,4(t6)
  101586:	b0b2                	fsd	fa2,96(sp)
  101588:	fba1                	bnez	a5,1014d8 <(null)+0xc68>
  10158a:	053f8203          	lb	tp,83(t6)
  10158e:	34ff                	0x34ff
  101590:	d1da                	sw	s6,224(sp)
  101592:	9130753f b271bec9 	0xb271bec99130753f
  10159a:	39d6e6cf          	fnmadd.s	fa3,fa3,ft9,ft7,unknown
  10159e:	2e5f 03d7 b022      	0xb02203d72e5f
  1015a4:	035528b7          	lui	a7,0x3552
  1015a8:	d12474d7          	0xd12474d7
  1015ac:	ee207767          	0xee207767
  1015b0:	d3d07a97          	auipc	s5,0xd3d07
  1015b4:	d12bf427          	0xd12bf427
  1015b8:	79f9                	lui	s3,0xffffe
  1015ba:	f59f 9137 96df      	0x96df9137f59f
  1015c0:	d125                	beqz	a0,101520 <(null)+0xcb0>
  1015c2:	d0d6f36f          	jal	t1,712ce <(null)+0x512c6>
  1015c6:	f18d                	bnez	a1,1014e8 <(null)+0xc78>
  1015c8:	0737fa07          	0x737fa07
  1015cc:	f0a5                	bnez	s1,10152c <(null)+0xcbc>
  1015ce:	eb9f 2f17 3166      	0x31662f17eb9f
  1015d4:	019f837b          	0x19f837b
  1015d8:	bc69                	j	101072 <(null)+0x802>
  1015da:	b261                	j	100f62 <(null)+0x6f2>
  1015dc:	0ddf835b          	0xddf835b
  1015e0:	7842                	flw	fa6,48(sp)
  1015e2:	bc19                	j	100ff8 <(null)+0x788>
  1015e4:	4a29                	li	s4,10
  1015e6:	51d0746b          	0x51d0746b
  1015ea:	b95f d087 73ca      	0x73cad087b95f
  1015f0:	2806                	fld	fa6,64(sp)
  1015f2:	dd403363          	0xdd403363
  1015f6:	b14d                	j	101298 <(null)+0xa28>
  1015f8:	38ce                	fld	fa7,240(sp)
  1015fa:	d300743f 713e71c2 	0x713e71c2d300743f
  101602:	3526                	fld	fa0,104(sp)
  101604:	0fbf8c3b          	0xfbf8c3b
  101608:	d0d985f7          	0xd0d985f7
  10160c:	d5d9f917          	auipc	s2,0xd5d9f
  101610:	77102fe7          	0x77102fe7
  101614:	bf22                	fsd	fs0,440(sp)
  101616:	3751                	jal	10159a <(null)+0xd2a>
  101618:	ee207ab7          	lui	s5,0xee207
  10161c:	d1269b57          	0xd1269b57
  101620:	a0d17a57          	0xa0d17a57
  101624:	6f3e                	flw	ft10,204(sp)
  101626:	fcff                	0xfcff
  101628:	1116                	slli	sp,sp,0x25
  10162a:	fe3d                	bnez	a2,1015a8 <(null)+0xd38>
  10162c:	3e9e                	fld	ft9,480(sp)
  10162e:	eed5                	bnez	a3,1016ea <(null)+0xe7a>
  101630:	75d77367          	0x75d77367
  101634:	d12bfa27          	0xd12bfa27
  101638:	6ece                	flw	ft9,208(sp)
  10163a:	ee2079bf d2d07aaf 	0xd2d07aafee2079bf
  101642:	d125192f          	0xd125192f
  101646:	fd7f                	0xfd7f
  101648:	d116                	sw	t0,160(sp)
  10164a:	ffbd                	bnez	a5,1015c8 <(null)+0xd58>
  10164c:	fea5                	bnez	a3,1015c4 <(null)+0xd54>
  10164e:	679f 2f27 bf59      	0xbf592f27679f
  101654:	446d                	li	s0,27
  101656:	2dff                	0x2dff
  101658:	7310                	flw	fa2,32(a4)
  10165a:	f81f d12b 7ed2      	0x7ed2d12bf81f
  101660:	d1277f77          	0xd1277f77
  101664:	ee207247          	fmsub.q	ft4,ft0,ft2,ft9
  101668:	d3d07e77          	0xd3d07e77
  10166c:	9102f5c7          	fmsub.s	fa1,ft5,fa6,fs2
  101670:	d0df99e7          	0xd0df99e7
  101674:	d1a57db7          	lui	s11,0xd1a57
  101678:	ee0d                	bnez	a2,1016b2 <(null)+0xe42>
  10167a:	fdfd                	bnez	a1,101678 <(null)+0xe08>
  10167c:	0205                	addi	tp,tp,1
  10167e:	2e277b2f          	0x2e277b2f
  101682:	fc9d                	bnez	s1,1015c0 <(null)+0xd50>
  101684:	be01                	j	101194 <(null)+0x924>
  101686:	d1102d3f 6c8a7e0e 	0x6c8a7e0ed1102d3f
  10168e:	3d1f d130 bc5d      	0xbc5dd1303d1f
  101694:	9136f927          	0x9136f927
  101698:	fc75                	bnez	s0,101694 <(null)+0xe24>
  10169a:	3c46                	fld	fs8,112(sp)
  10169c:	4189                	li	gp,2
  10169e:	7e02                	flw	ft8,32(sp)
  1016a0:	7e2e                	flw	ft8,232(sp)
  1016a2:	3a9f8ea3          	sb	s1,957(t6)
  1016a6:	bf2a                	fsd	fa0,440(sp)
  1016a8:	bff2                	fsd	ft8,504(sp)
  1016aa:	73ff                	0x73ff
  1016ac:	c2b0                	sw	a2,64(a3)
  1016ae:	4b51                	li	s6,20
  1016b0:	c2b07397          	auipc	t2,0xc2b07
  1016b4:	4b21                	li	s6,8
  1016b6:	bc4d                	j	101168 <(null)+0x8f8>
  1016b8:	35ce                	fld	fa1,240(sp)
  1016ba:	d360793f 8f2b37d6 	0x8f2b37d6d360793f
  1016c2:	037f                	0x37f
  1016c4:	d1acfc47          	fmsub.s	fs8,fs9,fs10,fs10
  1016c8:	2e530c77          	0x2e530c77
  1016cc:	d1d35977          	0xd1d35977
  1016d0:	d1537397          	auipc	t2,0xd1537
  1016d4:	412d                	li	sp,11
  1016d6:	d1c0152b          	0xd1c0152b
  1016da:	be5a753f d8474ba5 	0xd8474ba5be5a753f
  1016e2:	d1dc                	sw	a5,36(a1)
  1016e4:	d6d173c7          	fmsub.q	ft7,ft2,fa3,fs10
  1016e8:	f621                	bnez	a2,101630 <(null)+0xdc0>
  1016ea:	d1d7d2ef          	jal	t0,7f406 <(null)+0x5f3fe>
  1016ee:	b970                	fsd	fa2,240(a0)
  1016f0:	d157d487          	0xd157d487
  1016f4:	d117d517          	auipc	a0,0xd117d
  1016f8:	18bf8fcb          	fnmsub.s	ft11,ft11,fa1,ft3,rne
  1016fc:	d1dcd8b7          	lui	a7,0xd1dcd
  101700:	71a6                	flw	ft3,104(sp)
  101702:	3e04                	fld	fs1,56(a2)
  101704:	6c9f883b          	0x6c9f883b
  101708:	d1dcdf67          	0xd1dcdf67
  10170c:	7196                	flw	ft3,100(sp)
  10170e:	685f d127 8863      	0x8863d127685f
  101714:	df1f6dbf 71ced1dc 	0x71ced1dcdf1f6dbf
  10171c:	3e7c                	fld	fa5,248(a2)
  10171e:	5a1f d1d7 88a3      	0x88a3d1d75a1f
  101724:	fbcf6abf 0bffd1ac 	0xbffd1acfbcf6abf
  10172c:	5eff2e53          	0x5eff2e53
  101730:	741fd1d3          	0x741fd1d3
  101734:	88f3d153          	0x88f3d153
  101738:	6c1f fbbf d1ac      	0xd1acfbbf6c1f
  10173e:	2e530baf          	0x2e530baf
  101742:	d1d35f4f          	fnmadd.s	ft10,ft6,ft9,fs10,unknown
  101746:	d15375cf          	fnmadd.s	fa1,ft6,fs5,fs10
  10174a:	69df8903          	lb	s2,1693(t6)
  10174e:	d1acfa6f          	jal	s4,d0c68 <(null)+0xb0c60>
  101752:	0a1f 2e53 5f1f      	0x5f1f2e530a1f
  101758:	75bfd1d3          	0x75bfd1d3
  10175c:	8953d153          	0x8953d153
  101760:	6aff                	0x6aff
  101762:	3ba6                	fld	fs7,104(sp)
  101764:	d1da3f57          	0xd1da3f57
  101768:	1bd6e407          	0x1bd6e407
  10176c:	677f899b          	0x677f899b
  101770:	3d7a7717          	auipc	a4,0x3d7a7
  101774:	c2b07307          	0xc2b07307
  101778:	4c29                	li	s8,10
  10177a:	7b52                	flw	fs6,52(sp)
  10177c:	46b1                	li	a3,12
  10177e:	bb69                	j	101518 <(null)+0xca8>
  101780:	4ea9                	li	t4,10
  101782:	b8ba                	fsd	fa4,112(sp)
  101784:	ef8c                	fsw	fa1,24(a5)
  101786:	7a6a                	flw	fs4,184(sp)
  101788:	258e                	fld	fa1,192(sp)
  10178a:	b8fa                	fsd	ft10,112(sp)
  10178c:	27ca                	fld	fa5,144(sp)
  10178e:	2faa                	fld	ft11,136(sp)
  101790:	23ee                	fld	ft7,216(sp)
  101792:	b88a                	fsd	ft2,112(sp)
  101794:	2dc2                	fld	fs11,16(sp)
  101796:	2bca                	fld	fs7,144(sp)
  101798:	21ce                	fld	ft3,208(sp)
  10179a:	91d23d9b          	0x91d23d9b
  10179e:	29d6                	fld	fs3,336(sp)
  1017a0:	cef05a2b          	0xcef05a2b
  1017a4:	25d53fb7          	lui	t6,0x25d53
  1017a8:	d1c01d53          	0xd1c01d53
  1017ac:	ca17dc77          	0xca17dc77
  1017b0:	ca57dc87          	0xca57dc87
  1017b4:	7a96                	flw	fs5,100(sp)
  1017b6:	7a12                	flw	fs4,36(sp)
  1017b8:	9cc07a4b          	0x9cc07a4b
  1017bc:	754a                	flw	fa0,176(sp)
  1017be:	74c6                	flw	fs1,112(sp)
  1017c0:	373a                	fld	fa4,424(sp)
  1017c2:	3536                	fld	fa0,360(sp)
  1017c4:	b881                	j	101014 <(null)+0x7a4>
  1017c6:	b909                	j	1013d8 <(null)+0xb68>
  1017c8:	91d23cd3          	0x91d23cd3
  1017cc:	3f5f8b1b          	0x3f5f8b1b
  1017d0:	ba92                	fsd	ft4,368(sp)
  1017d2:	ba0a                	fsd	ft2,304(sp)
  1017d4:	3d7a7587          	0x3d7a7587
  1017d8:	c2b071b7          	lui	gp,0xc2b07
  1017dc:	4eed                	li	t4,27
  1017de:	d1c01c8b          	0xd1c01c8b
  1017e2:	a217d6cf          	fnmadd.d	fa3,fa5,ft1,fs4,unknown
  1017e6:	b909                	j	1013f8 <(null)+0xb88>
  1017e8:	187f8b8b          	0x187f8b8b
  1017ec:	b921                	j	101404 <(null)+0xb94>
  1017ee:	91d5e6cb          	fnmsub.s	fa3,fa1,ft9,fs2,unknown
  1017f2:	18df8be3          	beq	t6,a3,102188 <(null)+0xbc>
  1017f6:	b949                	j	101488 <(null)+0xc18>
  1017f8:	91d23693          	sltiu	a3,tp,-1763
  1017fc:	19bf8bdb          	0x19bf8bdb
  101800:	8a4a                	mv	s4,s2
  101802:	8bd2                	mv	s7,s4
  101804:	443a                	lw	s0,140(sp)
  101806:	47d2                	lw	a5,20(sp)
  101808:	4766                	lw	a4,88(sp)
  10180a:	44fa                	lw	s1,156(sp)
  10180c:	d600549b          	0xd600549b
  101810:	4c7a                	lw	s8,156(sp)
  101812:	0576                	slli	a0,a0,0x1d
  101814:	a40054fb          	0xa40054fb
  101818:	8752                	mv	a4,s4
  10181a:	4952                	lw	s2,20(sp)
  10181c:	47ce                	lw	a5,208(sp)
  10181e:	440a                	lw	s0,128(sp)
  101820:	447a                	lw	s0,156(sp)
  101822:	05ae                	slli	a1,a1,0xb
  101824:	4cc2                	lw	s9,16(sp)
  101826:	85900433          	0x85900433
  10182a:	871a                	mv	a4,t1
  10182c:	9fe6                	add	t6,t6,s9
  10182e:	99fe                	add	s3,s3,t6
  101830:	9636                	add	a2,a2,a3
  101832:	96ae                	add	a3,a3,a1
  101834:	47f6                	lw	a5,92(sp)
  101836:	4422                	lw	s0,8(sp)
  101838:	d178                	sw	a4,100(a0)
  10183a:	15ce                	slli	a1,a1,0x33
  10183c:	1392                	slli	t2,t2,0x24
  10183e:	0baa                	slli	s7,s7,0xa
  101840:	082e                	slli	a6,a6,0xb
  101842:	0422                	slli	s0,s0,0x8
  101844:	8a2075bb          	0x8a2075bb
  101848:	8712                	mv	a4,tp
  10184a:	c8a4                	sw	s1,80(s1)
  10184c:	9e32                	add	t3,t3,a2
  10184e:	0692                	slli	a3,a3,0x4
  101850:	9756                	add	a4,a4,s5
  101852:	880a                	mv	a6,sp
  101854:	457e                	lw	a0,220(sp)
  101856:	1872                	slli	a6,a6,0x3c
  101858:	9766                	add	a4,a4,s9
  10185a:	1046                	c.slli	zero,0x31
  10185c:	87a2                	mv	a5,s0
  10185e:	1a52                	slli	s4,s4,0x34
  101860:	97b6                	add	a5,a5,a3
  101862:	d888                	sw	a0,48(s1)
  101864:	c00c                	sw	a1,0(s0)
  101866:	1cb2                	slli	s9,s9,0x2c
  101868:	9786                	add	a5,a5,ra
  10186a:	004a                	c.slli	zero,0x12
  10186c:	0262                	slli	tp,tp,0x18
  10186e:	0416                	slli	s0,s0,0x5
  101870:	1eea                	slli	t4,t4,0x3a
  101872:	b0a06563          	bltu	zero,a0,100b7c <(null)+0x30c>
  101876:	878e                	mv	a5,gp
  101878:	d8fc                	sw	a5,116(s1)
  10187a:	c070                	sw	a2,68(s0)
  10187c:	005a                	c.slli	zero,0x16
  10187e:	87be                	mv	a5,a5
  101880:	1b12                	slli	s6,s6,0x24
  101882:	191a                	slli	s2,s2,0x26
  101884:	01ba                	slli	gp,gp,0xe
  101886:	846e                	mv	s0,s11
  101888:	1f32                	slli	t5,t5,0x2c
  10188a:	0782                	c.slli64	a5
  10188c:	8456                	mv	s0,s5
  10188e:	0592                	slli	a1,a1,0x4
  101890:	ee2e4133          	0xee2e4133
  101894:	1d7a                	slli	s10,s10,0x3e
  101896:	de1066f3          	csrrsi	a3,0xde1,0
  10189a:	95da                	add	a1,a1,s6
  10189c:	dfd50f57          	0xdfd50f57
  1018a0:	d1cd43d7          	0xd1cd43d7
  1018a4:	d0757367          	0xd0757367
  1018a8:	5606                	lw	a2,96(sp)
  1018aa:	a7005603          	lhu	a2,-1424(zero) # fffffa70 <(null)+0xffec7a60>
  1018ae:	4406                	lw	s0,64(sp)
  1018b0:	44fa                	lw	s1,156(sp)
  1018b2:	45e6                	lw	a1,88(sp)
  1018b4:	17ea                	slli	a5,a5,0x3a
  1018b6:	11e6                	slli	gp,gp,0x39
  1018b8:	465a                	lw	a2,148(sp)
  1018ba:	469a                	lw	a3,132(sp)
  1018bc:	0eda                	slli	t4,t4,0x16
  1018be:	0cd6                	slli	s9,s9,0x15
  1018c0:	9b7007ab          	0x9b7007ab
  1018c4:	95d6                	add	a1,a1,s5
  1018c6:	952a                	add	a0,a0,a0
  1018c8:	9f76                	add	t5,t5,t4
  1018ca:	0606                	slli	a2,a2,0x1
  1018cc:	95c6                	add	a1,a1,a7
  1018ce:	4712                	lw	a4,4(sp)
  1018d0:	0a6e                	slli	s4,s4,0x1b
  1018d2:	95ae                	add	a1,a1,a1
  1018d4:	087e                	slli	a6,a6,0x1f
  1018d6:	95da                	add	a1,a1,s6
  1018d8:	47ce                	lw	a5,208(sp)
  1018da:	d1c0209b          	0xd1c0209b
  1018de:	ca57e13f ca17e14f 	0xca17e14fca57e13f
  1018e6:	f0b05733          	0xf0b05733
  1018ea:	31d5058f          	0x31d5058f
  1018ee:	d1c0204b          	fnmsub.s	ft0,ft0,ft8,fs10,rdn
  1018f2:	ca17e10f          	0xca17e10f
  1018f6:	e19f ca57 47ae      	0x47aeca57e19f
  1018fc:	473a                	lw	a4,140(sp)
  1018fe:	e9604753          	0xe9604753
  101902:	4fb2                	lw	t6,12(sp)
  101904:	4e2e                	lw	t3,200(sp)
  101906:	0c22                	slli	s8,s8,0x8
  101908:	0e1e                	slli	t3,t3,0x7
  10190a:	83b9                	srli	a5,a5,0xe
  10190c:	8221                	srli	a2,a2,0x8
  10190e:	ee2f47cb          	fnmsub.q	fa5,ft10,ft2,ft9,rmm
  101912:	0bffb063          	0xbffb063
  101916:	d1c027ab          	0xd1c027ab
  10191a:	aa17ed2f          	0xaa17ed2f
  10191e:	bf50478b          	0xbf50478b
  101922:	67dfb0a3          	0x67dfb0a3
  101926:	d1c0276b          	0xd1c0276b
  10192a:	a617edef          	jal	s11,8038a <(null)+0x60382>
  10192e:	8229                	srli	a2,a2,0xa
  101930:	64ffb0eb          	0x64ffb0eb
  101934:	d1c02723          	sw	t3,-754(zero) # fffffd0e <(null)+0xffec7cfe>
  101938:	a717eda7          	0xa717eda7
  10193c:	8261                	srli	a2,a2,0x18
  10193e:	659fb0d3          	0x659fb0d3
  101942:	d1c026fb          	0xd1c026fb
  101946:	ec5f a417 83b9      	0x83b9a417ec5f
  10194c:	62bfb11b          	0x62bfb11b
  101950:	d1c026b3          	0xd1c026b3
  101954:	a517ec17          	auipc	s8,0xa517e
  101958:	83f1                	srli	a5,a5,0x1c
  10195a:	635fb143          	fmadd.d	ft2,ft11,fs5,fa2,rup
  10195e:	d1c0268b          	0xd1c0268b
  101962:	a817eccf          	fnmadd.s	fs9,fa5,ft1,fs5,unknown
  101966:	81d0466b          	0x81d0466b
  10196a:	605fb183          	0x605fb183
  10196e:	d1c0264b          	fnmsub.s	fa2,ft0,ft8,fs10,rdn
  101972:	a917ec8f          	0xa917ec8f
  101976:	91d0462b          	0x91d0462b
  10197a:	615fb1c3          	fmadd.s	ft3,ft11,fs5,fa2,rup
  10197e:	d1c0260b          	0xd1c0260b
  101982:	ab17ef4f          	fnmadd.d	ft10,fa5,fa7,fs5,unknown
  101986:	23d045eb          	0x23d045eb
  10198a:	7e5fb203          	0x7e5fb203
  10198e:	4242                	lw	tp,16(sp)
  101990:	42e6                	lw	t0,88(sp)
  101992:	7879                	lui	a6,0xffffe
  101994:	d1c025a3          	sw	t3,-757(zero) # fffffd0b <(null)+0xffec7cfb>
  101998:	aa17e5a7          	0xaa17e5a7
  10199c:	bf504503          	lbu	a0,-1035(zero) # fffffbf5 <(null)+0xffec7be5>
  1019a0:	141fb2ab          	0x141fb2ab
  1019a4:	d1c02563          	0xd1c02563
  1019a8:	ab17e567          	0xab17e567
  1019ac:	23d045c3          	fmadd.d	fa1,ft0,ft9,ft4,rmm
  1019b0:	151fb2eb          	0x151fb2eb
  1019b4:	d1c02523          	sw	t3,-758(zero) # fffffd0a <(null)+0xffec7cfa>
  1019b8:	a817e527          	0xa817e527
  1019bc:	81d04583          	lbu	a1,-2019(zero) # fffff81d <(null)+0xffec780d>
  1019c0:	121fb32b          	0x121fb32b
  1019c4:	d1c024e3          	0xd1c024e3
  1019c8:	a917e4e7          	0xa917e4e7
  1019cc:	91d04443          	fmadd.s	fs0,ft0,ft9,fs2,rmm
  1019d0:	131fb36b          	0x131fb36b
  1019d4:	d1c024a3          	sw	t3,-759(zero) # fffffd09 <(null)+0xffec7cf9>
  1019d8:	a617e4a7          	0xa617e4a7
  1019dc:	8161                	srli	a0,a0,0x18
  1019de:	103fb353          	fmul.s	ft6,ft11,ft3,rup
  1019e2:	d1c0247b          	0xd1c0247b
  1019e6:	e45f a717 81b9      	0x81b9a717e45f
  1019ec:	10dfb39b          	0x10dfb39b
  1019f0:	d1c02433          	0xd1c02433
  1019f4:	a417e417          	auipc	s0,0xa417e
  1019f8:	81f1                	srli	a1,a1,0x1c
  1019fa:	11ffb3c3          	fmadd.s	ft7,ft11,ft11,ft2,rup
  1019fe:	d1c0240b          	0xd1c0240b
  101a02:	a517ebcf          	0xa517ebcf
  101a06:	8e09                	sub	a2,a2,a0
  101a08:	6e9fbc0b          	0x6e9fbc0b
  101a0c:	d1c02bc3          	fmadd.s	fs7,ft0,ft8,fs10,rdn
  101a10:	a017e107          	0xa017e107
  101a14:	83b30ba3          	sb	s11,-1993(t1) # 2e5a0837 <(null)+0x2e468827>
  101a18:	777fbc4b          	fnmsub.q	fs8,ft11,fs7,fa4,rup
  101a1c:	d1c02b83          	lw	s7,-740(zero) # fffffd1c <(null)+0xffec7d0c>
  101a20:	a317e1c7          	fmsub.d	ft3,fa5,fa7,fs4,unknown
  101a24:	90394b63          	blt	s2,gp,100b3a <(null)+0x2ca>
  101a28:	747fbc8b          	0x747fbc8b
  101a2c:	d1c02b43          	fmadd.s	fs6,ft0,ft8,fs10,rdn
  101a30:	ac17e187          	0xac17e187
  101a34:	1f844b23          	0x1f844b23
  101a38:	757fbccb          	0x757fbccb
  101a3c:	d1c02b03          	lw	s6,-740(zero) # fffffd1c <(null)+0xffec7d0c>
  101a40:	ad17e047          	0xad17e047
  101a44:	9bf04ae3          	bgtz	t6,1013f8 <(null)+0xb88>
  101a48:	727fbd0b          	0x727fbd0b
  101a4c:	d1c02ac3          	fmadd.s	fs5,ft0,ft8,fs10,rdn
  101a50:	a017ea87          	0xa017ea87
  101a54:	83b30a23          	sb	s11,-1996(t1)
  101a58:	6b9fbd4b          	fnmsub.d	fs10,ft11,fs9,fa3,rup
  101a5c:	d1c02a83          	lw	s5,-740(zero) # fffffd1c <(null)+0xffec7d0c>
  101a60:	a317ea47          	fmsub.d	fs4,fa5,fa7,fs4,unknown
  101a64:	90394ae3          	blt	s2,gp,101378 <(null)+0xb08>
  101a68:	689fbd8b          	0x689fbd8b
  101a6c:	d1c02a43          	fmadd.s	fs4,ft0,ft8,fs10,rdn
  101a70:	ac17ea07          	0xac17ea07
  101a74:	1f844aa3          	0x1f844aa3
  101a78:	699fbdcb          	fnmsub.s	fs11,ft11,fs9,fa3,rup
  101a7c:	d1c02a03          	lw	s4,-740(zero) # fffffd1c <(null)+0xffec7d0c>
  101a80:	ad17e9c7          	0xad17e9c7
  101a84:	9bf04963          	bgtz	t6,100c36 <(null)+0x3c6>
  101a88:	669fbe0b          	0x669fbe0b
  101a8c:	d1c029c3          	fmadd.s	fs3,ft0,ft8,fs10,rdn
  101a90:	a217e987          	0xa217e987
  101a94:	8c41                	or	s0,s0,s0
  101a96:	67bfbe73          	csrrc	t3,0x67b,t6
  101a9a:	8c79                	and	s0,s0,a4
  101a9c:	91d5d983          	lhu	s3,-1763(a1) # d1b7d91d <(null)+0xd1a4590d>
  101aa0:	641fbeab          	0x641fbeab
  101aa4:	91e08963          	beq	ra,t5,100bb6 <(null)+0x346>
  101aa8:	8d31                	xor	a0,a0,a2
  101aaa:	83b309db          	0x83b309db
  101aae:	ba27c96f          	jal	s2,7de50 <(null)+0x5de48>
  101ab2:	11ffbee3          	0x11ffbee3
  101ab6:	d1c0292b          	0xd1c0292b
  101aba:	a317e92f          	0xa317e92f
  101abe:	8d69                	and	a0,a0,a0
  101ac0:	90394873          	0x90394873
  101ac4:	6edfbf3b          	0x6edfbf3b
  101ac8:	d1c028d3          	0xd1c028d3
  101acc:	ac17e8f7          	0xac17e8f7
  101ad0:	8cd1                	or	s1,s1,a2
  101ad2:	1f84483b          	0x1f84483b
  101ad6:	6c3fbf73          	csrrc	t5,0x6c3,t6
  101ada:	d1c0289b          	0xd1c0289b
  101ade:	ad17e8bf 48e38c19 	0x48e38c19ad17e8bf
  101ae6:	9bf0                	0x9bf0
  101ae8:	6d1fbf8b          	0x6d1fbf8b
  101aec:	d1c02843          	fmadd.s	fa6,ft0,ft8,fs10,rdn
  101af0:	aa17e807          	0xaa17e807
  101af4:	8c41                	or	s0,s0,s0
  101af6:	bf5048ab          	0xbf5048ab
  101afa:	6a7fbfc3          	fmadd.d	ft11,ft11,ft7,fa3,rup
  101afe:	d1c0280b          	0xd1c0280b
  101b02:	ab17efcf          	fnmadd.d	ft11,fa5,fa7,fs5,unknown
  101b06:	8b89                	andi	a5,a5,2
  101b08:	23d04f53          	0x23d04f53
  101b0c:	6b5fb81b          	0x6b5fb81b
  101b10:	d1c02fb3          	0xd1c02fb3
  101b14:	a817ef97          	auipc	t6,0xa817e
  101b18:	8bf1                	andi	a5,a5,28
  101b1a:	81d04f1b          	0x81d04f1b
  101b1e:	68bfb853          	0x68bfb853
  101b22:	d1c02f7b          	0xd1c02f7b
  101b26:	ef5f a917 8b39      	0x8b39a917ef5f
  101b2c:	91d04fc3          	fmadd.s	ft11,ft0,ft9,fs2,rmm
  101b30:	699fb8eb          	0x699fb8eb
  101b34:	d1c02f23          	sw	t3,-738(zero) # fffffd1e <(null)+0xffec7d0e>
  101b38:	a617ef27          	0xa617ef27
  101b3c:	8b61                	andi	a4,a4,24
  101b3e:	8ae9                	andi	a3,a3,26
  101b40:	669fb92b          	0x669fb92b
  101b44:	d1c02ee3          	0xd1c02ee3
  101b48:	a717eee7          	0xa717eee7
  101b4c:	8aa1                	andi	a3,a3,8
  101b4e:	8b29                	andi	a4,a4,10
  101b50:	679fb96b          	0x679fb96b
  101b54:	d1c02ea3          	sw	t3,-739(zero) # fffffd1d <(null)+0xffec7d0d>
  101b58:	a417eea7          	0xa417eea7
  101b5c:	8ae1                	andi	a3,a3,24
  101b5e:	8b69                	andi	a4,a4,26
  101b60:	649fb9ab          	0x649fb9ab
  101b64:	d1c02e63          	0xd1c02e63
  101b68:	a517ee67          	0xa517ee67
  101b6c:	8a21                	andi	a2,a2,8
  101b6e:	8ba9                	andi	a5,a5,10
  101b70:	659fb9eb          	0x659fb9eb
  101b74:	d1c02e23          	sw	t3,-740(zero) # fffffd1c <(null)+0xffec7d0c>
  101b78:	a217ee27          	0xa217ee27
  101b7c:	8a61                	andi	a2,a2,24
  101b7e:	8be9                	andi	a5,a5,26
  101b80:	629fba2b          	0x629fba2b
  101b84:	8981                	andi	a1,a1,0
  101b86:	8809                	andi	s0,s0,2
  101b88:	91d5ddd3          	0x91d5ddd3
  101b8c:	635fba1b          	0x635fba1b
  101b90:	db204a6b          	0xdb204a6b
  101b94:	d1c54d07          	flq	fs10,-740(a0) # d127e410 <(null)+0xd1146400>
  101b98:	c1d04db7          	lui	s11,0xc1d04
  101b9c:	d137a657          	0xd137a657
  101ba0:	d1c03d73          	csrrc	s10,0xd1c,zero
  101ba4:	55d7ed57          	0x55d7ed57
  101ba8:	cab6                	sw	a3,84(sp)
  101baa:	5a86                	lw	s5,96(sp)
  101bac:	d1d51ff7          	0xd1d51ff7
  101bb0:	42bd                	li	t0,15
  101bb2:	4f5a                	lw	t5,148(sp)
  101bb4:	8ac1                	andi	a3,a3,16
  101bb6:	4f4a                	lw	t5,144(sp)
  101bb8:	02f1                	addi	t0,t0,28
  101bba:	d1d50d2f          	0xd1d50d2f
  101bbe:	0461                	addi	s0,s0,24
  101bc0:	49ba                	lw	s3,140(sp)
  101bc2:	d1c78c4f          	fnmadd.s	fs8,fa5,ft8,fs10,rne
  101bc6:	c98d                	beqz	a1,101bf8 <(null)+0x24>
  101bc8:	315d                	jal	10186e <(null)+0xffe>
  101bca:	ce5f 9177 4eaa      	0x4eaa9177ce5f
  101bd0:	8b51                	andi	a4,a4,20
  101bd2:	4eda                	lw	t4,148(sp)
  101bd4:	c1d64977          	0xc1d64977
  101bd8:	de25beb7          	lui	t4,0xde25b
  101bdc:	d1154c87          	flq	fs9,-751(a0)
  101be0:	2f67c467          	0x2f67c467
  101be4:	d1654bf7          	0xd1654bf7
  101be8:	89b9                	andi	a1,a1,14
  101bea:	df173c8f          	0xdf173c8f
  101bee:	c4df 2f67 4b2f      	0x4b2f2f67c4df
  101bf4:	d165                	beqz	a0,101bd4 <(null)>
  101bf6:	2f67c53f d1654a8f 	0xd1654a8f2f67c53f
  101bfe:	89f1                	andi	a1,a1,28
  101c00:	dd172827          	fsw	fa7,-560(a4) # 3d8a8540 <(null)+0x3d770530>
  101c04:	2f67da77          	0x2f67da77
  101c08:	d16555c7          	fmsub.s	fa1,fa0,fs6,fs10,unknown
  101c0c:	9681                	srai	a3,a3,0x20
  101c0e:	a11f dd17 53bf      	0x53bfdd17a11f
  101c14:	9170                	0x9170
  101c16:	d1e7aa0f          	0xd1e7aa0f
  101c1a:	521f 9016 530f      	0x530f9016521f
  101c20:	d015                	beqz	s0,101b44 <(null)+0x12d4>
  101c22:	4be9                	li	s7,26
  101c24:	91305367          	0x91305367
  101c28:	2e265c77          	0x2e265c77
  101c2c:	9735                	srai	a4,a4,0x2d
  101c2e:	5a25                	li	s4,-23
  101c30:	dac6ace7          	0xdac6ace7
  101c34:	121d                	addi	tp,tp,-25
  101c36:	d16754bf 57a7977d 	0x57a7977dd16754bf
  101c3e:	d427d1c7          	0xd427d1c7
  101c42:	55f7d307          	0x55f7d307
  101c46:	96bdd167          	0x96bdd167
  101c4a:	5dff                	0x5dff
  101c4c:	2e36                	fld	ft8,328(sp)
  101c4e:	d1f7566f          	jal	a2,7796c <(null)+0x57964>
  101c52:	d107cd6f          	jal	s10,7e162 <(null)+0x5e15a>
  101c56:	d167543f 2e065dbf 	0x2e065dbfd167543f
  101c5e:	d1e7562f          	0xd1e7562f
  101c62:	cddf d155 5e95      	0x5e95d155cddf
  101c68:	d0d5bdd7          	0xd0d5bdd7
  101c6c:	d0d5c367          	0xd0d5c367
  101c70:	4722                	lw	a4,8(sp)
  101c72:	d108333f d055c28f 	0xd055c28fd108333f
  101c7a:	4752                	lw	a4,20(sp)
  101c7c:	2e162da7          	fsw	ft1,763(a2) # f52772fb <(null)+0xf513f2eb>
  101c80:	5c45                	li	s8,-15
  101c82:	50ff                	0x50ff
  101c84:	d128                	sw	a0,96(a0)
  101c86:	1090                	addi	a2,sp,96
  101c88:	d4a1                	beqz	s1,101bd0 <(null)+0x18>
  101c8a:	2f07c88f          	0x2f07c88f
  101c8e:	2e16216f          	jal	sp,16476e <(null)+0x2c75e>
  101c92:	9138debf d13351af 	0xd13351af9138debf
  101c9a:	d336594f          	fnmadd.d	fs2,fa2,fs3,fs10,unknown
  101c9e:	d61f d167 cb65      	0xcb65d167d61f
  101ca4:	d405                	beqz	s0,101bcc <(null)+0x14>
  101ca6:	d3d8dfbf d167d6cf 	0xd167d6cfd3d8dfbf
  101cae:	2e28d1ef          	jal	gp,18ef90 <(null)+0x56f80>
  101cb2:	10c5                	addi	ra,ra,-15
  101cb4:	d167d637          	lui	a2,0xd167d
  101cb8:	2e38d1b7          	lui	gp,0x2e38d
  101cbc:	1cf1                	addi	s9,s9,-4
  101cbe:	d79f d167 d05f      	0xd05fd167d79f
  101cc4:	2e08                	fld	fa0,24(a2)
  101cc6:	1901                	addi	s2,s2,-32
  101cc8:	d167d6c7          	fmsub.s	fa3,fa5,fs6,fs10,unknown
  101ccc:	9531                	srai	a0,a0,0x2c
  101cce:	d21f d138 d52f      	0xd52fd138d21f
  101cd4:	52cad167          	0x52cad167
  101cd8:	52f2                	lw	t0,60(sp)
  101cda:	5142                	lw	sp,48(sp)
  101cdc:	5ad2                	lw	s5,52(sp)
  101cde:	6539                	lui	a0,0xe
  101ce0:	d16757e7          	0xd16757e7
  101ce4:	d1c75047          	fmsub.s	ft0,fa4,ft8,fs10,unknown
  101ce8:	6579                	lui	a0,0x1e
  101cea:	14e1                	addi	s1,s1,-8
  101cec:	d1c5d167          	0xd1c5d167
  101cf0:	91055037          	lui	zero,0x91055
  101cf4:	2e265087          	0x2e265087
  101cf8:	d1e7e037          	lui	zero,0xd1e7e
  101cfc:	d14760a7          	0xd14760a7
  101d00:	d1c797d7          	0xd1c797d7
  101d04:	d1c71747          	fmsub.s	fa4,fa4,ft8,fs10,rtz
  101d08:	5ac9                	li	s5,-14
  101d0a:	1a91                	addi	s5,s5,-28
  101d0c:	d16537c7          	fmsub.s	fa5,fa0,fs6,fs10,rup
  101d10:	5edd                	li	t4,-9
  101d12:	3ef1                	jal	1018ee <(null)+0x107e>
  101d14:	2e162807          	flw	fa6,737(a2) # d167d2e1 <(null)+0xd15452d1>
  101d18:	52de                	lw	t0,244(sp)
  101d1a:	5252                	lw	tp,52(sp)
  101d1c:	4d4e                	lw	s10,208(sp)
  101d1e:	96fc                	0x96fc
  101d20:	d201                	beqz	a2,101c20 <(null)+0x4c>
  101d22:	d289                	beqz	a3,101c24 <(null)+0x50>
  101d24:	2f077ef7          	0x2f077ef7
  101d28:	2ed7cb07          	flq	fs6,749(a5) # d1edc801 <(null)+0xd1da47f1>
  101d2c:	2e162767          	0x2e162767
  101d30:	d1e62617          	auipc	a2,0xd1e62
  101d34:	d12557a7          	0xd12557a7
  101d38:	404e                	0x404e
  101d3a:	d3265fcf          	fnmadd.d	ft11,fa2,fs2,fs10,unknown
  101d3e:	d1d596bf 2e26d6df 	0x2e26d6dfd1d596bf
  101d46:	517f                	0x517f
  101d48:	13a5d117          	auipc	sp,0x13a5d
  101d4c:	d1c59777          	0xd1c59777
  101d50:	93d9                	srli	a5,a5,0x36
  101d52:	d11751af          	0xd11751af
  101d56:	d07f                	0xd07f
  101d58:	d326                	sw	s1,164(sp)
  101d5a:	d1f596af          	0xd1f596af
  101d5e:	501f d127 541a      	0x541ad127501f
  101d64:	42aa                	lw	t0,136(sp)
  101d66:	5322                	lw	t1,40(sp)
  101d68:	2e2696e7          	0x2e2696e7
  101d6c:	d325                	beqz	a4,101ccc <(null)+0xf8>
  101d6e:	d22d                	beqz	a2,101cd0 <(null)+0xfc>
  101d70:	2f37de27          	0x2f37de27
  101d74:	2f17cb77          	0x2f17cb77
  101d78:	5472                	lw	s0,60(sp)
  101d7a:	0cd150bf f3c1779f 	0xf3c1779f0cd150bf
  101d82:	f351766f          	jal	a2,19cb6 <(null)+0x11cb6>
  101d86:	707f                	0x707f
  101d88:	f341                	bnez	a4,101d08 <(null)+0x1e>
  101d8a:	f2f1724f          	fnmadd.d	ft4,ft2,fa5,ft10
  101d8e:	7c5f f0e1 7e2f      	0x7e2ff0e17c5f
  101d94:	f091                	bnez	s1,101c98 <(null)+0xc4>
  101d96:	f081783f f0b17a0f 	0xf0b17a0ff081783f
  101d9e:	741f f0a1 76ef      	0x76eff0a1741f
  101da4:	f051                	bnez	s0,101d28 <(null)+0x3e>
  101da6:	70ff                	0x70ff
  101da8:	f041                	bnez	s0,101d28 <(null)+0x3e>
  101daa:	f07172cf          	fnmadd.s	ft5,ft2,ft7,ft10
  101dae:	7cdf ce61 11f2      	0x11f2ce617cdf
  101db4:	9045                	srli	s0,s0,0x31
  101db6:	81ff                	0x81ff
  101db8:	5e1bdd07          	0x5e1bdd07
  101dbc:	91d0                	0x91d0
  101dbe:	5cc2                	lw	s9,48(sp)
  101dc0:	5f26                	lw	t5,104(sp)
  101dc2:	5c36                	lw	s8,108(sp)
  101dc4:	5cb2                	lw	s9,44(sp)
  101dc6:	5a32                	lw	s4,44(sp)
  101dc8:	916058d7          	0x916058d7
  101dcc:	d0d15ae7          	0xd0d15ae7
  101dd0:	52fa                	lw	t0,188(sp)
  101dd2:	925d                	srli	a2,a2,0x37
  101dd4:	cab9                	beqz	a3,101e2a <(null)+0xb0>
  101dd6:	9b4d                	andi	a4,a4,-13
  101dd8:	7649                	lui	a2,0xffff2
  101dda:	d149f30f          	0xd149f30f
  101dde:	cf15                	beqz	a4,101e1a <(null)+0xa0>
  101de0:	df01                	beqz	a4,101cf8 <(null)+0xe>
  101de2:	d4fd07af          	0xd4fd07af
  101de6:	d049546f          	jal	s0,972ea <(null)+0x772e2>
  101dea:	d132                	sw	a2,160(sp)
  101dec:	4142                	lw	sp,16(sp)
  101dee:	9534                	0x9534
  101df0:	d0a4de37          	lui	t3,0xd0a4d
  101df4:	539a                	lw	t2,164(sp)
  101df6:	912bd42f          	0x912bd42f
  101dfa:	4246                	lw	tp,80(sp)
  101dfc:	5346                	lw	t1,112(sp)
  101dfe:	4c6a                	lw	s8,152(sp)
  101e00:	5eba                	lw	t4,172(sp)
  101e02:	5cf6                	lw	s9,124(sp)
  101e04:	5c5a                	lw	s8,180(sp)
  101e06:	d1d7993f 091743ba 	0x91743bad1d7993f
  101e0e:	d7d5                	beqz	a5,101dba <(null)+0x40>
  101e10:	5cbe                	lw	s9,236(sp)
  101e12:	5c7e                	lw	s8,252(sp)
  101e14:	43c2                	lw	t2,16(sp)
  101e16:	dd4d                	beqz	a0,101dd0 <(null)+0x56>
  101e18:	2dd50dc7          	0x2dd50dc7
  101e1c:	5d8e                	lw	s11,224(sp)
  101e1e:	fc1f d149 c0e1      	0xc0e1d149fc1f
  101e24:	d011                	beqz	s0,101d28 <(null)+0x3e>
  101e26:	2cfd1c3f d9dcddb2 	0xd9dcddb22cfd1c3f
  101e2e:	d157d54f          	fnmadd.s	fa0,fa5,fs5,fs10,unknown
  101e32:	c050                	sw	a2,4(s0)
  101e34:	d179fcb7          	lui	s9,0xd179f
  101e38:	d5da5ec7          	0xd5da5ec7
  101e3c:	c1d05627          	0xc1d05627
  101e40:	5142                	lw	sp,48(sp)
  101e42:	d09aa92f          	0xd09aa92f
  101e46:	c1d0544f          	fnmadd.s	fs0,ft0,ft9,fs8,unknown
  101e4a:	9d8a                	add	s11,s11,sp
  101e4c:	5e6a                	lw	t3,184(sp)
  101e4e:	d848                	sw	a0,52(s0)
  101e50:	e539                	bnez	a0,101e9e <(null)+0x124>
  101e52:	985c                	0x985c
  101e54:	980c                	0x980c
  101e56:	5e02                	lw	t3,32(sp)
  101e58:	5d56                	lw	s10,116(sp)
  101e5a:	4cb2                	lw	s9,12(sp)
  101e5c:	ed19                	bnez	a0,101e7a <(null)+0x100>
  101e5e:	dc79                	beqz	s0,101e3c <(null)+0xc2>
  101e60:	2f4473e7          	0x2f4473e7
  101e64:	2f59ca37          	lui	s4,0x2f59c
  101e68:	90fa57d7          	0x90fa57d7
  101e6c:	d1da5597          	auipc	a1,0xd1da5
  101e70:	d1d9f887          	0xd1d9f887
  101e74:	6f31                	lui	t5,0xc
  101e76:	9f4d                	0x9f4d
  101e78:	2b244447          	fmsub.d	fs0,fs0,fs2,ft5,rmm
  101e7c:	f3117d37          	lui	s10,0xf3117
  101e80:	f3517a47          	fmsub.d	fs4,ft2,fs5,ft10
  101e84:	f3917ad7          	0xf3917ad7
  101e88:	f3d17767          	0xf3d17767
  101e8c:	f01177f7          	0xf01177f7
  101e90:	f0517407          	0xf0517407
  101e94:	f0917497          	auipc	s1,0xf0917
  101e98:	f0d17527          	0xf0d17527
  101e9c:	f11175b7          	lui	a1,0xf1117
  101ea0:	f15172c7          	fmsub.s	ft5,ft2,fs5,ft10
  101ea4:	f1917257          	0xf1917257
  101ea8:	f1d173e7          	0xf1d173e7
  101eac:	ce117377          	0xce117377
  101eb0:	f2d15f97          	auipc	t6,0xf2d15
  101eb4:	5b42                	lw	s6,48(sp)
  101eb6:	0dd15f8f          	0xdd15f8f
  101eba:	f2e1788f          	0xf2e1788f
  101ebe:	729f f051 776f      	0x776ff051729f
  101ec4:	f071                	bnez	s0,101e88 <(null)+0x10e>
  101ec6:	d6bbb6eb          	0xd6bbb6eb
  101eca:	5706                	lw	a4,96(sp)
  101ecc:	d1d6f377          	0xd1d6f377
  101ed0:	916058b7          	lui	a7,0x91605
  101ed4:	1e7e                	slli	t3,t3,0x3f
  101ed6:	b349d88f          	0xb349d88f
  101eda:	f351730f          	0xf351730f
  101ede:	751f f341 77ef      	0x77eff341751f
  101ee4:	f2f1                	bnez	a3,101ea8 <(null)+0x12e>
  101ee6:	7bff                	0x7bff
  101ee8:	f291                	bnez	a3,101dec <(null)+0x72>
  101eea:	f2817dcf          	fnmadd.d	fs11,ft2,fs0,ft10
  101eee:	7fdf f2b1 75af      	0x75aff2b17fdf
  101ef4:	f041                	bnez	s0,101e74 <(null)+0xfa>
  101ef6:	f06179bf d1c0359b 	0xd1c0359bf06179bf
  101efe:	719f f3c1 766f      	0x766ff3c1719f
  101f04:	f0a1                	bnez	s1,101e44 <(null)+0xca>
  101f06:	1b26                	slli	s6,s6,0x29
  101f08:	1f72                	slli	t5,t5,0x3c
  101f0a:	1312                	slli	t1,t1,0x24
  101f0c:	9425                	srai	s0,s0,0x29
  101f0e:	1d16                	slli	s10,s10,0x25
  101f10:	d196f487          	0xd196f487
  101f14:	566a                	lw	a2,184(sp)
  101f16:	57fa                	lw	a5,188(sp)
  101f18:	59ca                	lw	s3,176(sp)
  101f1a:	50d2                	lw	ra,52(sp)
  101f1c:	9965                	andi	a0,a0,-7
  101f1e:	935a522f          	0x935a522f
  101f22:	dafc58af          	0xdafc58af
  101f26:	9a1a                	add	s4,s4,t1
  101f28:	d1f4cef7          	0xd1f4cef7
  101f2c:	587a                	lw	a6,188(sp)
  101f2e:	d117d14f          	fnmadd.s	ft2,fa5,fa7,fs10,unknown
  101f32:	d1d9ff8f          	0xd1d9ff8f
  101f36:	913dd32f          	0x913dd32f
  101f3a:	58a6                	lw	a7,104(sp)
  101f3c:	4762                	lw	a4,24(sp)
  101f3e:	0cdf d970 4f2f      	0x4f2fd9700cdf
  101f44:	d3dd                	beqz	a5,101eea <(null)+0x34>
  101f46:	d3490d3f fef79b1a 	0xfef79b1ad3490d3f
  101f4e:	2e59                	jal	1022e4 <(null)+0x218>
  101f50:	598e                	lw	s3,224(sp)
  101f52:	d13ddc3f 91275eaf 	0x91275eafd13ddc3f
  101f5a:	d41f d12d 46ea      	0x46ead12dd41f
  101f60:	ddd500a7          	0xddd500a7
  101f64:	595e                	lw	s2,244(sp)
  101f66:	59e2                	lw	s3,56(sp)
  101f68:	4632                	lw	a2,12(sp)
  101f6a:	ddd50d8f          	0xddd50d8f
  101f6e:	9baa                	add	s7,s7,a0
  101f70:	90595fb7          	lui	t6,0x90595
  101f74:	2e2c5e07          	0x2e2c5e07
  101f78:	5301                	li	t1,-32
  101f7a:	de1f d337 4faf      	0x4fafd337de1f
  101f80:	d1f4                	sw	a3,100(a1)
  101f82:	d760                	sw	s0,108(a4)
  101f84:	493a                	lw	s2,140(sp)
  101f86:	7a7f                	0x7a7f
  101f88:	d0a6                	sw	s1,96(sp)
  101f8a:	5cd5                	li	s9,-11
  101f8c:	48f2                	lw	a7,28(sp)
  101f8e:	9dff                	0x9dff
  101f90:	34f5d1d7          	0x34f5d1d7
  101f94:	9842                	add	a6,a6,a6
  101f96:	90405daf          	0x90405daf
  101f9a:	ad9f d047 dd8f      	0xdd8fd047ad9f
  101fa0:	5c75d337          	lui	t1,0x5c75d
  101fa4:	4852                	lw	a6,20(sp)
  101fa6:	9d5f d1d7 dcff      	0xdcffd1d79d5f
  101fac:	3415d3d7          	0x3415d3d7
  101fb0:	d1dccd17          	auipc	s10,0xd1dcc
  101fb4:	d12c36a7          	fsd	fs2,-755(s8) # a527f661 <(null)+0xa5147651>
  101fb8:	dbf5                	beqz	a5,101fac <(null)+0xf6>
  101fba:	5226                	lw	tp,104(sp)
  101fbc:	92e1                	srli	a3,a3,0x38
  101fbe:	4e5f 26fc c9af      	0xc9af26fc4e5f
  101fc4:	27dc                	fld	fa5,136(a5)
  101fc6:	d7dd5d3f f2117bef 	0xf2117befd7dd5d3f
  101fce:	7f7f                	0x7f7f
  101fd0:	f251                	bnez	a2,101f54 <(null)+0x9e>
  101fd2:	f2917f8f          	0xf2917f8f
  101fd6:	721f f2d1 72af      	0x72aff2d1721f
  101fdc:	f311                	bnez	a4,101ee0 <(null)+0x2a>
  101fde:	f351713f f391714f 	0xf391714ff351713f
  101fe6:	70df f3d1 706f      	0x706ff3d170df
  101fec:	f011                	bnez	s0,101ef0 <(null)+0x3a>
  101fee:	77ff                	0x77ff
  101ff0:	f051                	bnez	s0,101f74 <(null)+0xbe>
  101ff2:	f091770f          	0xf091770f
  101ff6:	769f f0d1 762f      	0x762ff0d1769f
  101ffc:	f111                	bnez	a0,101f00 <(null)+0x4a>
  101ffe:	f5d15aaf          	0xf5d15aaf
  102002:	a19a                	fsd	ft6,192(sp)
  102004:	667d                	lui	a2,0x1f
  102006:	b5b6                	fsd	fa3,232(sp)
  102008:	d327e707          	0xd327e707
  10200c:	d3d0a267          	0xd3d0a267
  102010:	af4d                	j	1027c2 <(null)+0x33a>
  102012:	d11c323f d12cfcaf 	0xd12cfcafd11c323f
  10201a:	c81f d0c6 788f      	0x788fd0c6c81f
  102020:	d12c                	sw	a1,96(a0)
  102022:	9ec1                	0x9ec1
  102024:	b532                	fsd	fa2,168(sp)
  102026:	d12c78ef          	jal	a7,c9538 <(null)+0xa9530>
  10202a:	6d39                	lui	s10,0xe
  10202c:	96d1                	srai	a3,a3,0x34
  10202e:	3629                	jal	101b38 <(null)+0x12c8>
  102030:	9e0d                	0x9e0d
  102032:	665d                	lui	a2,0x17
  102034:	d524aef7          	0xd524aef7
  102038:	298c                	fld	fa1,16(a1)
  10203a:	25f2                	fld	fa1,280(sp)
  10203c:	d1572d07          	flw	fs10,-747(a4)
  102040:	67a2                	flw	fa5,8(sp)
  102042:	2210                	fld	fa2,0(a2)
  102044:	d1790577          	0xd1790577
  102048:	e391                	bnez	a5,10204c <(null)+0x196>
  10204a:	ab06                	fsd	ft1,400(sp)
  10204c:	c1d0a967          	0xc1d0a967
  102050:	aa0a                	fsd	ft2,272(sp)
  102052:	d0bcd16f          	jal	sp,cfd5c <(null)+0xafd54>
  102056:	c1d0af0f          	0xc1d0af0f
  10205a:	658a                	flw	fa1,128(sp)
  10205c:	a632                	fsd	fa2,264(sp)
  10205e:	2808                	fld	fa0,16(s0)
  102060:	11f9                	addi	gp,gp,-2
  102062:	d1d48ccf          	fnmadd.s	fs9,fs1,ft9,fs10,rne
  102066:	60c4                	flw	fs1,4(s1)
  102068:	a6e2                	fsd	fs8,328(sp)
  10206a:	a5f2                	fsd	ft8,200(sp)
  10206c:	b9f2                	fsd	ft8,240(sp)
  10206e:	191d                	addi	s2,s2,-25
  102070:	24c1                	jal	102330 <(null)+0x264>
  102072:	2ef48baf          	0x2ef48baf
  102076:	337f                	0x337f
  102078:	2f59                	jal	10280e <(null)+0x386>
  10207a:	ae9f 909b a0df      	0xa0df909bae9f
  102080:	034fd1db          	0x34fd1db
  102084:	d1d9                	beqz	a1,10200a <(null)+0x154>
  102086:	94e1                	srai	s1,s1,0x38
  102088:	f2518267          	jalr	tp,-219(gp) # 2e38cf25 <(null)+0x2e254f15>
  10208c:	6432                	flw	fs0,12(sp)
  10208e:	669a                	flw	fa3,132(sp)
  102090:	f2118687          	0xf2118687
  102094:	f2d18f17          	auipc	t5,0xf2d18
  102098:	f3118fa7          	0xf3118fa7
  10209c:	f3518c37          	lui	s8,0xf3518
  1020a0:	f3d18dc7          	fmsub.d	fs11,ft3,ft9,ft10,rne
  1020a4:	f0118d57          	0xf0118d57
  1020a8:	f0518ae7          	jalr	s5,-251(gp)
  1020ac:	f0918a77          	0xf0918a77
  1020b0:	f0d18b87          	0xf0d18b87
  1020b4:	a566                	fsd	fs9,136(sp)
  1020b6:	a59e                	fsd	ft7,200(sp)
  1020b8:	f2918227          	0xf2918227
  1020bc:	f3918c37          	lui	s8,0xf3918
  1020c0:	a77e                	fsd	ft11,392(sp)
  1020c2:	f1118acf          	fnmadd.s	fs5,ft3,fa7,ft10,rne
  1020c6:	f5d1a64f          	0xf5d1a64f
  1020ca:	9b7d                	andi	a4,a4,-1
  1020cc:	d366a2c7          	fmsub.d	ft5,fa3,fs6,fs10,rdn
  1020d0:	533d                	li	t1,-17
  1020d2:	65dd                	lui	a1,0x17
  1020d4:	c1c18137          	lui	sp,0xc1c18
  1020d8:	c1518307          	0xc1518307
  1020dc:	c1418517          	auipc	a0,0xc1418
  1020e0:	c0f187e7          	jalr	a5,-1009(gp)
  1020e4:	fd4e                	fsw	fs3,184(sp)
  1020e6:	ff5a                	fsw	fs6,188(sp)
  1020e8:	f966                	fsw	fs9,176(sp)
  1020ea:	fb62                	fsw	fs8,180(sp)
  1020ec:	f57e                	fsw	ft11,168(sp)
  1020ee:	f74a                	fsw	fs2,172(sp)
  1020f0:	f136                	fsw	fa3,160(sp)
  1020f2:	f332                	fsw	fa2,164(sp)
  1020f4:	ed2e                	fsw	fa1,152(sp)
  1020f6:	e6f6                	fsw	ft9,76(sp)
  1020f8:	e4f2                	fsw	ft8,72(sp)
  1020fa:	f5d52ecf          	0xf5d52ecf
  1020fe:	d1c6b02f          	0xd1c6b02f
  102102:	b2aa                	fsd	fa0,352(sp)
  102104:	91152c67          	0x91152c67
  102108:	ef02                	fsw	ft0,156(sp)
  10210a:	ed0a                	fsw	ft2,152(sp)
  10210c:	e91e                	fsw	ft7,144(sp)
  10210e:	af1e                	fsd	ft7,408(sp)
  102110:	a862                	fsd	fs8,16(sp)
  102112:	a8f2                	fsd	ft8,80(sp)
  102114:	b96a                	fsd	fs10,176(sp)
  102116:	2d30                	fld	fa2,88(a0)
  102118:	a3c2                	fsd	fa6,448(sp)
  10211a:	d1675a4f          	fnmadd.s	fs4,fa4,fs6,fs10,unknown
  10211e:	d10da60f          	0xd10da60f
  102122:	a326                	fsd	fs1,384(sp)
  102124:	b232                	fsd	fa2,288(sp)
  102126:	e694                	fsw	fa3,8(a3)
  102128:	22a1                	jal	102270 <(null)+0x1a4>
  10212a:	2f674a0f          	0x2f674a0f
  10212e:	6f2d                	lui	t5,0xb
  102130:	2dd0                	fld	fa2,152(a1)
  102132:	25fc                	fld	fa5,200(a1)
  102134:	d65d59f7          	0xd65d59f7
  102138:	6275                	lui	tp,0x1d
  10213a:	6f7d                	lui	t5,0x1f
  10213c:	2de0                	fld	fs0,216(a1)
  10213e:	25cc                	fld	fa1,136(a1)
  102140:	6d1d                	lui	s10,0x7
  102142:	6d9d                	lui	s11,0x7
  102144:	6f7d                	lui	t5,0x1f
  102146:	d3d0aacf          	fnmadd.d	fs5,ft1,ft9,fs10,rdn
  10214a:	afb5                	j	1028c6 <(null)+0x43e>
  10214c:	ccf72f17          	auipc	t5,0xccf72
  102150:	2e2a2d97          	auipc	s11,0x2e2a2
  102154:	2dd8                	fld	fa4,152(a1)
  102156:	d1fc368f          	0xd1fc368f
  10215a:	b3c2                	fsd	fa6,480(sp)
  10215c:	25d70637          	lui	a2,0x25d70
  102160:	906ca677          	0x906ca677
  102164:	c927c8b7          	lui	a7,0xc927c
  102168:	ac92                	fsd	ft4,88(sp)
  10216a:	6339                	lui	t1,0xe
  10216c:	a3f6                	fsd	ft9,448(sp)
  10216e:	a20e                	fsd	ft3,256(sp)
  102170:	a282                	fsd	ft0,320(sp)
  102172:	a132                	fsd	fa2,128(sp)
  102174:	a1ae                	fsd	fa1,192(sp)
  102176:	1749                	addi	a4,a4,-14
  102178:	c8ea26c7          	fmsub.s	fa3,fs4,fa4,fs9,rdn
  10217c:	63c2                	flw	ft7,16(sp)
  10217e:	c1df ca4b 24ff      	0x24ffca4bc1df
  102184:	b5ef904b          	0xb5ef904b
  102188:	f4dfd047          	0xf4dfd047
  10218c:	601ad107          	0x601ad107
  102190:	d1c74597          	auipc	a1,0xd1c74
  102194:	d047b527          	fsd	ft4,-758(a5)
  102198:	a825                	j	1021d0 <(null)+0x104>
  10219a:	e142                	fsw	fa6,128(sp)
  10219c:	6de5                	lui	s11,0x19
  10219e:	e356                	fsw	fs5,132(sp)
  1021a0:	ba7a                	fsd	ft10,304(sp)
  1021a2:	2a5d462f          	0x2a5d462f
  1021a6:	afaa                	fsd	fa0,472(sp)
  1021a8:	a0e6                	fsd	fs9,64(sp)
  1021aa:	6039                	c.lui	zero,0xe
  1021ac:	a106                	fsd	ft1,128(sp)
  1021ae:	a1fa                	fsd	ft10,192(sp)
  1021b0:	a23a                	fsd	fa4,256(sp)
  1021b2:	a2b6                	fsd	fa3,320(sp)
  1021b4:	14c9                	addi	s1,s1,-14
  1021b6:	60ea                	flw	ft1,152(sp)
  1021b8:	6fc2                	flw	ft11,16(sp)
  1021ba:	d1c0ce1b          	0xd1c0ce1b
  1021be:	d6bb4e8b          	0xd6bb4e8b
  1021c2:	6d9d                	lui	s11,0x7
  1021c4:	935c2fc7          	fmsub.d	ft11,fs8,fs5,fs2,rdn
  1021c8:	b34caf77          	0xb34caf77
  1021cc:	d3d0aa67          	0xd3d0aa67
  1021d0:	d8aa2567          	0xd8aa2567
  1021d4:	907d2827          	fsw	ft7,-1776(s10) # 6910 <(null)+0x4910>
  1021d8:	d88b7547          	fmsub.s	fa0,fs6,fs0,fs11
  1021dc:	2e3a2aa7          	fsw	ft3,757(s4) # 2f59c2f5 <(null)+0x2f4642e5>
  1021e0:	2f04                	fld	fs1,24(a4)
  1021e2:	345f d1f9 b13e      	0xb13ed1f9345f
  1021e8:	25d706e7          	jalr	a3,605(a4)
  1021ec:	d1f7bb67          	0xd1f7bb67
  1021f0:	d1f8bd97          	auipc	s11,0xd1f8b
  1021f4:	a5b9                	j	102842 <(null)+0x3ba>
  1021f6:	d1c87b0f          	0xd1c87b0f
  1021fa:	d027b43f d13ecd8f 	0xd13ecd8fd027b43f
  102202:	64df d1e8 bc62      	0xbc62d1e864df
  102208:	d12844d7          	0xd12844d7
  10220c:	2e2a2b67          	0x2e2a2b67
  102210:	917d2937          	lui	s2,0x917d2
  102214:	d1cef207          	0xd1cef207
  102218:	a152                	fsd	fs4,128(sp)
  10221a:	6efd                	lui	t4,0x1f
  10221c:	afc6                	fsd	fa7,472(sp)
  10221e:	af3a                	fsd	fa4,408(sp)
  102220:	ac7a                	fsd	ft10,24(sp)
  102222:	edde                	fsw	fs7,216(sp)
  102224:	eff2                	fsw	ft8,220(sp)
  102226:	10c9                	addi	ra,ra,-14
  102228:	6e12                	flw	ft8,4(sp)
  10222a:	678a                	flw	fa5,128(sp)
  10222c:	a182                	fsd	ft0,192(sp)
  10222e:	d0277bef          	jal	s7,79730 <(null)+0x59728>
  102232:	27de                	fld	fa5,464(sp)
  102234:	2e46                	fld	ft8,80(sp)
  102236:	d13ec2af          	0xd13ec2af
  10223a:	d1c7443f 6f95aea6 	0x6f95aea6d1c7443f
  102242:	aebe                	fsd	fa5,344(sp)
  102244:	ae52                	fsd	fs4,280(sp)
  102246:	ade2                	fsd	fs8,216(sp)
  102248:	ad6a                	fsd	fs10,152(sp)
  10224a:	ee4a                	fsw	fs2,28(sp)
  10224c:	ec66                	fsw	fs9,24(sp)
  10224e:	a2e6                	fsd	fs9,320(sp)
  102250:	19cd                	addi	s3,s3,-13
  102252:	6f7a                	flw	ft10,156(sp)
  102254:	6072                	flw	ft0,28(sp)
  102256:	a592                	fsd	ft4,200(sp)
  102258:	26aa33c7          	fmsub.q	ft7,fs4,fa0,ft4,rup
  10225c:	907d2607          	flw	fa2,-1785(s10)
  102260:	d487aca7          	fsw	fs0,-679(a5)
  102264:	2e27aa47          	fmsub.q	fs4,fa5,ft2,ft5,rdn
  102268:	913b2b57          	0x913b2b57
  10226c:	a755                	j	102a10 <(null)+0x588>
  10226e:	d2572a4f          	fnmadd.d	fs4,fa4,ft5,fs10,rdn
  102272:	ab35                	j	1027ae <(null)+0x326>
  102274:	bf26                	fsd	fs1,440(sp)
  102276:	6a1f d1d7 c759      	0xc759d1d76a1f
  10227c:	90d0aa07          	flw	fs4,-1779(ra) # d3807dfd <(null)+0xd36cfded>
  102280:	d0d759f7          	0xd0d759f7
  102284:	d25729e7          	0xd25729e7
  102288:	a8dd                	j	10237e <(null)+0xc>
  10228a:	bcde                	fsd	fs7,120(sp)
  10228c:	d1d769f7          	0xd1d769f7
  102290:	d3d72897          	auipc	a7,0xd3d72
  102294:	d2f63777          	0xd2f63777
  102298:	d1d8b9b7          	lui	s3,0xd1d8b
  10229c:	a43d                	j	1024ca <(null)+0x42>
  10229e:	a6b2                	fsd	fa2,328(sp)
  1022a0:	9495                	srai	s1,s1,0x25
  1022a2:	dbd8abaf          	0xdbd8abaf
  1022a6:	90d0a96f          	jal	s2,cbb2 <(null)+0x4bb2>
  1022aa:	595f d0d7 294f      	0x294fd0d7595f
  1022b0:	25bfd257          	0x25bfd257
  1022b4:	907d                	srli	s0,s0,0x3f
  1022b6:	a825                	j	1022ee <(null)+0x222>
  1022b8:	bc16                	fsd	ft5,56(sp)
  1022ba:	d1d7692f          	0xd1d7692f
  1022be:	d3d7282f          	0xd3d7282f
  1022c2:	2cf624af          	0x2cf624af
  1022c6:	b0be                	fsd	fa5,96(sp)
  1022c8:	a7ea                	fsd	fs10,456(sp)
  1022ca:	f85f d128 6229      	0x6229d128f85f
  1022d0:	9d51                	0x9d51
  1022d2:	6ca5                	lui	s9,0x9
  1022d4:	b0fe                	fsd	ft11,96(sp)
  1022d6:	627f                	0x627f
  1022d8:	d126                	sw	s1,160(sp)
  1022da:	a99f 9129 b98f      	0xb98f9129a99f
  1022e0:	d108                	sw	a0,32(a0)
  1022e2:	f8ff                	0xf8ff
  1022e4:	a5ddd127          	0xa5ddd127
  1022e8:	d128f7d7          	0xd128f7d7
  1022ec:	a77a                	fsd	ft10,392(sp)
  1022ee:	9f65                	0x9f65
  1022f0:	3d51                	jal	102184 <(null)+0xb8>
  1022f2:	a702                	fsd	ft0,392(sp)
  1022f4:	9519                	srai	a0,a0,0x26
  1022f6:	adea                	fsd	fs10,216(sp)
  1022f8:	ac26                	fsd	fs1,24(sp)
  1022fa:	acaa                	fsd	fa0,88(sp)
  1022fc:	af0a                	fsd	ft2,408(sp)
  1022fe:	af86                	fsd	ft1,472(sp)
  102300:	11bd                	addi	gp,gp,-17
  102302:	36ea35af          	0x36ea35af
  102306:	6aaa                	flw	fs5,136(sp)
  102308:	6a02                	flw	fs4,0(sp)
  10230a:	67b9                	lui	a5,0xe
  10230c:	d0277ee7          	0xd0277ee7
  102310:	2a56                	fld	fs4,336(sp)
  102312:	a20d                	j	102434 <(null)+0x10>
  102314:	2ac6                	fld	fs5,80(sp)
  102316:	eb72                	fsw	ft8,148(sp)
  102318:	d1c74fb7          	lui	t6,0xd1c74
  10231c:	9829                	andi	s0,s0,-22
  10231e:	2c2a24af          	0x2c2a24af
  102322:	6a1d                	lui	s4,0x7
  102324:	6b01                	0x6b01
  102326:	9835                	andi	s0,s0,-19
  102328:	ab66                	fsd	fs9,400(sp)
  10232a:	aa9a                	fsd	ft6,336(sp)
  10232c:	abf2                	fsd	ft8,464(sp)
  10232e:	a842                	fsd	fa6,16(sp)
  102330:	a8be                	fsd	fa5,80(sp)
  102332:	1979                	addi	s2,s2,-2
  102334:	6af2                	flw	fs5,28(sp)
  102336:	6a6a                	flw	fs4,152(sp)
  102338:	2779                	jal	102ac6 <(null)+0x34>
  10233a:	d037be3f a3c5ae61 	0xa3c5ae61d037be3f
  102342:	af11                	j	102a56 <(null)+0x5ce>
  102344:	ea3a                	fsw	fa4,20(sp)
  102346:	d1c74ecf          	fnmadd.s	ft9,fa4,ft8,fs10,rmm
  10234a:	91a9                	srli	a1,a1,0x2a
  10234c:	c11189f7          	0xc11189f7
  102350:	c1518d07          	0xc1518d07
  102354:	c1918d97          	auipc	s11,0xc1918
  102358:	c1d18027          	0xc1d18027
  10235c:	759e                	flw	fa1,228(sp)
  10235e:	7606                	flw	fa2,96(sp)
  102360:	764e                	flw	fa2,240(sp)
  102362:	77d6                	flw	fa5,116(sp)
  102364:	773e                	flw	fa4,236(sp)
  102366:	70a6                	flw	ft1,104(sp)
  102368:	702e                	flw	ft0,232(sp)
  10236a:	71b6                	flw	ft3,108(sp)
  10236c:	615e                	flw	ft2,212(sp)
  10236e:	4df9                	li	s11,30
  102370:	ac52                	fsd	fs4,24(sp)
  102372:	d1d5ee0f          	0xd1d5ee0f
  102376:	6e9f d1d5 31cf      	0x31cfd1d56e9f
  10237c:	29edd137          	lui	sp,0x29edd
  102380:	2a95                	jal	1024f4 <(null)+0x6c>
  102382:	e881                	bnez	s1,102392 <(null)+0x20>
  102384:	d87d                	beqz	s0,10237a <(null)+0x8>
  102386:	aa36                	fsd	fa3,272(sp)
  102388:	afb2                	fsd	fa2,472(sp)
  10238a:	2f5f 9137 afaa      	0xafaa91372f5f
  102390:	9130af37          	lui	t5,0x9130a
  102394:	afc2                	fsd	fa6,472(sp)
  102396:	3e09                	jal	101ea8 <(null)+0x12e>
  102398:	eb52                	fsw	fs4,148(sp)
  10239a:	e97e                	fsw	ft11,144(sp)
  10239c:	ab4a                	fsd	fs2,400(sp)
  10239e:	d1d5ef3f 2b85ea89 	0x2b85ea89d1d5ef3f
  1023a6:	0ffd                	addi	t6,t6,31
  1023a8:	d1d4efe7          	0xd1d4efe7
  1023ac:	d2c5                	beqz	a3,10234c <(null)+0x280>
  1023ae:	6b8a                	flw	fs7,128(sp)
  1023b0:	6f62                	flw	ft10,24(sp)
  1023b2:	6af1                	lui	s5,0x1c
  1023b4:	2e81                	jal	102704 <(null)+0x27c>
  1023b6:	87b9                	srai	a5,a5,0xe
  1023b8:	8799                	srai	a5,a5,0x6
  1023ba:	d1d2ad9b          	0xd1d2ad9b
  1023be:	ece0                	fsw	fs0,92(s1)
  1023c0:	ae92                	fsd	ft4,344(sp)
  1023c2:	d1d2acfb          	0xd1d2acfb
  1023c6:	690d                	lui	s2,0x3
  1023c8:	e9a8                	fsw	fa0,80(a1)
  1023ca:	aeba                	fsd	fa4,344(sp)
  1023cc:	514f5b1b          	0x514f5b1b
  1023d0:	406f5b6b          	0x406f5b6b
  1023d4:	e5c08e67          	jalr	t3,-420(ra)
  1023d8:	aef2                	fsd	ft8,344(sp)
  1023da:	8e5f e5f0 aeea      	0xaeeae5f08e5f
  1023e0:	e5e08eb7          	lui	t4,0xe5e08
  1023e4:	ae02                	fsd	ft0,280(sp)
  1023e6:	d1c0ceeb          	0xd1c0ceeb
  1023ea:	3ff9                	jal	1023c8 <(null)+0x6>
  1023ec:	afd5aee7          	0xafd5aee7
  1023f0:	e8d6                	fsw	fs5,80(sp)
  1023f2:	163f4b63          	blt	t5,gp,102568 <(null)+0xe0>
  1023f6:	d1c0ceab          	0xd1c0ceab
  1023fa:	aed5aebf 16ff4b53 	0x16ff4b53aed5aebf
  102402:	e5c091bf e5f0922f 	0xe5f0922fe5c091bf
  10240a:	929f e5e0 c14b      	0xc14be5e0929f
  102410:	d1c0                	sw	s0,36(a1)
  102412:	b11f 51d5 54f3      	0x54f351d5b11f
  102418:	147f                	0x147f
  10241a:	d1d2b39b          	0xd1d2b39b
  10241e:	766d                	lui	a2,0xffffb
  102420:	f608                	fsw	fa0,40(a2)
  102422:	9199                	srli	a1,a1,0x26
  102424:	d1c0c1e3          	blt	ra,t3,102126 <(null)+0x5a>
  102428:	20f1                	jal	1024f4 <(null)+0x6c>
  10242a:	b1ff                	0xb1ff
  10242c:	5315                	li	t1,-27
  10242e:	f7ae                	fsw	fa1,236(sp)
  102430:	15df546b          	0x15df546b
  102434:	d1d2b323          	0xd1d2b323
  102438:	76f5                	lui	a3,0xffffd
  10243a:	f660                	fsw	fs0,108(a2)
  10243c:	91e1                	srli	a1,a1,0x38
  10243e:	d1d2b30b          	0xd1d2b30b
  102442:	771d                	lui	a4,0xfffe7
  102444:	f798                	fsw	fa4,40(a5)
  102446:	b08a                	fsd	ft2,96(sp)
  102448:	d1d2b2d3          	0xd1d2b2d3
  10244c:	7725                	lui	a4,0xfffe9
  10244e:	f7b0                	fsw	fa2,104(a5)
  102450:	b0d2                	fsd	fs4,96(sp)
  102452:	d1d2b2bb          	0xd1d2b2bb
  102456:	f3c0                	fsw	fs0,36(a5)
  102458:	b0f2                	fsd	ft8,96(sp)
  10245a:	d1c0c31b          	0xd1c0c31b
  10245e:	755693bf d1c0c27b 	0xd1c0c27b755693bf
  102466:	b7a2                	fsd	fs0,488(sp)
  102468:	75173277          	0x75173277
  10246c:	d12630c7          	fmsub.s	ft1,fa2,fs2,fs10,rup
  102470:	fbc9                	bnez	a5,102402 <(null)+0x1c>
  102472:	a7ee                	fsd	fs11,456(sp)
  102474:	753691b7          	lui	gp,0x75369
  102478:	5751                	li	a4,-12
  10247a:	d127d3cf          	fnmadd.s	ft7,fa5,fs2,fs10,unknown
  10247e:	d1d2b20b          	0xd1d2b20b
  102482:	741d                	lui	s0,0xfffe7
  102484:	f498                	fsw	fa4,40(s1)
  102486:	b38a                	fsd	ft2,480(sp)
  102488:	d1c0be53          	0xd1c0be53
  10248c:	2b5d                	jal	102a42 <(null)+0x5ba>
  10248e:	2229                	jal	102598 <(null)+0x110>
  102490:	d168c1b7          	lui	gp,0xd168c
  102494:	d0956107          	0xd0956107
  102498:	d108ce17          	auipc	t3,0xd108c
  10249c:	d0966527          	0xd0966527
  1024a0:	ffb2                	fsw	fa2,252(sp)
  1024a2:	3416                	fld	fs0,352(sp)
  1024a4:	ae27c2c7          	fmsub.q	ft5,fa5,ft2,fs5,rmm
  1024a8:	d005e1f7          	0xd005e1f7
  1024ac:	3bae                	fld	fs7,232(sp)
  1024ae:	f98e                	fsw	ft3,240(sp)
  1024b0:	bc09                	j	101ec2 <(null)+0xc>
  1024b2:	621f d025 e18f      	0xe18fd025621f
  1024b8:	d006                	sw	ra,32(sp)
  1024ba:	ae23c5bf fa5afdee 	0xfa5afdeeae23c5bf
  1024c2:	f456                	fsw	fs5,40(sp)
  1024c4:	b0fd                	j	101db2 <(null)+0x38>
  1024c6:	d0d7d06f          	j	801d2 <(null)+0x601ca>
  1024ca:	a2ff                	0xa2ff
  1024cc:	d1e5                	beqz	a1,1024ac <(null)+0x24>
  1024ce:	3426                	fld	fs0,104(sp)
  1024d0:	91b4bf37          	lui	t5,0x91b4b
  1024d4:	f3042f77          	0xf3042f77
  1024d8:	ded0e447          	fmsub.q	fs0,ft1,fa3,fs11,unknown
  1024dc:	d3d3af57          	0xd3d3af57
  1024e0:	d117d177          	0xd117d177
  1024e4:	89d634b7          	lui	s1,0x89d63
  1024e8:	2e28b2f7          	0x2e28b2f7
  1024ec:	dba9                	beqz	a5,10243e <(null)>
  1024ee:	a486                	fsd	ft1,72(sp)
  1024f0:	d16682b7          	lui	t0,0xd1668
  1024f4:	a57a                	fsd	ft10,136(sp)
  1024f6:	a562                	fsd	fs8,136(sp)
  1024f8:	b742                	fsd	fa6,424(sp)
  1024fa:	76fd                	lui	a3,0xfffff
  1024fc:	9a59                	andi	a2,a2,-10
  1024fe:	ae20b12f          	0xae20b12f
  102502:	d108ad2f          	0xd108ad2f
  102506:	ae20b44f          	fnmadd.q	fs0,ft1,ft2,fs5,rup
  10250a:	9775                	srai	a4,a4,0x3d
  10250c:	ae20b6e7          	0xae20b6e7
  102510:	c904be67          	0xc904be67
  102514:	d150b6a3          	0xd150b6a3
  102518:	ba25                	j	101e50 <(null)+0xd6>
  10251a:	b03a                	fsd	fa4,32(sp)
  10251c:	d250b6a7          	fsd	ft5,-723(ra)
  102520:	d9767ba7          	0xd9767ba7
  102524:	737d                	lui	t1,0xfffff
  102526:	d77672bf d3d0b8ff 	0xd3d0b8ffd77672bf
  10252e:	9178b8cf          	fnmadd.s	fa7,fa7,fs7,fs2,rup
  102532:	d0d7a63f d176e82f 	0xd176e82fd0d7a63f
  10253a:	a69f d0d6 560f      	0x560fd0d6a69f
  102540:	d0c6                	sw	a7,96(sp)
  102542:	877f                	0x877f
  102544:	d110                	sw	a2,32(a0)
  102546:	ba5d                	j	101efc <(null)+0x46>
  102548:	d177e657          	0xd177e657
  10254c:	a20e                	fsd	ft3,256(sp)
  10254e:	d166844f          	fnmadd.s	fs0,fa3,fs6,fs10,rne
  102552:	a366                	fsd	fs9,384(sp)
  102554:	d177b6a7          	fsd	fs7,-755(a5) # dd0d <(null)+0x5d0d>
  102558:	b1c2                	fsd	fa6,224(sp)
  10255a:	d150b61b          	0xd150b61b
  10255e:	bb15                	j	102292 <(null)+0x1c6>
  102560:	c5d7b7a7          	fsd	ft9,-945(a5)
  102564:	3085                	jal	101dc4 <(null)+0x4a>
  102566:	ae20b6cf          	fnmadd.q	fa3,ft1,ft2,fs5,rup
  10256a:	9934bc8f          	0x9934bc8f
  10256e:	2e50b6cb          	fnmsub.q	fa3,ft1,ft5,ft5,rup
  102572:	23a5                	jal	102ada <(null)+0x48>
  102574:	bb39                	j	102292 <(null)+0x1c6>
  102576:	d1c5448f          	0xd1c5448f
  10257a:	d1c566bf 27d7b9b1 	0x27d7b9b1d1c566bf
  102582:	bac9d027          	0xbac9d027
  102586:	b48d                	j	101fe8 <(null)+0x132>
  102588:	9525                	srai	a0,a0,0x29
  10258a:	b4ff                	0xb4ff
  10258c:	2fd5                	jal	102d80 <(null)+0x138>
  10258e:	d3d0baef          	jal	s5,e2ca <(null)+0x62ca>
  102592:	d107e4bf ba477f49 	0xba477f49d107e4bf
  10259a:	d0c5                	beqz	s1,10253a <(null)+0xb2>
  10259c:	d5d0ba27          	fsd	ft9,-684(ra)
  1025a0:	9178b7f7          	0x9178b7f7
  1025a4:	d177aae7          	0xd177aae7
  1025a8:	d118d4d7          	0xd118d4d7
  1025ac:	d11084c7          	fmsub.s	fs1,ft1,fa7,fs10,rne
  1025b0:	b985                	j	102220 <(null)+0x154>
  1025b2:	70d9                	lui	ra,0xffff6
  1025b4:	88a1                	andi	s1,s1,8
  1025b6:	b991                	j	10220a <(null)+0x13e>
  1025b8:	d1108497          	auipc	s1,0xd1108
  1025bc:	883d                	andi	s0,s0,15
  1025be:	b9df dbd8 b67f      	0xb67fdbd8b9df
  1025c4:	d2059153          	0xd2059153
  1025c8:	d16755d7          	0xd16755d7
  1025cc:	93d63017          	auipc	zero,0x93d63
  1025d0:	2e25b597          	auipc	a1,0x2e25b
  1025d4:	d0d9                	beqz	s1,10255a <(null)+0xd2>
  1025d6:	a3fa                	fsd	ft10,448(sp)
  1025d8:	a1ca                	fsd	fs2,192(sp)
  1025da:	051f d115 a1da      	0xa1dad115051f
  1025e0:	89b9                	andi	a1,a1,14
  1025e2:	bbdf ae20 aebf      	0xaebfae20bbdf
  1025e8:	d0d5                	beqz	s1,10258c <(null)+0x104>
  1025ea:	b102                	fsd	ft0,160(sp)
  1025ec:	b312                	fsd	ft4,416(sp)
  1025ee:	8989                	andi	a1,a1,2
  1025f0:	ae20b517          	auipc	a0,0xae20b
  1025f4:	2f03b877          	0x2f03b877
  1025f8:	d150b513          	sltiu	a0,ra,-747
  1025fc:	b935                	j	102238 <(null)+0x16c>
  1025fe:	b042                	fsd	fa6,32(sp)
  102600:	d250b957          	0xd250b957
  102604:	d705ff37          	lui	t5,0xd705f
  102608:	7c4d                	lui	s8,0xffff3
  10260a:	d305f70f          	0xd305f70f
  10260e:	d3d0b46f          	jal	s0,e34a <(null)+0x634a>
  102612:	9108b43f d0d7292f 	0xd0d7292f9108b43f
  10261a:	649f d105 298f      	0x298fd105649f
  102620:	d0d5                	beqz	s1,1025c4 <(null)+0x13c>
  102622:	d9ff                	0xd9ff
  102624:	d0c5                	beqz	s1,1025c4 <(null)+0x13c>
  102626:	d160896f          	jal	s2,ab3c <(null)+0x2b3c>
  10262a:	b4f5                	j	102116 <(null)+0x4a>
  10262c:	d1076b47          	fmsub.s	fs6,fa4,fa6,fs10,unknown
  102630:	d115b937          	lui	s2,0xd115b
  102634:	ae7a                	fsd	ft10,280(sp)
  102636:	d1150aaf          	0xd1150aaf
  10263a:	ae4a                	fsd	fs2,280(sp)
  10263c:	bdfa                	fsd	ft10,248(sp)
  10263e:	86d9                	srai	a3,a3,0x16
  102640:	2fd63857          	0x2fd63857
  102644:	d3d0b5c7          	fmsub.d	fa1,ft1,ft9,fs10,rup
  102648:	d1776557          	0xd1776557
  10264c:	7d21                	lui	s10,0xfffe8
  10264e:	3a1f d0c6 b81f      	0xb81fd0c63a1f
  102654:	d5d0                	sw	a2,44(a1)
  102656:	b55d                	j	1024fc <(null)+0x74>
  102658:	d1772817          	auipc	a6,0xd1772
  10265c:	b52d                	j	102486 <(null)+0x2c>
  10265e:	d170880f          	0xd170880f
  102662:	d8ff                	0xd8ff
  102664:	d178                	sw	a4,100(a0)
  102666:	7f09                	lui	t5,0xfffe2
  102668:	8f51                	or	a4,a4,a2
  10266a:	58df d167 88cf      	0x88cfd16758df
  102670:	d170                	sw	a2,100(a0)
  102672:	870d                	srai	a4,a4,0x3
  102674:	d1c4bb07          	fld	fs6,-740(s1) # d120a2d4 <(null)+0xd10d22c4>
  102678:	ae3648b7          	lui	a7,0xae364
  10267c:	d9dd                	beqz	a1,102632 <(null)+0x1aa>
  10267e:	d1675b0f          	0xd1675b0f
  102682:	df31                	beqz	a4,1025de <(null)+0x156>
  102684:	e7d63537          	lui	a0,0xe7d63
  102688:	d117d8d7          	0xd117d8d7
  10268c:	f9a5                	bnez	a1,1025fc <(null)+0x174>
  10268e:	ad06                	fsd	ft1,152(sp)
  102690:	acea                	fsd	fs10,88(sp)
  102692:	d1668b3f b913ace2 	0xb913ace2d1668b3f
  10269a:	d150                	sw	a2,36(a0)
  10269c:	b41d                	j	1020c2 <(null)+0x20c>
  10269e:	beda                	fsd	fs6,376(sp)
  1026a0:	fc81                	bnez	s1,1025b8 <(null)+0x130>
  1026a2:	2e50b9fb          	0x2e50b9fb
  1026a6:	2cf5                	jal	1029a2 <(null)+0x51a>
  1026a8:	b449                	j	10212a <(null)+0x5e>
  1026aa:	7fbd                	lui	t6,0xfffef
  1026ac:	d1a549e7          	0xd1a549e7
  1026b0:	e5d7b2e7          	0xe5d7b2e7
  1026b4:	d1254987          	flq	fs3,-750(a0) # e7d62d12 <(null)+0xe7c2ad02>
  1026b8:	7d61                	lui	s10,0xffff8
  1026ba:	e507b9cf          	0xe507b9cf
  1026be:	d19539af          	0xd19539af
  1026c2:	8a7f                	0x8a7f
  1026c4:	ada2d167          	0xada2d167
  1026c8:	bf8a                	fsd	ft2,504(sp)
  1026ca:	9405                	srai	s0,s0,0x21
  1026cc:	e4b9                	bnez	s1,10271a <(null)+0x292>
  1026ce:	b471                	j	10215a <(null)+0x8e>
  1026d0:	33d6b4e7          	0x33d6b4e7
  1026d4:	7ec1                	lui	t4,0xffff0
  1026d6:	d190b8ab          	0xd190b8ab
  1026da:	7ff9                	lui	t6,0xffffe
  1026dc:	ae20bb27          	fsd	ft2,-1290(ra) # ffff5af6 <(null)+0xffebdae6>
  1026e0:	9cb5                	0x9cb5
  1026e2:	badf ae20 32bf      	0x32bfae20badf
  1026e8:	e176                	fsw	ft9,128(sp)
  1026ea:	ac96                	fsd	ft5,88(sp)
  1026ec:	d1668ac7          	fmsub.s	fs5,fa3,fs6,fs10,rne
  1026f0:	ad6a                	fsd	fs10,152(sp)
  1026f2:	ad72                	fsd	ft8,152(sp)
  1026f4:	d0272a87          	flw	fs5,-766(a4) # fffe8d02 <(null)+0xffeb0cf2>
  1026f8:	b8f5                	j	101ff4 <(null)+0x13e>
  1026fa:	da1f d115 b96d      	0xb96dd115da1f
  102700:	b926                	fsd	fs1,176(sp)
  102702:	8a75                	andi	a2,a2,29
  102704:	dcd0ee37          	lui	t3,0xdcd0e
  102708:	d9d3a907          	flw	fs2,-611(t2) # d163846d <(null)+0xd150045d>
  10270c:	d117dec7          	fmsub.s	ft9,fa5,fa7,fs10,unknown
  102710:	e5d63567          	0xe5d63567
  102714:	2e28bd07          	fld	fs10,738(a7) # ae3642e2 <(null)+0xae22c2d2>
  102718:	d461                	beqz	s0,1026e0 <(null)+0x258>
  10271a:	3e1f 9115 0d0f      	0xd0f91153e1f
  102720:	d115                	beqz	a0,102644 <(null)+0x1bc>
  102722:	b201                	j	102022 <(null)+0x16c>
  102724:	b209                	j	102026 <(null)+0x170>
  102726:	b83a                	fsd	fa4,48(sp)
  102728:	79b5                	lui	s3,0xfffed
  10272a:	9d09                	0x9d09
  10272c:	ae20be67          	0xae20be67
  102730:	0d08b367          	0xd08b367
  102734:	d250be07          	fld	ft8,-731(ra)
  102738:	d97670c7          	fmsub.s	ft1,fa2,fs7,fs11
  10273c:	7b1d                	lui	s6,0xfffe7
  10273e:	77df d576 b15f      	0xb15fd57677df
  102744:	d3d0                	sw	a2,36(a5)
  102746:	9178b16f          	jal	sp,8e05c <(null)+0x6e054>
  10274a:	afdf d0d7 e1cf      	0xe1cfd0d7afdf
  102750:	d176                	sw	t4,160(sp)
  102752:	d0d6af3f d0c65faf 	0xd0c65fafd0d6af3f
  10275a:	8f1f d110 b23d      	0xb23dd1108f1f
  102760:	d177eef7          	0xd177eef7
  102764:	91153fe7          	0x91153fe7
  102768:	d1150cd7          	0xd1150cd7
  10276c:	91373ec7          	fmsub.s	ft9,fa4,fs3,fs2,rup
  102770:	9177be37          	lui	t3,0x9177b
  102774:	b972                	fsd	ft8,176(sp)
  102776:	d150b0ab          	0xd150b0ab
  10277a:	4e9f d0f7 ebf5      	0xebf5d0f74e9f
  102780:	266d                	jal	102b2a <(null)+0x2e>
  102782:	437f                	0x437f
  102784:	b6a6d0f7          	0xb6a6d0f7
  102788:	956d                	srai	a0,a0,0x3b
  10278a:	bcff                	0xbcff
  10278c:	ae20                	fsd	fs0,88(a2)
  10278e:	b59f 2104 bcbb      	0xbcbb2104b59f
  102794:	d150                	sw	a2,36(a0)
  102796:	b01d                	j	101fbc <(null)+0x106>
  102798:	ba32                	fsd	fa2,304(sp)
  10279a:	8011                	srli	s0,s0,0x4
  10279c:	2fd5bca7          	fsd	ft9,761(a1) # 2e35d8c9 <(null)+0x2e2258b9>
  1027a0:	d3d0b257          	0xd3d0b257
  1027a4:	d107ec67          	0xd107ec67
  1027a8:	77b1                	lui	a5,0xfffec
  1027aa:	d0c5b28f          	0xd0c5b28f
  1027ae:	d5d0b2ef          	jal	t0,e50a <(null)+0x650a>
  1027b2:	9178bfbf d177a2af 	0xd177a2af9178bfbf
  1027ba:	dc9f d118 8c8f      	0x8c8fd118dc9f
  1027c0:	d110                	sw	a2,32(a0)
  1027c2:	b04d                	j	102064 <(null)+0x1ae>
  1027c4:	7901                	lui	s2,0xfffe0
  1027c6:	8171                	srli	a0,a0,0x1c
  1027c8:	b069                	j	102052 <(null)+0x19c>
  1027ca:	8d5f d110 81f5      	0x81f5d1108d5f
  1027d0:	ddd8be67          	0xddd8be67
  1027d4:	9153be27          	fsd	fs5,-1764(t2)
  1027d8:	d66d                	beqz	a2,1027c2 <(null)+0x33a>
  1027da:	531f d167 b35f      	0xb35fd167531f
  1027e0:	f9d8                	fsw	fa4,52(a1)
  1027e2:	b3df 2e25 a0bf      	0xa0bf2e25b3df
  1027e8:	d1d8                	sw	a4,36(a1)
  1027ea:	be5f 9166 bc4f      	0xbc4f9166be5f
  1027f0:	8dbf9127          	0x8dbf9127
  1027f4:	d166                	sw	s9,160(sp)
  1027f6:	b159                	j	10247c <(null)+0x22>
  1027f8:	ba46                	fsd	fa7,304(sp)
  1027fa:	89c5                	andi	a1,a1,17
  1027fc:	ae20b327          	fsd	ft2,-1306(ra)
  102800:	d2c59427          	0xd2c59427
  102804:	86ba                	mv	a3,a4
  102806:	84ba                	mv	s1,a4
  102808:	ae208077          	0xae208077
  10280c:	a15d                	j	102cb2 <(null)+0x6a>
  10280e:	ae208c6f          	jal	s8,aaf0 <(null)+0x2af0>
  102812:	2ed38def          	jal	s11,13b2fe <(null)+0x32ee>
  102816:	d1508c2b          	0xd1508c2b
  10281a:	639f d0d7 8942      	0x8942d0d7639f
  102820:	d25081d7          	0xd25081d7
  102824:	d6d5c2b7          	lui	t0,0xd6d5c
  102828:	44cd                	li	s1,19
  10282a:	d2d5c98f          	0xd2d5c98f
  10282e:	d3d08c6f          	jal	s8,b56a <(null)+0x356a>
  102832:	90d80c3f d0c711af 	0xd0c711af90d80c3f
  10283a:	5a9f d0d5 110f      	0x110fd0d55a9f
  102840:	d0c5                	beqz	s1,1027e0 <(null)+0x358>
  102842:	e07f                	0xe07f
  102844:	d015                	beqz	s0,102768 <(null)+0x2e0>
  102846:	d160b0ef          	jal	ra,dd5c <(null)+0x5d5c>
  10284a:	8d75                	and	a0,a0,a3
  10284c:	d0d752c7          	fmsub.s	ft5,fa4,fa3,fs10,unknown
  102850:	917680b7          	lui	ra,0x91768
  102854:	912782a7          	0x912782a7
  102858:	d166b317          	auipc	t1,0xd166b
  10285c:	8ff1                	and	a5,a5,a2
  10285e:	8472                	mv	s0,t3
  102860:	8426                	mv	s0,s1
  102862:	bf89                	j	1027b4 <(null)+0x32c>
  102864:	2fd880c7          	fmsub.q	ft1,fa7,ft9,ft5,rne
  102868:	d3d08bf7          	0xd3d08bf7
  10286c:	d1775d47          	fmsub.s	fs10,fa4,fs7,fs10,unknown
  102870:	45d1                	li	a1,20
  102872:	d0188def          	jal	s11,8b572 <(null)+0x6b56a>
  102876:	d5d0808f          	0xd5d0808f
  10287a:	809f 90d5 108f      	0x108f90d5809f
  102880:	8e55d177          	0x8e55d177
  102884:	d170b367          	0xd170b367
  102888:	d1786357          	0xd1786357
  10288c:	44a1                	li	s1,8
  10288e:	b4e1                	j	102356 <(null)+0x28a>
  102890:	d1676337          	lui	t1,0xd1676
  102894:	d170b327          	fsd	fs7,-762(ra) # 91767d06 <(null)+0x9162fcf6>
  102898:	bca5                	j	102310 <(null)+0x244>
  10289a:	d1c4833f ae35f32f 	0xae35f32fd1c4833f
  1028a2:	eabd                	bnez	a3,102918 <(null)+0x490>
  1028a4:	d1676ee7          	0xd1676ee7
  1028a8:	d117e3d7          	0xd117e3d7
  1028ac:	eb81                	bnez	a5,1028bc <(null)+0x434>
  1028ae:	9e9f d1d8 84ef      	0x84efd1d89e9f
  1028b4:	cdd5                	beqz	a1,102970 <(null)+0x4e8>
  1028b6:	8472                	mv	s0,t3
  1028b8:	8642                	mv	a2,a6
  1028ba:	874e                	mv	a4,s3
  1028bc:	b825                	j	1020f4 <(null)+0x28>
  1028be:	815f 0fd5 0f7f      	0xf7f0fd5815f
  1028c4:	9115                	srli	a0,a0,0x25
  1028c6:	d0d53fef          	jal	t6,565d2 <(null)+0x365ca>
  1028ca:	025f 9137 824f      	0x824f9137025f
  1028d0:	90c5                	srli	s1,s1,0x31
  1028d2:	d1508fbb          	0xd1508fbb
  1028d6:	d0c5ffaf          	0xd0c5ffaf
  1028da:	d1d80d4f          	fnmadd.s	fs10,fa6,ft9,fs10,rne
  1028de:	9166828f          	0x9166828f
  1028e2:	807f                	0x807f
  1028e4:	b1ef9127          	0xb1ef9127
  1028e8:	d166                	sw	s9,160(sp)
  1028ea:	8d29                	xor	a0,a0,a0
  1028ec:	b559                	j	102772 <(null)+0x2ea>
  1028ee:	d178e24f          	fnmadd.s	ft4,fa7,fs7,fs10,unknown
  1028f2:	c9d501ef          	jal	gp,5358e <(null)+0x33586>
  1028f6:	8562                	mv	a0,s8
  1028f8:	8732                	mv	a4,a2
  1028fa:	b9b5                	j	102576 <(null)+0xee>
  1028fc:	d1d89fd7          	0xd1d89fd7
  102900:	c9d58127          	0xc9d58127
  102904:	82ba                	mv	t0,a4
  102906:	80ba                	mv	ra,a4
  102908:	8186                	mv	gp,ra
  10290a:	bbcd                	j	1026fc <(null)+0x274>
  10290c:	6fd58d97          	auipc	s11,0x6fd58
  102910:	b681                	j	102450 <(null)+0x8>
  102912:	911509bf d0e5352f 	0xd0e5352f911509bf
  10291a:	091f 9137 890f      	0x890f9137091f
  102920:	9179                	srli	a0,a0,0x3e
  102922:	d15085fb          	0xd15085fb
  102926:	d179f5ef          	jal	a1,a263c <(null)+0x82634>
  10292a:	cc9d                	beqz	s1,102968 <(null)+0x4e0>
  10292c:	91668947          	fmsub.s	fs2,fa3,fs6,fs2,rne
  102930:	91278737          	lui	a4,0x91278
  102934:	d0e6b6a7          	fsd	fa4,-755(a3) # ffffed0d <(null)+0xffec6cfd>
  102938:	91170997          	auipc	s3,0x91170
  10293c:	8156                	mv	sp,s5
  10293e:	84df d7d9 8152      	0x8152d7d984df
  102944:	d1a0b1bb          	0xd1a0b1bb
  102948:	2e558677          	0x2e558677
  10294c:	43dd                	li	t2,23
  10294e:	431f d737 869f      	0x869fd737431f
  102954:	d3d0                	sw	a2,36(a5)
  102956:	8bd1                	andi	a5,a5,20
  102958:	d1399817          	auipc	a6,0xd1399
  10295c:	d1295687          	0xd1295687
  102960:	d0f76677          	0xd0f76677
  102964:	d1391467          	0xd1391467
  102968:	d757ce87          	flq	ft9,-651(a5) # fffebd75 <(null)+0xffeb3d65>
  10296c:	8ba1                	andi	a5,a5,8
  10296e:	d1c7876f          	jal	a4,7ae8a <(null)+0x5ae82>
  102972:	42a5                	li	t0,9
  102974:	d506c4f7          	0xd506c4f7
  102978:	d3d086b7          	lui	a3,0xd3d08
  10297c:	8bf5                	andi	a5,a5,29
  10297e:	d137178f          	0xd137178f
  102982:	577f                	0x577f
  102984:	d105                	beqz	a0,1028a4 <(null)+0x41c>
  102986:	d13517ef          	jal	a5,54698 <(null)+0x34690>
  10298a:	8971                	andi	a0,a0,28
  10298c:	d160b7c7          	fmsub.s	fa5,ft1,fs6,fs10,rup
  102990:	8a81                	andi	a3,a3,0
  102992:	d10755bf bc614349 	0xbc614349d10755bf
  10299a:	679f d0f9 f6ad      	0xf6add0f9679f
  1029a0:	4011                	c.li	zero,4
  1029a2:	4399                	li	t2,6
  1029a4:	af59                	j	10313a <(null)+0xb2>
  1029a6:	82c6                	mv	t0,a7
  1029a8:	abf0b20b          	0xabf0b20b
  1029ac:	d3d587e7          	jalr	a5,-707(a1)
  1029b0:	b8b1                	j	10220c <(null)+0x140>
  1029b2:	851f 2c55 152f      	0x152f2c55851f
  1029b8:	d129                	beqz	a0,1028fa <(null)+0x472>
  1029ba:	4279                	li	tp,30
  1029bc:	b095                	j	102220 <(null)+0x154>
  1029be:	10ed                	addi	ra,ra,-5
  1029c0:	d3d08557          	0xd3d08557
  1029c4:	d1375467          	0xd1375467
  1029c8:	4331                	li	t1,12
  1029ca:	d116040f          	0xd116040f
  1029ce:	d5d0866f          	jal	a2,b72a <(null)+0x372a>
  1029d2:	8b4d                	andi	a4,a4,19
  1029d4:	d1771627          	0xd1771627
  1029d8:	8b3d                	andi	a4,a4,15
  1029da:	b61f d170 e68f      	0xe68fd170b61f
  1029e0:	4119d177          	0x4119d177
  1029e4:	b9cd                	j	1026d6 <(null)+0x24e>
  1029e6:	8a91                	andi	a3,a3,4
  1029e8:	2e5084d3          	fmin.q	fs1,ft1,ft5
  1029ec:	11dd                	addi	gp,gp,-9
  1029ee:	8951                	andi	a0,a0,20
  1029f0:	bfa5                	j	102968 <(null)+0x4e0>
  1029f2:	8162                	mv	sp,s8
  1029f4:	8372                	mv	t1,t3
  1029f6:	82e2                	mv	t0,s8
  1029f8:	bfa5                	j	102970 <(null)+0x4e8>
  1029fa:	8142                	mv	sp,a6
  1029fc:	8352                	mv	t1,s4
  1029fe:	b795                	j	102962 <(null)+0x4da>
  102a00:	ae208857          	0xae208857
  102a04:	4e81                	li	t4,0
  102a06:	4c89                	li	s9,2
  102a08:	d1508b53          	0xd1508b53
  102a0c:	865d                	srai	a2,a2,0x17
  102a0e:	c239                	beqz	a2,102a54 <(null)+0x5cc>
  102a10:	0d55                	addi	s10,s10,21
  102a12:	8b1f ae20 877f      	0x877fae208b1f
  102a18:	d734                	sw	a3,104(a4)
  102a1a:	2e508b1b          	0x2e508b1b
  102a1e:	1e15                	addi	t3,t3,-27
  102a20:	8669                	srai	a2,a2,0x1a
  102a22:	1bdf d007 59cf      	0x59cfd0071bdf
  102a28:	d1e5                	beqz	a1,102a08 <(null)+0x580>
  102a2a:	84e1                	srai	s1,s1,0x18
  102a2c:	ae208be7          	jalr	s7,-1310(ra)
  102a30:	8a5d                	andi	a2,a2,23
  102a32:	d13495ef          	jal	a1,4c744 <(null)+0x2c73c>
  102a36:	8495                	srai	s1,s1,0x5
  102a38:	4e71                	li	t3,28
  102a3a:	ccf1                	beqz	s1,102b16 <(null)+0x1a>
  102a3c:	d1d88b03          	lb	s6,-739(a7)
  102a40:	4d11                	li	s10,4
  102a42:	4c99                	li	s9,6
  102a44:	d0949a47          	fmsub.s	fs4,fs1,fs1,fs10,rtz
  102a48:	ae208bd3          	0xae208bd3
  102a4c:	0f92                	slli	t6,t6,0x4
  102a4e:	48da                	lw	a7,148(sp)
  102a50:	4c32                	lw	s8,12(sp)
  102a52:	872d                	srai	a4,a4,0xb
  102a54:	8bf1                	andi	a5,a5,28
  102a56:	0cb6                	slli	s9,s9,0xd
  102a58:	87a9                	srai	a5,a5,0xa
  102a5a:	6a1f d147 412a      	0x412ad1476a1f
  102a60:	4c42                	lw	s8,16(sp)
  102a62:	412a                	lw	sp,136(sp)
  102a64:	8d3a                	mv	s10,a4
  102a66:	698d                	lui	s3,0x3
  102a68:	8832                	mv	a6,a2
  102a6a:	8cfa                	mv	s9,t5
  102a6c:	b921                	j	102684 <(null)+0x1fc>
  102a6e:	8f12                	mv	t5,tp
  102a70:	8d62                	mv	s10,s8
  102a72:	8cf2                	mv	s9,t3
  102a74:	bd59                	j	10290a <(null)+0x482>
  102a76:	4f49                	li	t5,18
  102a78:	4d71                	li	s10,28
  102a7a:	4c79                	li	s8,30
  102a7c:	bf91                	j	1029d0 <(null)+0x548>
  102a7e:	4f69                	li	t5,26
  102a80:	b4fd                	j	10256e <(null)+0xe6>
  102a82:	4e99                	li	t4,6
  102a84:	4f81                	li	t6,0
  102a86:	d19089eb          	0xd19089eb
  102a8a:	b2b1                	j	1023d6 <(null)+0x2>
  102a8c:	4ca1                	li	s9,8
  102a8e:	4ea9                	li	t4,10
  102a90:	b419                	j	102496 <(null)+0xe>
  102a92:	591f d095 89ab      	0x89abd095591f
  102a98:	d1c0                	sw	s0,36(a1)
  102a9a:	1c85                	addi	s9,s9,-31
  102a9c:	d0965627          	0xd0965627
  102aa0:	88ba                	mv	a7,a4
  102aa2:	8532                	mv	a0,a2
  102aa4:	ae27f9c7          	fmsub.q	fs3,fa5,ft2,fs5
  102aa8:	ae208bf7          	0xae208bf7
  102aac:	d1677647          	fmsub.s	fa2,fa4,fs6,fs10
  102ab0:	84e2                	mv	s1,s8
  102ab2:	842d                	srai	s0,s0,0xb
  102ab4:	8a3d                	andi	a2,a2,15
  102ab6:	ae28f68f          	0xae28f68f
  102aba:	8905                	andi	a0,a0,1
  102abc:	d17794d7          	0xd17794d7
  102ac0:	d1b86177          	0xd1b86177
  102ac4:	4f05                	li	t5,1
  102ac6:	d1de9b3f d1388a0f 	0xd1388a0fd1de9b3f
  102ace:	8aaa                	mv	s5,a0
  102ad0:	d1789a67          	0xd1789a67
  102ad4:	841d                	srai	s0,s0,0x7
  102ad6:	4f4d                	li	t5,19
  102ad8:	f00d                	bnez	s0,1029fa <(null)+0x572>
  102ada:	4f7d                	li	t5,31
  102adc:	2ed796d7          	0x2ed796d7
  102ae0:	2f281827          	0x2f281827
  102ae4:	2e3e1a37          	lui	s4,0x2e3e1
  102ae8:	d1050787          	0xd1050787
  102aec:	f9cd                	bnez	a1,102a9e <(null)+0xc>
  102aee:	d1b86acf          	fnmadd.s	fs5,fa6,fs11,fs10,unknown
  102af2:	d170babf 4ff18a4a 	0x4ff18a4ad170babf
  102afa:	8a7a                	mv	s4,t5
  102afc:	d1c08883          	lb	a7,-740(ra)
  102b00:	1a6d                	addi	s4,s4,-5
  102b02:	505f d095 f0ef      	0xf0efd095505f
  102b08:	8a92d167          	0x8a92d167
  102b0c:	8e0a                	mv	t3,sp
  102b0e:	ae28f06f          	j	91df0 <(null)+0x71de8>
  102b12:	5d1f d025 868f      	0x868fd0255d1f
  102b18:	ae20                	fsd	fs0,88(a2)
  102b1a:	d0965dbf 83a2821d 	0x83a2821dd0965dbf
  102b22:	7d5f ae25 8f75      	0x8f75ae257d5f
  102b28:	d0089087          	0xd0089087
  102b2c:	d1286647          	fmsub.s	fa2,fa6,fs2,fs10,unknown
  102b30:	d7de0ce7          	jalr	s9,-643(t3) # 9177ad7d <(null)+0x91642d6d>
  102b34:	58b9                	li	a7,-18
  102b36:	8d4a                	mv	s10,s2
  102b38:	d0051ec7          	fmsub.s	ft9,fa0,ft0,fs10,rtz
  102b3c:	d117e607          	0xd117e607
  102b40:	2fde13a7          	0x2fde13a7
  102b44:	d5d89537          	lui	a0,0xd5d89
  102b48:	d1286ed7          	0xd1286ed7
  102b4c:	d1c73ee7          	0xd1c73ee7
  102b50:	edc9                	bnez	a1,102bea <(null)+0x48>
  102b52:	8201                	c.srli64	a2
  102b54:	c24d                	beqz	a2,102bf6 <(null)+0x54>
  102b56:	e7c9                	bnez	a5,102be0 <(null)+0x3e>
  102b58:	d1059d47          	fmsub.s	fs10,fa1,fa6,fs10,rtz
  102b5c:	d0d55057          	0xd0d55057
  102b60:	c99d                	beqz	a1,102b96 <(null)+0x9a>
  102b62:	59e5                	li	s3,-7
  102b64:	8c02                	jr	s8
  102b66:	59f5                	li	s3,-3
  102b68:	ca21                	beqz	a2,102bb8 <(null)+0x16>
  102b6a:	898e                	mv	s3,gp
  102b6c:	8c22                	mv	s8,s0
  102b6e:	dd9f d168 d5bd      	0xd5bdd168dd9f
  102b74:	8c42                	mv	s8,a6
  102b76:	ec7f                	0xec7f
  102b78:	15cf2ec7          	0x15cf2ec7
  102b7c:	d138                	sw	a4,96(a0)
  102b7e:	e85f 2fbe e2af      	0xe2af2fbee85f
  102b84:	4a092e13          	slti	t3,s2,1184
  102b88:	8fb2                	mv	t6,a2
  102b8a:	4a3d                	li	s4,15
  102b8c:	8fa2                	mv	t6,s0
  102b8e:	f0cd                	bnez	s1,102b30 <(null)+0x34>
  102b90:	b091                	j	1023d4 <(null)>
  102b92:	2f386aef          	jal	s5,189684 <(null)+0x51674>
  102b96:	b08d                	j	1023f8 <(null)+0x12>
  102b98:	2ad508c7          	fmsub.d	fa7,fa0,fa3,ft5,rne
  102b9c:	f2b5                	bnez	a3,102b00 <(null)+0x4>
  102b9e:	48e9                	li	a7,26
  102ba0:	b0dd                	j	102486 <(null)+0x2c>
  102ba2:	d1c08dfb          	0xd1c08dfb
  102ba6:	18f5                	addi	a7,a7,-3
  102ba8:	d09552f7          	0xd09552f7
  102bac:	d167f247          	fmsub.s	ft4,fa5,fs6,fs10
  102bb0:	887a                	mv	a6,t5
  102bb2:	8cf2                	mv	s9,t3
  102bb4:	ae28f287          	0xae28f287
  102bb8:	d0255fb7          	lui	t6,0xd0255
  102bbc:	ae208427          	0xae208427
  102bc0:	d0965ed7          	0xd0965ed7
  102bc4:	8175                	srli	a0,a0,0x1d
  102bc6:	803a                	c.mv	zero,a4
  102bc8:	ae257ef7          	0xae257ef7
  102bcc:	8cdd                	or	s1,s1,a5
  102bce:	931f d008 65bf      	0x65bfd008931f
  102bd4:	d128                	sw	a0,96(a0)
  102bd6:	0f7f                	0xf7f
  102bd8:	d7de                	sw	s7,236(sp)
  102bda:	4b71                	li	s6,28
  102bdc:	8ee2                	mv	t4,s8
  102bde:	1d5f d005 e57f      	0xe57fd0051d5f
  102be4:	113fd117          	auipc	sp,0x113fd
  102be8:	2fde                	fld	ft11,464(sp)
  102bea:	d5d8978f          	0xd5d8978f
  102bee:	d1286c4f          	fnmadd.s	fs8,fa6,fs2,fs10,unknown
  102bf2:	3c1f d1c7 ef51      	0xef51d1c73c1f
  102bf8:	80a9                	srli	s1,s1,0xa
  102bfa:	c0f5                	beqz	s1,102cde <(null)+0x96>
  102bfc:	e561                	bnez	a0,102cc4 <(null)+0x7c>
  102bfe:	9fdf d105 4d2f      	0x4d2fd1059fdf
  102c04:	d0d5                	beqz	s1,102ba8 <(null)+0x6>
  102c06:	d405                	beqz	s0,102b2e <(null)+0x32>
  102c08:	444d                	li	s0,19
  102c0a:	91ba                	add	gp,gp,a4
  102c0c:	445d                	li	s0,23
  102c0e:	d7b9                	beqz	a5,102b5c <(null)+0x60>
  102c10:	9466                	add	s0,s0,s9
  102c12:	91da                	add	gp,gp,s6
  102c14:	d168c077          	0xd168c077
  102c18:	c815                	beqz	s0,102c4c <(null)+0x4>
  102c1a:	91fa                	add	gp,gp,t5
  102c1c:	2ec7f1d7          	0x2ec7f1d7
  102c20:	d13808a7          	0xd13808a7
  102c24:	2fbef537          	lui	a0,0x2fbef
  102c28:	2e13fc07          	0x2e13fc07
  102c2c:	54a1                	li	s1,-24
  102c2e:	912a                	add	sp,sp,a0
  102c30:	54d5                	li	s1,-11
  102c32:	915a                	add	sp,sp,s6
  102c34:	ee25                	bnez	a2,102cac <(null)+0x64>
  102c36:	ae09                	j	102f48 <(null)+0x300>
  102c38:	2f387447          	fmsub.q	fs0,fa6,fs3,ft5
  102c3c:	ae25                	j	102f74 <(null)+0x32c>
  102c3e:	165f 2ad5 edcd      	0xedcd2ad5165f
  102c44:	5781                	li	a5,-32
  102c46:	af45                	j	1033f6 <(null)+0x36e>
  102c48:	6149                	addi	sp,sp,144
  102c4a:	de76                	sw	t4,60(sp)
  102c4c:	d0954ce7          	0xd0954ce7
  102c50:	c472                	sw	t3,8(sp)
  102c52:	c27e                	sw	t6,4(sp)
  102c54:	dc12                	sw	tp,56(sp)
  102c56:	da1e                	sw	t2,52(sp)
  102c58:	d62e                	sw	a1,44(sp)
  102c5a:	d11501bf c0dac66e 	0xc0dac66ed11501bf
  102c62:	d8c2                	sw	a6,112(sp)
  102c64:	ae296c47          	fmsub.q	fs8,fs2,ft2,fs5,unknown
  102c68:	949a                	add	s1,s1,t1
  102c6a:	9b0a                	add	s6,s6,sp
  102c6c:	9a16                	add	s4,s4,t0
  102c6e:	9019                	srli	s0,s0,0x26
  102c70:	d0254f97          	auipc	t6,0xd0254
  102c74:	d9d915f7          	0xd9d915f7
  102c78:	ae209237          	lui	tp,0xae209
  102c7c:	dd2911d7          	0xdd2911d7
  102c80:	d005c1d7          	0xd005c1d7
  102c84:	178e                	slli	a5,a5,0x23
  102c86:	9fd5                	0x9fd5
  102c88:	d15091d3          	0xd15091d3
  102c8c:	9ffd                	0x9ffd
  102c8e:	d1e58f6f          	jal	t5,5b1ac <(null)+0x3b1a4>
  102c92:	1f9f 11c9 5849      	0x584911c91f9f
  102c98:	d09a4337          	lui	t1,0xd09a4
  102c9c:	d11a0227          	0xd11a0227
  102ca0:	ae25e3d7          	0xae25e3d7
  102ca4:	93b1                	srli	a5,a5,0x2c
  102ca6:	d02a4c4f          	fnmadd.s	fs8,fs4,ft2,fs10,rmm
  102caa:	dee5                	beqz	a3,102ca2 <(null)+0x5a>
  102cac:	ae209167          	0xae209167
  102cb0:	c12592e7          	0xc12592e7
  102cb4:	d00b4107          	flq	ft2,-768(s6) # fffe6d00 <(null)+0xffeaecf0>
  102cb8:	17fe                	slli	a5,a5,0x3f
  102cba:	9fa5                	0x9fa5
  102cbc:	d1509103          	lh	sp,-747(ra)
  102cc0:	9e4d                	0x9e4d
  102cc2:	925f 11c5 00cf      	0xcf11c5925f
  102cc8:	5539d1eb          	0x5539d1eb
  102ccc:	d1fb81e7          	jalr	gp,-737(s7) # 2e85dd1f <(null)+0x2e725d0f>
  102cd0:	9c89                	0x9c89
  102cd2:	8716                	mv	a4,t0
  102cd4:	04bd                	addi	s1,s1,15
  102cd6:	5a71                	li	s4,-4
  102cd8:	d08ad117          	auipc	sp,0xd08ad
  102cdc:	d1c592a7          	0xd1c592a7
  102ce0:	df08faa7          	0xdf08faa7
  102ce4:	d1c0f2e3          	bgeu	ra,t3,1029e8 <(null)+0x560>
  102ce8:	143a                	slli	s0,s0,0x2e
  102cea:	92ff                	0x92ff
  102cec:	9555                	srai	a0,a0,0x35
  102cee:	8402                	jr	s0
  102cf0:	5044                	lw	s1,36(s0)
  102cf2:	945a                	add	s0,s0,s6
  102cf4:	d1747ea7          	0xd1747ea7
  102cf8:	d5d998c7          	0xd5d998c7
  102cfc:	da6d                	beqz	a2,102cee <(null)+0xa6>
  102cfe:	97ce                	add	a5,a5,s3
  102d00:	9570a0ab          	0x9570a0ab
  102d04:	2e859747          	fmsub.q	fa4,fa1,fs0,ft5,rtz
  102d08:	52c1                	li	t0,-16
  102d0a:	d337570f          	0xd337570f
  102d0e:	52dd                	li	t0,-9
  102d10:	2e559917          	auipc	s2,0x2e559
  102d14:	9ad9                	andi	a3,a3,-10
  102d16:	d0f404af          	0xd0f404af
  102d1a:	c79f d124 99b5      	0x99b5d124c79f
  102d20:	d0f489f7          	0xd0f489f7
  102d24:	11009947          	fmsub.s	fs2,ft1,fa6,ft2,rtz
  102d28:	91791957          	0x91791957
  102d2c:	a20d                	j	102e4e <(null)+0x206>
  102d2e:	9010a013          	slti	zero,ra,-1791
  102d32:	959f d3d5 a231      	0xa231d3d5959f
  102d38:	2c559437          	lui	s0,0x2c559
  102d3c:	d1448407          	0xd1448407
  102d40:	5d11                	li	s10,-28
  102d42:	a3d5                	j	103326 <(null)+0x29e>
  102d44:	d1747867          	0xd1747867
  102d48:	d1d99a07          	0xd1d99a07
  102d4c:	9d0a                	add	s10,s10,sp
  102d4e:	ae2098ef          	jal	a7,c030 <(null)+0x4030>
  102d52:	5f55                	li	t5,-11
  102d54:	a3d1                	j	103318 <(null)+0x290>
  102d56:	50c9                	li	ra,-14
  102d58:	5df1                	li	s11,-4
  102d5a:	5f7d                	li	t5,-1
  102d5c:	ab55                	j	103310 <(null)+0x288>
  102d5e:	50e9                	li	ra,-6
  102d60:	ae209857          	0xae209857
  102d64:	5f89                	li	t6,-30
  102d66:	ab85                	j	1032d6 <(null)+0x24e>
  102d68:	d0a4f657          	0xd0a4f657
  102d6c:	db11                	beqz	a4,102c80 <(null)+0x38>
  102d6e:	dca5                	beqz	s1,102ce6 <(null)+0x9e>
  102d70:	91f2                	add	gp,gp,t3
  102d72:	ec50a163          	0xec50a163
  102d76:	2e85970f          	0x2e85970f
  102d7a:	5309                	li	t1,-30
  102d7c:	d30759d7          	0xd30759d7
  102d80:	5065                	c.li	zero,-7
  102d82:	95df 2e55 981d      	0x981d2e5595df
  102d88:	d1248657          	0xd1248657
  102d8c:	d13b4547          	fmsub.s	fa0,fs6,fs3,fs10,rmm
  102d90:	9b09                	andi	a4,a4,-30
  102d92:	d12b05bf 1100950f 	0x1100950fd12b05bf
  102d9a:	971f 9177 a05d      	0xa05d9177971f
  102da0:	92ce                	add	t0,t0,s3
  102da2:	eb50a223          	sw	s5,-348(ra)
  102da6:	d3d597cf          	fnmadd.d	fa5,fa1,ft9,fs10,rtz
  102daa:	a049                	j	102e2c <(null)+0x1e4>
  102dac:	2c5596e7          	0x2c5596e7
  102db0:	d15b06b7          	lui	a3,0xd15b0
  102db4:	5041                	c.li	zero,-16
  102db6:	a00d                	j	102dd8 <(null)+0x190>
  102db8:	d0a4f517          	auipc	a0,0xd0a4f
  102dbc:	dc71                	beqz	s0,102d98 <(null)+0x150>
  102dbe:	9036                	c.add	zero,a3
  102dc0:	ae209657          	0xae209657
  102dc4:	510d                	li	sp,-29
  102dc6:	a111                	j	1031ca <(null)+0x142>
  102dc8:	5231                	li	tp,-20
  102dca:	5339                	li	t1,-18
  102dcc:	5125                	li	sp,-23
  102dce:	abd5                	j	1033c2 <(null)+0x33a>
  102dd0:	5251                	li	tp,-12
  102dd2:	961f ae20 5141      	0x5141ae20961f
  102dd8:	aba5                	j	103350 <(null)+0x2c8>
  102dda:	7939                	lui	s2,0xfffee
  102ddc:	2e2f9da7          	0x2e2f9da7
  102de0:	d0d9c4d7          	0xd0d9c4d7
  102de4:	d0d74b47          	fmsub.s	fs6,fa4,fa3,fs10,rmm
  102de8:	d009ead7          	0xd009ead7
  102dec:	d0076447          	fmsub.s	fs0,fa4,ft0,fs10,unknown
  102df0:	d2f81bb7          	lui	s7,0xd2f81
  102df4:	d3299527          	0xd3299527
  102df8:	d3279c17          	auipc	s8,0xd3279
  102dfc:	d0289087          	0xd0289087
  102e00:	d0d64457          	0xd0d64457
  102e04:	811a                	mv	sp,t1
  102e06:	d2c7926f          	jal	tp,7c332 <(null)+0x5c32a>
  102e0a:	d028ef0f          	0xd028ef0f
  102e0e:	8752                	mv	a4,s4
  102e10:	d0d8cf97          	auipc	t6,0xd0d8c
  102e14:	d008e427          	0xd008e427
  102e18:	d0066a97          	auipc	s5,0xd0066
  102e1c:	d0d4c327          	fsq	fa3,-762(s1)
  102e20:	d004ee77          	0xd004ee77
  102e24:	11c2                	slli	gp,gp,0x30
  102e26:	81be                	mv	gp,a5
  102e28:	d3879257          	0xd3879257
  102e2c:	d3899a47          	fmsub.d	fs4,fs3,fs8,fs10,rtz
  102e30:	d2ff95b7          	lui	a1,0xd2ff9
  102e34:	d0099fa7          	0xd0099fa7
  102e38:	d0d645b7          	lui	a1,0xd0d64
  102e3c:	80fa                	mv	ra,t5
  102e3e:	d2379b8f          	0xd2379b8f
  102e42:	d009e92f          	0xd009e92f
  102e46:	7b49                	lui	s6,0xffff2
  102e48:	8f2a                	mv	t5,a0
  102e4a:	c3ff                	0xc3ff
  102e4c:	d0d9                	beqz	s1,102dd2 <(null)+0x18a>
  102e4e:	71e9                	lui	gp,0xffffa
  102e50:	86ea                	mv	a3,s10
  102e52:	1a1f 2e29 e42f      	0xe42f2e291a1f
  102e58:	d139                	beqz	a0,102d9e <(null)+0x156>
  102e5a:	9681                	srai	a3,a3,0x20
  102e5c:	d0d44927          	fsq	fa3,-750(s0) # 2c558d12 <(null)+0x2c420d02>
  102e60:	11d2                	slli	gp,gp,0x34
  102e62:	9461                	srai	s0,s0,0x38
  102e64:	d3471ae7          	0xd3471ae7
  102e68:	8186                	mv	gp,ra
  102e6a:	8b72                	mv	s6,t3
  102e6c:	d3249ec7          	fmsub.d	ft9,fs1,fs2,fs10,rtz
  102e70:	d3481b37          	lui	s6,0xd3481
  102e74:	d3581a27          	0xd3581a27
  102e78:	d1b61517          	auipc	a0,0xd1b61
  102e7c:	d0d7cb27          	fsq	fa3,-746(a5)
  102e80:	8dd6                	mv	s11,s5
  102e82:	d1b66d2f          	0xd1b66d2f
  102e86:	8cc6                	mv	s9,a7
  102e88:	d0d646f7          	0xd0d646f7
  102e8c:	72e1                	lui	t0,0xffff8
  102e8e:	d12811cf          	fnmadd.s	ft3,fa6,fs2,fs10,rtz
  102e92:	199f 2e29 16af      	0x16af2e29199f
  102e98:	d342                	sw	a6,164(sp)
  102e9a:	9585                	srai	a1,a1,0x21
  102e9c:	941d                	srai	s0,s0,0x27
  102e9e:	1daa                	slli	s11,s11,0x2a
  102ea0:	8d2a                	mv	s10,a0
  102ea2:	997f                	0x997f
  102ea4:	d384                	sw	s1,32(a5)
  102ea6:	d34f9a6f          	jal	s4,fc3da <(null)+0xdc3d2>
  102eaa:	9ddf d35f 8f16      	0x8f16d35f9ddf
  102eb0:	d0d84a97          	auipc	s5,0xd0d84
  102eb4:	8f62                	mv	t5,s8
  102eb6:	6dff                	0x6dff
  102eb8:	d124                	sw	s1,96(a0)
  102eba:	88b6                	mv	a7,a3
  102ebc:	7c21                	lui	s8,0xfffe8
  102ebe:	0c15                	addi	s8,s8,5
  102ec0:	d1246877          	0xd1246877
  102ec4:	d12867e7          	0xd12867e7
  102ec8:	1d72                	slli	s10,s10,0x3c
  102eca:	8426                	mv	s0,s1
  102ecc:	8d66                	mv	s10,s9
  102ece:	d0fea64f          	fnmadd.s	fa2,ft9,fa5,fs10,rdn
  102ed2:	8d2e                	mv	s10,a1
  102ed4:	d0f79b27          	0xd0f79b27
  102ed8:	8446                	mv	s0,a7
  102eda:	a99f d10e 978f      	0x978fd10ea99f
  102ee0:	d024                	sw	s1,96(s0)
  102ee2:	10ff                	0x10ff
  102ee4:	d108                	sw	a0,32(a0)
  102ee6:	d007a8ef          	jal	a7,7d3e6 <(null)+0x5d3de>
  102eea:	abdf d0f4 96f1      	0x96f1d0f4abdf
  102ef0:	9a11                	andi	a2,a2,-28
  102ef2:	d028273f d10fa92f 	0xd10fa92fd028273f
  102efa:	8ede                	mv	t4,s7
  102efc:	d1087907          	0xd1087907
  102f00:	8926                	mv	s2,s1
  102f02:	8902                	jr	s2
  102f04:	d0afcfc7          	fmsub.s	ft11,ft11,fa0,fs10,rmm
  102f08:	1916                	slli	s2,s2,0x25
  102f0a:	9165                	srli	a0,a0,0x39
  102f0c:	d14e8fe7          	jalr	t6,-748(t4) # fffefd14 <(null)+0xffeb7d04>
  102f10:	d0d77fb7          	lui	t6,0xd0d77
  102f14:	d120afa7          	fsw	fs2,-737(ra)
  102f18:	d0aec637          	lui	a2,0xd0aec
  102f1c:	d14f8f27          	0xd14f8f27
  102f20:	d0177f77          	0xd0177f77
  102f24:	9259                	srli	a2,a2,0x36
  102f26:	d0d09feb          	0xd0d09feb
  102f2a:	92d9                	srli	a3,a3,0x36
  102f2c:	d6ed                	beqz	a3,102f16 <(null)+0x2ce>
  102f2e:	d1c74fef          	jal	t6,7744a <(null)+0x57442>
  102f32:	965d                	srai	a2,a2,0x37
  102f34:	9219                	srli	a2,a2,0x26
  102f36:	d0248f8f          	0xd0248f8f
  102f3a:	9221                	srli	a2,a2,0x28
  102f3c:	9de5                	0x9de5
  102f3e:	ee251e2f          	0xee251e2f
  102f42:	db00c92f          	0xdb00c92f
  102f46:	d1a76e4f          	fnmadd.s	ft8,fa4,fs10,fs10,unknown
  102f4a:	d339                	beqz	a4,102e90 <(null)+0x248>
  102f4c:	d1276e67          	0xd1276e67
  102f50:	5941                	li	s2,-16
  102f52:	d177916f          	jal	sp,7cc68 <(null)+0x5cc60>
  102f56:	d1971e0f          	0xd1971e0f
  102f5a:	ae9f d127 8856      	0x8856d127ae9f
  102f60:	9b2a                	add	s6,s6,a0
  102f62:	d0d09efb          	0xd0d09efb
  102f66:	93e9                	srli	a5,a5,0x3a
  102f68:	dba9                	beqz	a5,102eba <(null)+0x272>
  102f6a:	2ed09edb          	0x2ed09edb
  102f6e:	0bd5                	addi	s7,s7,21
  102f70:	90a9                	srli	s1,s1,0x2a
  102f72:	1f1f 91d5 9e8f      	0x9e8f91d51f1f
  102f78:	ae30                	fsd	fa2,88(a2)
  102f7a:	df07d7cf          	fnmadd.q	fa5,fa5,fa6,fs11,unknown
  102f7e:	d1e74eaf          	0xd1e74eaf
  102f82:	8ddf d004 90d1      	0x90d1d0048ddf
  102f88:	9f3d                	0x9f3d
  102f8a:	0d7f                	0xd7f
  102f8c:	d096                	sw	t0,96(sp)
  102f8e:	1b1a                	slli	s6,s6,0x26
  102f90:	ae209cb3          	cmix	s9,sp,ra,s5
  102f94:	9035                	srli	s0,s0,0x2d
  102f96:	9f79                	0x9f79
  102f98:	9329                	srli	a4,a4,0x2a
  102f9a:	1906                	slli	s2,s2,0x21
  102f9c:	4fd2                	lw	t6,20(sp)
  102f9e:	d114fd0f          	0xd114fd0f
  102fa2:	4bba                	lw	s7,140(sp)
  102fa4:	4b12                	lw	s6,4(sp)
  102fa6:	468a                	lw	a3,128(sp)
  102fa8:	5642                	lw	a2,48(sp)
  102faa:	55da                	lw	a1,180(sp)
  102fac:	5572                	lw	a0,60(sp)
  102fae:	54ea                	lw	s1,184(sp)
  102fb0:	5462                	lw	s0,56(sp)
  102fb2:	9ae6                	add	s5,s5,s9
  102fb4:	9a7a                	add	s4,s4,t5
  102fb6:	7e8d                	lui	t4,0xfffe3
  102fb8:	9f72                	add	t5,t5,t3
  102fba:	99aa                	add	s3,s3,a0
  102fbc:	9bc6                	add	s7,s7,a7
  102fbe:	9822                	add	a6,a6,s0
  102fc0:	994a                	add	s2,s2,s2
  102fc2:	5891                	li	a7,-28
  102fc4:	db079237          	lui	tp,0xdb079
  102fc8:	58bd                	li	a7,-17
  102fca:	d907940f          	0xd907940f
  102fce:	58ad                	li	a7,-21
  102fd0:	27078ce7          	jalr	s9,624(a5)
  102fd4:	5a41                	li	s4,-16
  102fd6:	59c9                	li	s3,-14
  102fd8:	beed                	j	102bd2 <(null)+0x30>
  102fda:	982e                	add	a6,a6,a1
  102fdc:	a9bd                	j	10345a <(null)+0x3d2>
  102fde:	9bc2                	add	s7,s7,a6
  102fe0:	a129                	j	1033ea <(null)+0x362>
  102fe2:	5b9d                	li	s7,-25
  102fe4:	9395                	srli	a5,a5,0x25
  102fe6:	d2509ccf          	fnmadd.d	fs9,ft1,ft5,fs10,rtz
  102fea:	2f77de0f          	0x2f77de0f
  102fee:	59d5                	li	s3,-11
  102ff0:	d577d2e7          	0xd577d2e7
  102ff4:	90351e07          	0x90351e07
  102ff8:	d1648c97          	auipc	s9,0xd1648
  102ffc:	d1774d07          	flq	fs10,-745(a4) # 91277d17 <(null)+0x9113fd07>
  103000:	d16773f7          	0xd16773f7
  103004:	ee55                	bnez	a2,1030c0 <(null)+0x38>
  103006:	d120d3ef          	jal	t2,10518 <(null)+0x8518>
  10300a:	eee1                	bnez	a3,1030e2 <(null)+0x5a>
  10300c:	d174b047          	fmsub.s	ft0,fs1,fs7,fs10,rup
  103010:	d1a71317          	auipc	t1,0xd1a71
  103014:	ae41                	j	1033a4 <(null)+0x31c>
  103016:	d127130f          	0xd127130f
  10301a:	27e9                	jal	1037e4 <(null)+0x74>
  10301c:	d107ec57          	0xd107ec57
  103020:	d19763d7          	0xd19763d7
  103024:	d127d367          	0xd127d367
  103028:	f58e                	fsw	ft3,232(sp)
  10302a:	e602                	fsw	ft0,12(sp)
  10302c:	d150e3c3          	fmadd.s	ft7,ft1,fs5,fs10,unknown
  103030:	eeb1                	bnez	a3,10308c <(null)+0x4>
  103032:	86e1                	srai	a3,a3,0x18
  103034:	d004f387          	0xd004f387
  103038:	e27d                	bnez	a2,10311e <(null)+0x96>
  10303a:	ee21                	bnez	a2,103092 <(null)+0xa>
  10303c:	e1ed                	bnez	a1,10311e <(null)+0x96>
  10303e:	2769                	jal	1037c8 <(null)+0x58>
  103040:	d7b9                	beqz	a5,102f8e <(null)+0x346>
  103042:	371d                	jal	102f68 <(null)+0x320>
  103044:	ef15                	bnez	a4,103080 <(null)+0x438>
  103046:	d3d0ed4f          	fnmadd.d	fs10,ft1,ft9,fs10,unknown
  10304a:	b25f d134 26a9      	0x26a9d134b25f
  103050:	d0d5e367          	0xd0d5e367
  103054:	92356087          	0x92356087
  103058:	d164f397          	auipc	t2,0xd164f
  10305c:	efb5                	bnez	a5,1030d8 <(null)+0x50>
  10305e:	d120d28f          	0xd120d28f
  103062:	ef41                	bnez	a4,1030fa <(null)+0x72>
  103064:	2481                	jal	1032a4 <(null)+0x21c>
  103066:	d7e5                	beqz	a5,10304e <(null)+0x406>
  103068:	d1d8e1d3          	0xd1d8e1d3
  10306c:	2721                	jal	103774 <(null)+0x4>
  10306e:	ae20e36f          	jal	t1,11350 <(null)+0x9350>
  103072:	26d9                	jal	103438 <(null)+0x3b0>
  103074:	dfd9                	beqz	a5,103012 <(null)+0x3ca>
  103076:	24c9                	jal	103338 <(null)+0x2b0>
  103078:	2771                	jal	103804 <(null)+0x94>
  10307a:	ae20e33f 2711d7d9 	0x2711d7d9ae20e33f
  103082:	2499                	jal	1032c8 <(null)+0x240>
  103084:	2585                	jal	1036e4 <(null)+0x40>
  103086:	d419                	beqz	s0,102f94 <(null)+0x34c>
  103088:	d1c0ee53          	0xd1c0ee53
  10308c:	7b5d                	lui	s6,0xffff7
  10308e:	7229                	lui	tp,0xfffea
  103090:	d16891b7          	lui	gp,0xd1689
  103094:	d0953107          	fld	ft2,-759(a0) # d1c63b81 <(null)+0xd1b2bb71>
  103098:	d1089e17          	auipc	t3,0xd1089
  10309c:	d0963527          	fsd	fs1,-758(a2) # d0aebd0a <(null)+0xd09b3cfa>
  1030a0:	afb2                	fsd	fa2,472(sp)
  1030a2:	6416                	flw	fs0,68(sp)
  1030a4:	ae2792c7          	fmsub.q	ft5,fa5,ft2,fs5,rtz
  1030a8:	d005b1f7          	0xd005b1f7
  1030ac:	a986                	fsd	ft1,208(sp)
  1030ae:	ec71                	bnez	s0,10318a <(null)+0x102>
  1030b0:	d0253217          	auipc	tp,0xd0253
  1030b4:	d006b187          	fld	ft3,-768(a3) # d15afd00 <(null)+0xd1477cf0>
  1030b8:	d1e5f337          	lui	t1,0xd1e5f
  1030bc:	6bee                	flw	fs7,216(sp)
  1030be:	adee                	fsd	fs11,216(sp)
  1030c0:	aa5a                	fsd	fs6,272(sp)
  1030c2:	a456                	fsd	fs5,8(sp)
  1030c4:	ae239447          	fmsub.q	fs0,ft7,ft2,fs5,rtz
  1030c8:	ae20e277          	0xae20e277
  1030cc:	e0dd                	bnez	s1,103172 <(null)+0xea>
  1030ce:	d0d7804f          	fnmadd.s	ft0,fa5,fa3,fs10,rne
  1030d2:	6456                	flw	fs0,84(sp)
  1030d4:	d173f277          	0xd173f277
  1030d8:	d1178217          	auipc	tp,0xd1178
  1030dc:	8379                	srli	a4,a4,0x1e
  1030de:	d1c621af          	0xd1c621af
  1030e2:	efff                	0xefff
  1030e4:	91b4                	0x91b4
  1030e6:	f3467fbf ded0b48f 	0xded0b48ff3467fbf
  1030ee:	ff9f d3d3 813f      	0x813fd3d3ff9f
  1030f4:	64ffd117          	auipc	sp,0x64ffd
  1030f8:	89d6                	mv	s3,s5
  1030fa:	2e28e2bf f33e8be1 	0xf33e8be12e28e2bf
  103102:	d57f                	0xd57f
  103104:	d166                	sw	s9,160(sp)
  103106:	f2b2                	fsw	fa2,100(sp)
  103108:	f29a                	fsw	ft6,100(sp)
  10310a:	e08a                	fsw	ft2,64(sp)
  10310c:	2125                	jal	103534 <(null)+0x4ac>
  10310e:	cd91                	beqz	a1,10312a <(null)+0xa2>
  103110:	ae20e697          	auipc	a3,0xae20e
  103114:	d108fd77          	0xd108fd77
  103118:	ae20e437          	lui	s0,0xae20e
  10311c:	c72d                	beqz	a4,103186 <(null)+0xfe>
  10311e:	ae20e6af          	0xae20e6af
  103122:	c904eeaf          	0xc904eeaf
  103126:	d150e66b          	0xd150e66b
  10312a:	eaed                	bnez	a3,10321c <(null)+0x194>
  10312c:	e0e2                	fsw	fs8,64(sp)
  10312e:	d250e66f          	jal	a2,11e52 <(null)+0x9e52>
  103132:	d9762bef          	jal	s7,65ec8 <(null)+0x45ec0>
  103136:	2335                	jal	103662 <(null)+0x5da>
  103138:	d77622c7          	fmsub.q	ft5,fa2,fs7,fs10,rdn
  10313c:	d3d0e8a7          	0xd3d0e8a7
  103140:	9178e977          	0x9178e977
  103144:	d0d7f7e7          	0xd0d7f7e7
  103148:	d176b9d7          	0xd176b9d7
  10314c:	d0d6f747          	fmsub.s	fa4,fa3,fa3,fs10
  103150:	d0c607b7          	lui	a5,0xd0c60
  103154:	d110d727          	0xd110d727
  103158:	ea25                	bnez	a2,1031c8 <(null)+0x140>
  10315a:	b61f d177 f246      	0xf246d177b61f
  103160:	d166d4f7          	0xd166d4f7
  103164:	f3be                	fsw	fa5,228(sp)
  103166:	d177e66f          	jal	a2,81e7c <(null)+0x61e74>
  10316a:	e10a                	fsw	ft2,128(sp)
  10316c:	d150e6c3          	fmadd.s	fa3,ft1,fs5,fs10,unknown
  103170:	ebad                	bnez	a5,1031e2 <(null)+0x15a>
  103172:	c5d7e7ef          	jal	a5,81dce <(null)+0x61dc6>
  103176:	60cd                	lui	ra,0x13
  103178:	ae20e6b7          	lui	a3,0xae20e
  10317c:	9934ecd7          	0x9934ecd7
  103180:	2e50e573          	csrrsi	a0,0x2e5,1
  103184:	707d                	c.lui	zero,0xfffff
  103186:	e8f1                	bnez	s1,10325a <(null)+0x1d2>
  103188:	d1c51777          	0xd1c51777
  10318c:	d1c53567          	0xd1c53567
  103190:	ea09                	bnez	a2,1031a2 <(null)+0x11a>
  103192:	779f d027 ea81      	0xea81d027779f
  103198:	e4f5                	bnez	s1,103284 <(null)+0x1fc>
  10319a:	c56d                	beqz	a0,103284 <(null)+0x1fc>
  10319c:	2fd5e4a7          	0x2fd5e4a7
  1031a0:	d3d0ea57          	0xd3d0ea57
  1031a4:	d107b467          	0xd107b467
  1031a8:	2fb1                	jal	103904 <(null)+0xee>
  1031aa:	d0c5ea8f          	0xd0c5ea8f
  1031ae:	d5d0eaef          	jal	s5,11f0a <(null)+0x9f0a>
  1031b2:	9178e7bf d177faaf 	0xd177faaf9178e7bf
  1031ba:	849f d118 d48f      	0xd48fd118849f
  1031c0:	d110                	sw	a2,32(a0)
  1031c2:	e84d                	bnez	s0,103274 <(null)+0x1ec>
  1031c4:	2101                	jal	1035c4 <(null)+0x53c>
  1031c6:	d969                	beqz	a0,103198 <(null)+0x110>
  1031c8:	e869                	bnez	s0,10329a <(null)+0x212>
  1031ca:	d55f d110 d9f5      	0xd9f5d110d55f
  1031d0:	dbd8e867          	0xdbd8e867
  1031d4:	9153e627          	0x9153e627
  1031d8:	827d                	srli	a2,a2,0x1f
  1031da:	059f d167 605f      	0x605fd167059f
  1031e0:	93d6                	add	t2,t2,s5
  1031e2:	e55f 2e25 8011      	0x80112e25e55f
  1031e8:	f302                	fsw	ft0,164(sp)
  1031ea:	f102                	fsw	ft0,160(sp)
  1031ec:	d11555c7          	fmsub.s	fa1,fa0,fa7,fs10,unknown
  1031f0:	f162                	fsw	fs8,160(sp)
  1031f2:	d9f1                	beqz	a1,1031c6 <(null)+0x13e>
  1031f4:	ae20eb87          	0xae20eb87
  1031f8:	d0d5fec7          	fmsub.s	ft9,fa1,fa3,fs10
  1031fc:	e15a                	fsw	fs6,128(sp)
  1031fe:	e35a                	fsw	fs6,132(sp)
  103200:	d631                	beqz	a2,10314c <(null)+0xc4>
  103202:	eadf ae20 e7bf      	0xe7bfae20eadf
  103208:	eadb2f03          	lw	t5,-339(s6) # ffff6ead <(null)+0xffebee9d>
  10320c:	d150                	sw	a2,36(a0)
  10320e:	e6fd                	bnez	a3,1032fc <(null)+0x274>
  103210:	effa                	fsw	ft10,220(sp)
  103212:	e91f d250 af7f      	0xaf7fd250e91f
  103218:	d705                	beqz	a4,103140 <(null)+0xb8>
  10321a:	2c05                	jal	10344a <(null)+0x3c2>
  10321c:	d305a757          	0xd305a757
  103220:	d3d0e4d7          	0xd3d0e4d7
  103224:	9108e4e7          	0x9108e4e7
  103228:	d0d779d7          	0xd0d779d7
  10322c:	d1053447          	fmsub.s	fs0,fa0,fa6,fs10,rup
  103230:	d0d57937          	lui	s2,0xd0d57
  103234:	d0c589a7          	0xd0c589a7
  103238:	d160d917          	auipc	s2,0xd160d
  10323c:	e4ad                	bnez	s1,1032a6 <(null)+0x21e>
  10323e:	d1073b0f          	0xd1073b0f
  103242:	e8ff                	0xe8ff
  103244:	d115                	beqz	a0,103168 <(null)+0xe0>
  103246:	ffb2                	fsw	fa2,252(sp)
  103248:	d1155b57          	0xd1155b57
  10324c:	ff92                	fsw	ft4,252(sp)
  10324e:	ec32                	fsw	fa2,24(sp)
  103250:	d761                	beqz	a4,103218 <(null)+0x190>
  103252:	681f 2fd6 e58f      	0xe58f2fd6681f
  103258:	d3d0                	sw	a2,36(a5)
  10325a:	351f d177 2d69      	0x2d69d177351f
  103260:	d0c66aa7          	0xd0c66aa7
  103264:	d5d0e8c7          	0xd5d0e8c7
  103268:	e5a5                	bnez	a1,1032d0 <(null)+0x248>
  10326a:	78df d177 e5e5      	0xe5e5d17778df
  103270:	d170d8b7          	lui	a7,0xd170d
  103274:	d17888a7          	0xd17888a7
  103278:	2f71                	jal	103a14 <(null)+0x82>
  10327a:	df19                	beqz	a4,103198 <(null)+0x110>
  10327c:	d1670887          	0xd1670887
  103280:	d170db77          	0xd170db77
  103284:	d4d5                	beqz	s1,103230 <(null)+0x1a8>
  103286:	d1c4e8cf          	fnmadd.s	fa7,fs1,ft8,fs10,unknown
  10328a:	1b7f                	0x1b7f
  10328c:	ae36                	fsd	fa3,280(sp)
  10328e:	8a15                	andi	a2,a2,5
  103290:	d16708b7          	lui	a7,0xd1670
  103294:	8f69                	and	a4,a4,a0
  103296:	657f                	0x657f
  103298:	e7d6                	fsw	fs5,204(sp)
  10329a:	889f d117 a9ed      	0xa9edd117889f
  1032a0:	fdbe                	fsw	fa5,248(sp)
  1032a2:	fc22                	fsw	fs0,56(sp)
  1032a4:	d166dbe7          	0xd166dbe7
  1032a8:	fc1a                	fsw	ft6,56(sp)
  1032aa:	d150e9db          	0xd150e9db
  1032ae:	e4d5                	bnez	s1,10335a <(null)+0x2d2>
  1032b0:	ee62                	fsw	fs8,28(sp)
  1032b2:	acc9                	j	103584 <(null)+0x4fc>
  1032b4:	2e50e9a3          	0x2e50e9a3
  1032b8:	7c8d                	lui	s9,0xfffe3
  1032ba:	e401                	bnez	s0,1032c2 <(null)+0x23a>
  1032bc:	2fe5                	jal	103ab4 <(null)+0x2e>
  1032be:	d1a519af          	0xd1a519af
  1032c2:	e5d7e32f          	0xe5d7e32f
  1032c6:	d125184f          	fnmadd.s	fa6,fa0,fs2,fs10,rtz
  1032ca:	2ca9                	jal	103524 <(null)+0x49c>
  1032cc:	e507e817          	auipc	a6,0xe507e
  1032d0:	d1956817          	auipc	a6,0xd1956
  1032d4:	d167da27          	0xd167da27
  1032d8:	fdda                	fsw	fs6,248(sp)
  1032da:	efc2                	fsw	fa6,220(sp)
  1032dc:	c45d                	beqz	s0,10338a <(null)+0x302>
  1032de:	b4f1                	j	102daa <(null)+0x162>
  1032e0:	e4c9                	bnez	s1,10336a <(null)+0x2e2>
  1032e2:	33d6e42f          	0x33d6e42f
  1032e6:	2e09                	jal	1035f8 <(null)+0x570>
  1032e8:	d190e853          	0xd190e853
  1032ec:	2f21                	jal	103a04 <(null)+0x72>
  1032ee:	ae20ebef          	jal	s7,115d0 <(null)+0x95d0>
  1032f2:	ccfd                	beqz	s1,1033f0 <(null)+0x368>
  1032f4:	ae20ea87          	0xae20ea87
  1032f8:	e17662c7          	fmsub.s	ft5,fa2,fs7,ft8,unknown
  1032fc:	fcce                	fsw	fs3,120(sp)
  1032fe:	d166da8f          	0xd166da8f
  103302:	faa2                	fsw	fs0,116(sp)
  103304:	faaa                	fsw	fa0,116(sp)
  103306:	d0277d4f          	fnmadd.s	fs10,fa4,ft2,fs10
  10330a:	ef3d                	bnez	a4,103388 <(null)+0x300>
  10330c:	d1158dc7          	fmsub.s	fs11,fa1,fa7,fs10,rne
  103310:	eed5                	bnez	a3,1033cc <(null)+0x344>
  103312:	e96e                	fsw	fs11,144(sp)
  103314:	da2d                	beqz	a2,103286 <(null)+0x1fe>
  103316:	be7f                	0xbe7f
  103318:	dcd0                	sw	a2,60(s1)
  10331a:	d9d3f94f          	fnmadd.s	fs2,ft7,ft9,fs11
  10331e:	d1178e8f          	0xd1178e8f
  103322:	e5d665af          	0xe5d665af
  103326:	2e28edcf          	fnmadd.q	fs11,fa7,ft2,ft5,unknown
  10332a:	84a9                	srai	s1,s1,0xa
  10332c:	91156ec7          	fmsub.s	ft9,fa0,fa7,fs2,unknown
  103330:	d1155db7          	lui	s11,0xd1155
  103334:	e259                	bnez	a2,1033ba <(null)+0x332>
  103336:	e241                	bnez	a2,1033b6 <(null)+0x32e>
  103338:	e842                	fsw	fa6,16(sp)
  10333a:	29fd                	jal	103838 <(null)+0x22>
  10333c:	cd51                	beqz	a0,1033d8 <(null)+0x350>
  10333e:	ae20ee2f          	0xae20ee2f
  103342:	0d08e2af          	0xd08e2af
  103346:	d250efcf          	fnmadd.d	ft11,ft1,ft5,fs10,unknown
  10334a:	d976210f          	0xd976210f
  10334e:	2ad5                	jal	103542 <(null)+0x4ba>
  103350:	d5762667          	0xd5762667
  103354:	d3d0e107          	0xd3d0e107
  103358:	9178e117          	auipc	sp,0x9178e
  10335c:	d0d7ff87          	0xd0d7ff87
  103360:	d176b177          	0xd176b177
  103364:	d0d6ffe7          	0xd0d6ffe7
  103368:	d0c60f57          	0xd0c60f57
  10336c:	d110dfc7          	fmsub.s	ft11,ft1,fa7,fs10,unknown
  103370:	e285                	bnez	a3,103390 <(null)+0x308>
  103372:	d177bebf 91156faf 	0x91156fafd177bebf
  10337a:	5c9f d115 6e8f      	0x6e8fd1155c9f
  103380:	edff9137          	lui	sp,0xedff9
  103384:	eaba9177          	0xeaba9177
  103388:	d150e353          	0xd150e353
  10338c:	d0f71d47          	fmsub.s	fs10,fa4,fa5,fs10,rtz
  103390:	b84d                	j	102c42 <(null)+0xa0>
  103392:	7625                	lui	a2,0xfffe9
  103394:	d0f71327          	0xd0f71327
  103398:	e6de                	fsw	fs7,76(sp)
  10339a:	c525                	beqz	a0,103402 <(null)+0x37a>
  10339c:	ae20eca7          	0xae20eca7
  1033a0:	2104e527          	0x2104e527
  1033a4:	d150ec63          	bltu	ra,s5,1028bc <(null)+0x434>
  1033a8:	e0e5                	bnez	s1,103488 <(null)+0x400>
  1033aa:	eafa                	fsw	ft10,84(sp)
  1033ac:	d0c9                	beqz	s1,10332e <(null)+0x2a6>
  1033ae:	2fd5ec6f          	jal	s8,161eaa <(null)+0x29e9a>
  1033b2:	e21f d3d0 bc2f      	0xbc2fd3d0e21f
  1033b8:	27f9d107          	0x27f9d107
  1033bc:	d0c5e2d7          	0xd0c5e2d7
  1033c0:	d5d0e357          	0xd5d0e357
  1033c4:	9178ee67          	0x9178ee67
  1033c8:	d177f357          	0xd177f357
  1033cc:	d1188d47          	fmsub.s	fs10,fa7,fa7,fs10,rne
  1033d0:	d110dd37          	lui	s10,0xd110d
  1033d4:	e015                	bnez	s0,1033f8 <(null)+0x370>
  1033d6:	2949                	jal	103868 <(null)+0x52>
  1033d8:	d109                	beqz	a0,1032da <(null)+0x252>
  1033da:	e021                	bnez	s0,10341a <(null)+0x392>
  1033dc:	d110dd07          	0xd110dd07
  1033e0:	d14d                	beqz	a0,103382 <(null)+0x2fa>
  1033e2:	ddd8eeaf          	0xddd8eeaf
  1033e6:	9153eeef          	jal	t4,41cfa <(null)+0x21cf2>
  1033ea:	86a5                	srai	a3,a3,0x9
  1033ec:	d16703c7          	fmsub.s	ft7,fa4,fs6,fs10,rne
  1033f0:	f9d8e3e7          	0xf9d8e3e7
  1033f4:	2e25e387          	0x2e25e387
  1033f8:	d1d8f0c7          	fmsub.s	ft1,fa7,ft9,fs10
  1033fc:	9166ee07          	0x9166ee07
  103400:	9127f3f7          	0x9127f3f7
  103404:	d166c267          	0xd166c267
  103408:	fea1                	bnez	a3,103360 <(null)+0x2d8>
  10340a:	f58e                	fsw	ft3,232(sp)
  10340c:	c61d                	beqz	a2,10343a <(null)+0x3b2>
  10340e:	ae20fcef          	jal	s9,126f0 <(null)+0xa6f0>
  103412:	d2c5e46f          	jal	s0,6193e <(null)+0x41936>
  103416:	f6f2                	fsw	ft8,108(sp)
  103418:	f4c2                	fsw	fa6,104(sp)
  10341a:	ae20f03f fcd7d115 	0xfcd7d115ae20f03f
  103422:	ae20                	fsd	fs0,88(a2)
  103424:	2ed3fd37          	lui	s10,0x2ed3f
  103428:	d150fcd3          	0xd150fcd3
  10342c:	d0d71347          	fmsub.s	ft6,fa4,fa3,fs10,rtz
  103430:	f9fa                	fsw	ft10,240(sp)
  103432:	f19f d250 b2ff      	0xb2ffd250f19f
  103438:	d6d5                	beqz	a3,1033e4 <(null)+0x35c>
  10343a:	3485                	jal	102e9a <(null)+0x252>
  10343c:	d2d5b9d7          	0xd2d5b9d7
  103440:	d3d0fdd7          	0xd3d0fdd7
  103444:	90d87de7          	0x90d87de7
  103448:	d0c76057          	0xd0c76057
  10344c:	d0d52b47          	fmsub.s	fs6,fa0,fa3,fs10,rdn
  103450:	d0c560b7          	lui	ra,0xd0c56
  103454:	d0159027          	0xd0159027
  103458:	d160c097          	auipc	ra,0xd160c
  10345c:	fd2d                	bnez	a0,1033d6 <(null)+0x34e>
  10345e:	d0d7228f          	0xd0d7228f
  103462:	f07f                	0xf07f
  103464:	9176                	add	sp,sp,t4
  103466:	9127f26f          	jal	tp,82578 <(null)+0x62570>
  10346a:	c3df d166 ff39      	0xff39d166c3df
  103470:	f4ca                	fsw	fs2,104(sp)
  103472:	f46e                	fsw	fs11,40(sp)
  103474:	cfd1                	beqz	a5,103510 <(null)+0x488>
  103476:	2fd8f08f          	0x2fd8f08f
  10347a:	d3d0fbbf d1772d0f 	0xd1772d0fd3d0fbbf
  103482:	3619                	jal	102f88 <(null)+0x340>
  103484:	d018fe37          	lui	t3,0xd018f
  103488:	d5d0f377          	0xd5d0f377
  10348c:	90d5f347          	fmsub.s	ft6,fa1,fa3,fs2
  103490:	d1776337          	lui	t1,0xd1776
  103494:	fe0d                	bnez	a2,1033ce <(null)+0x346>
  103496:	d170c32f          	0xd170c32f
  10349a:	131f d178 34e9      	0x34e9d178131f
  1034a0:	c459                	beqz	s0,10352e <(null)+0x4a6>
  1034a2:	13ff                	0x13ff
  1034a4:	c3efd167          	0xc3efd167
  1034a8:	d170                	sw	a2,100(a0)
  1034aa:	cc6d                	beqz	s0,1035a4 <(null)+0x51c>
  1034ac:	d1c4f3e7          	0xd1c4f3e7
  1034b0:	ae358397          	auipc	t2,0xae358
  1034b4:	9ae5                	andi	a3,a3,-7
  1034b6:	d1671eaf          	0xd1671eaf
  1034ba:	939f d117 9bc9      	0x9bc9d117939f
  1034c0:	d1d8ef27          	0xd1d8ef27
  1034c4:	cdd5f537          	lui	a0,0xcdd5f
  1034c8:	f58a                	fsw	ft2,232(sp)
  1034ca:	f78a                	fsw	ft2,236(sp)
  1034cc:	f696                	fsw	ft5,108(sp)
  1034ce:	c9ed                	beqz	a1,1035c0 <(null)+0x538>
  1034d0:	0fd5f0e7          	0xfd5f0e7
  1034d4:	91157f27          	0x91157f27
  1034d8:	d0d54f97          	auipc	t6,0xd0d54
  1034dc:	91377207          	0x91377207
  1034e0:	90c5f2f7          	0x90c5f2f7
  1034e4:	d150ff63          	bgeu	ra,s5,102a02 <(null)+0x57a>
  1034e8:	d0c58f57          	0xd0c58f57
  1034ec:	d1d87d97          	auipc	s11,0xd1d87
  1034f0:	9166f237          	lui	tp,0x9166f
  1034f4:	9127f027          	0x9127f027
  1034f8:	d166c197          	auipc	gp,0xd166c
  1034fc:	fd71                	bnez	a0,1034d8 <(null)+0x450>
  1034fe:	c511                	beqz	a0,10350a <(null)+0x482>
  103500:	d17895f7          	0xd17895f7
  103504:	c9d57637          	lui	a2,0xc9d57
  103508:	f29a                	fsw	ft6,100(sp)
  10350a:	f0fa                	fsw	ft10,96(sp)
  10350c:	ce6d                	beqz	a2,103606 <(null)+0x57e>
  10350e:	e81f d1d8 f16f      	0xf16fd1d8e81f
  103514:	c9d5                	beqz	a1,1035c8 <(null)+0x540>
  103516:	f2f2                	fsw	ft8,100(sp)
  103518:	f0c2                	fsw	fa6,96(sp)
  10351a:	f1ce                	fsw	fs3,224(sp)
  10351c:	cb95                	beqz	a5,103550 <(null)+0x4c8>
  10351e:	fddf 6fd5 c649      	0xc6496fd5fddf
  103524:	91157967          	0x91157967
  103528:	d0e545d7          	0xd0e545d7
  10352c:	913779c7          	fmsub.s	fs3,fa4,fs3,fs2
  103530:	9179f9b7          	lui	s3,0x9179f
  103534:	d150f5a3          	0xd150f5a3
  103538:	d1798597          	auipc	a1,0xd1798
  10353c:	bcc5                	j	10302c <(null)+0x3e4>
  10353e:	9166f90f          	0x9166f90f
  103542:	f6ff                	0xf6ff
  103544:	c76f9127          	0xc76f9127
  103548:	d0e6                	sw	s9,96(sp)
  10354a:	785f 9117 f09e      	0xf09e9117785f
  103550:	d7d9f567          	0xd7d9f567
  103554:	f10a                	fsw	ft2,160(sp)
  103556:	ee80d1f3          	csrrwi	gp,0xee8,1
  10355a:	2e55f63f 33a73395 	0x33a733952e55f63f
  103562:	f647d737          	lui	a4,0xf647d
  103566:	d3d0                	sw	a2,36(a5)
  103568:	fb29                	bnez	a4,1034ba <(null)+0x432>
  10356a:	e8df d139 264f      	0x264fd139e8df
  103570:	d129                	beqz	a0,1034b2 <(null)+0x42a>
  103572:	d0f7163f d139642f 	0xd139642fd0f7163f
  10357a:	d757becf          	fnmadd.q	ft9,fa5,fs5,fs10,rup
  10357e:	fbe9                	bnez	a5,103550 <(null)+0x4c8>
  103580:	d1c7f4d7          	0xd1c7f4d7
  103584:	317d                	jal	103232 <(null)+0x1aa>
  103586:	d506b73f d3d0f57f 	0xd3d0f57fd506b73f
  10358e:	f83d                	bnez	s0,103504 <(null)+0x47c>
  103590:	d1376437          	lui	s0,0xd1376
  103594:	d1052727          	fsw	fa6,-754(a0) # cdd5ed0e <(null)+0xcdc26cfe>
  103598:	d1356797          	auipc	a5,0xd1356
  10359c:	f929                	bnez	a0,1034ee <(null)+0x466>
  10359e:	d160c78f          	0xd160c78f
  1035a2:	fa49                	bnez	a2,103534 <(null)+0x4ac>
  1035a4:	d1072567          	0xd1072567
  1035a8:	33b1                	jal	1032f4 <(null)+0x26c>
  1035aa:	cca9                	beqz	s1,103604 <(null)+0x57c>
  1035ac:	d0f91747          	fmsub.s	fa4,fs2,fa5,fs10,rtz
  1035b0:	8615                	srai	a2,a2,0x5
  1035b2:	3059                	jal	102e38 <(null)+0x1f0>
  1035b4:	33c1                	jal	103374 <(null)+0x2ec>
  1035b6:	df11                	beqz	a4,1034d2 <(null)+0x44a>
  1035b8:	f2be                	fsw	fa5,100(sp)
  1035ba:	e8c0d243          	fmadd.s	ft4,ft1,fa2,ft9,unknown
  1035be:	d3d5f7af          	0xd3d5f7af
  1035c2:	c979                	beqz	a0,103698 <(null)+0x610>
  1035c4:	2c55f4c7          	0x2c55f4c7
  1035c8:	d12964d7          	0xd12964d7
  1035cc:	33a1                	jal	103314 <(null)+0x28c>
  1035ce:	c15d                	beqz	a0,103674 <(null)+0x5ec>
  1035d0:	6155                	addi	sp,sp,304
  1035d2:	f51f d3d0 242f      	0x242fd3d0f51f
  1035d8:	3379d137          	lui	sp,0x3379d
  1035dc:	d1167457          	0xd1167457
  1035e0:	d5d0f6d7          	0xd5d0f6d7
  1035e4:	fb95                	bnez	a5,103518 <(null)+0x490>
  1035e6:	d17766ef          	jal	a3,7a2fc <(null)+0x5a2f4>
  1035ea:	fbf5                	bnez	a5,1035de <(null)+0x556>
  1035ec:	d170c6c7          	fmsub.s	fa3,ft1,fs7,fs10,rmm
  1035f0:	d1779637          	lui	a2,0xd1779
  1035f4:	3141                	jal	103274 <(null)+0x1ec>
  1035f6:	c985                	beqz	a1,103626 <(null)+0x59e>
  1035f8:	fae9                	bnez	a3,1035ca <(null)+0x542>
  1035fa:	2e50f49b          	0x2e50f49b
  1035fe:	6195                	lui	gp,0x5
  103600:	f6e9                	bnez	a3,1035ca <(null)+0x542>
  103602:	c06d                	beqz	s0,1036e4 <(null)+0x40>
  103604:	feba                	fsw	fa4,124(sp)
  103606:	fcba                	fsw	fa4,120(sp)
  103608:	fd1a                	fsw	ft6,184(sp)
  10360a:	c06d                	beqz	s0,1036ec <(null)+0x48>
  10360c:	fe9a                	fsw	ft6,124(sp)
  10360e:	fc9a                	fsw	ft6,120(sp)
  103610:	c82d                	beqz	s0,103682 <(null)+0x5fa>
  103612:	f81f ae20 3ec9      	0x3ec9ae20f81f
  103618:	3cf1                	jal	1030f4 <(null)+0x6c>
  10361a:	d150fb1b          	0xd150fb1b
  10361e:	f615                	bnez	a2,10354a <(null)+0x4c2>
  103620:	b281                	j	102f60 <(null)+0x318>
  103622:	7d9d                	lui	s11,0xfffe7
  103624:	ae20fbc7          	fmsub.q	fs7,ft1,ft2,fs5
  103628:	d734f787          	0xd734f787
  10362c:	2e50fbc3          	fmadd.q	fs7,ft1,ft5,ft5
  103630:	6ead                	lui	t4,0xb
  103632:	f621                	bnez	a2,10357a <(null)+0x4f2>
  103634:	d0076b87          	0xd0076b87
  103638:	d1e529b7          	lui	s3,0xd1e52
  10363c:	f4b9                	bnez	s1,10358a <(null)+0x502>
  10363e:	ae20fbaf          	0xae20fbaf
  103642:	fb95                	bnez	a5,103576 <(null)+0x4ee>
  103644:	d134e437          	lui	s0,0xd134e
  103648:	f56d                	bnez	a0,103632 <(null)+0x5aa>
  10364a:	3fb9                	jal	1035a8 <(null)+0x520>
  10364c:	bd29                	j	103466 <(null)+0x3de>
  10364e:	d1d8facb          	fnmsub.s	fs5,fa7,ft9,fs10
  103652:	3d59                	jal	1034e8 <(null)+0x460>
  103654:	3cc1                	jal	103124 <(null)+0x9c>
  103656:	d094ea0f          	0xd094ea0f
  10365a:	ae20fb9b          	0xae20fb9b
  10365e:	7fda                	flw	ft11,180(sp)
  103660:	3862                	fld	fa6,56(sp)
  103662:	3cfa                	fld	fs9,440(sp)
  103664:	f7f5                	bnez	a5,103650 <(null)+0x5c8>
  103666:	fb39                	bnez	a4,1035bc <(null)+0x534>
  103668:	7c4e                	flw	fs8,240(sp)
  10366a:	f761                	bnez	a4,103632 <(null)+0x5aa>
  10366c:	d1471ac7          	fmsub.s	fs5,fa4,fs4,fs10,rtz
  103670:	3192                	fld	ft3,288(sp)
  103672:	3c0a                	fld	fs8,160(sp)
  103674:	3172                	fld	ft2,312(sp)
  103676:	fd72                	fsw	ft8,184(sp)
  103678:	19f5                	addi	s3,s3,-3
  10367a:	f87a                	fsw	ft10,48(sp)
  10367c:	fca2                	fsw	fs0,120(sp)
  10367e:	c969                	beqz	a0,103750 <(null)+0x48>
  103680:	fcaa                	fsw	fa0,120(sp)
  103682:	feaa                	fsw	fa0,124(sp)
  103684:	ff2a                	fsw	fa0,188(sp)
  103686:	ce91                	beqz	a3,1036a2 <(null)+0x61a>
  103688:	3cb1                	jal	1030e4 <(null)+0x5c>
  10368a:	3eb9                	jal	1031e8 <(null)+0x160>
  10368c:	3fa1                	jal	1035e4 <(null)+0x55c>
  10368e:	cc59                	beqz	s0,10372c <(null)+0x24>
  103690:	3cd1                	jal	103164 <(null)+0xdc>
  103692:	c4b5                	beqz	s1,1036fe <(null)+0x5a>
  103694:	3ec1                	jal	103264 <(null)+0x1dc>
  103696:	3fc9                	jal	103668 <(null)+0x5e0>
  103698:	d190f993          	andi	s3,ra,-743
  10369c:	c2e9                	beqz	a3,10375e <(null)+0x56>
  10369e:	3ce9                	jal	103178 <(null)+0xf0>
  1036a0:	3e11                	jal	1031b4 <(null)+0x12c>
  1036a2:	c4d1                	beqz	s1,10372e <(null)+0x26>
  1036a4:	d09529c7          	fmsub.s	fs3,fa0,fs1,fs10,rdn
  1036a8:	d1c0f853          	0xd1c0f853
  1036ac:	2e267967          	0x2e267967
  1036b0:	ae278997          	auipc	s3,0xae278
  1036b4:	ee30f887          	0xee30f887
  1036b8:	f41d                	bnez	s0,1035e6 <(null)+0x55e>
  1036ba:	fa05                	bnez	a2,1035ea <(null)+0x562>
  1036bc:	d536aad7          	0xd536aad7
  1036c0:	9000f957          	0x9000f957
  1036c4:	d136a737          	lui	a4,0xd136a
  1036c8:	51d0fa53          	0x51d0fa53
  1036cc:	2e25ba67          	0x2e25ba67
  1036d0:	ef7e                	fsw	ft11,156(sp)
  1036d2:	fada                	fsw	fs6,116(sp)
  1036d4:	f595                	bnez	a1,103600 <(null)+0x578>
  1036d6:	92e0f98f          	0x92e0f98f
  1036da:	f4e1                	bnez	s1,1036a2 <(null)+0x61a>
  1036dc:	3c1d                	jal	103112 <(null)+0x8a>
  1036de:	b25f d106 f8df      	0xf8dfd106b25f
  1036e4:	686f6f07          	0x686f6f07
  1036e8:	aadfd137          	lui	sp,0xaadfd
  1036ec:	d105                	beqz	a0,10360c <(null)+0x584>
  1036ee:	f7f5                	bnez	a5,1036da <(null)+0x36>
  1036f0:	b349                	j	103472 <(null)+0x3ea>
  1036f2:	9170fabf fab7fa4a 	0xfab7fa4a9170fabf
  1036fa:	90e0                	0x90e0
  1036fc:	f7f9                	bnez	a5,1036ca <(null)+0x26>
  1036fe:	d1772a8f          	0xd1772a8f
  103702:	cae5                	beqz	a3,1037f2 <(null)+0x82>
  103704:	3801                	jal	102f14 <(null)+0x2cc>
  103706:	fd8a                	fsw	ft2,248(sp)
  103708:	6c71                	lui	s8,0x1c
  10370a:	bb3e                	fsd	fa5,432(sp)
  10370c:	b902                	fsd	ft0,176(sp)
  10370e:	bf0e                	fsd	ft3,440(sp)
  103710:	b079                	j	102f9e <(null)+0x356>
  103712:	af9f 9025 3c2f      	0x3c2f9025af9f
  103718:	f165d177          	0xf165d177
  10371c:	d025aca7          	fsw	ft2,-743(a1) # d189b251 <(null)+0xd1763241>
  103720:	f8b2                	fsw	fa2,112(sp)
  103722:	f340d823          	0xf340d823
  103726:	9030ffcf          	fnmadd.s	ft11,ft1,ft3,fs2
  10372a:	3a11                	jal	10303e <(null)+0x3f6>
  10372c:	f2a9                	bnez	a3,10366e <(null)+0x5e6>
  10372e:	309f d377 3a75      	0x3a75d377309f
  103734:	f249                	bnez	a2,1036b6 <(null)+0x12>
  103736:	789d                	lui	a7,0xfffe7
  103738:	d124af17          	auipc	t5,0xd124a
  10373c:	d174ec87          	0xd174ec87
  103740:	f936                	fsw	fa3,176(sp)
  103742:	7baa                	flw	fs7,168(sp)
  103744:	7b52                	flw	fs6,52(sp)
  103746:	ffb9                	bnez	a5,1036a4 <(null)>
  103748:	794e                	flw	fs2,240(sp)
  10374a:	f3e1                	bnez	a5,10370a <(null)+0x2>
  10374c:	3c92                	fld	fs9,288(sp)
  10374e:	d1771e4f          	fnmadd.s	ft8,fa4,fs7,fs10,rtz
  103752:	f97a                	fsw	ft10,176(sp)
  103754:	3862                	fld	fa6,56(sp)
  103756:	38da                	fld	fa7,432(sp)
  103758:	f9ca                	fsw	fs2,240(sp)
  10375a:	7d39                	lui	s10,0xfffee
  10375c:	fce2                	fsw	fs8,120(sp)
  10375e:	693d                	lui	s2,0xf
  103760:	d174ee77          	0xd174ee77
  103764:	f9a6                	fsw	fs1,240(sp)
  103766:	3889                	jal	102fb8 <(null)+0x370>
  103768:	c359                	beqz	a4,1037ee <(null)+0x7e>
  10376a:	3bb9                	jal	1034c8 <(null)+0x440>
  10376c:	3b21                	jal	103484 <(null)+0x3fc>
  10376e:	c34d                	beqz	a4,103810 <(null)+0xa0>
  103770:	d1c0feb3          	0xd1c0feb3
  103774:	d0952f87          	flw	ft11,-759(a0)
  103778:	2e27fe37          	lui	t3,0x2e27f
  10377c:	ae268fa7          	0xae268fa7
  103780:	ee30fcd7          	0xee30fcd7
  103784:	f0ed                	bnez	s1,103766 <(null)+0x5e>
  103786:	d9162f3f bb026e79 	0xbb026e79d9162f3f
  10378e:	b92e                	fsd	fa1,176(sp)
  103790:	9200fc97          	auipc	s9,0x9200f
  103794:	d0252e07          	flw	ft8,-766(a0)
  103798:	d3162847          	fmsub.d	fa6,fa2,fa7,fs10,rdn
  10379c:	3a65                	jal	103154 <(null)+0xcc>
  10379e:	f269                	bnez	a2,103760 <(null)+0x58>
  1037a0:	9025add7          	0x9025add7
  1037a4:	51d0ff63          	bgeu	ra,t4,103cc2 <(null)+0x148>
  1037a8:	d170cd57          	0xd170cd57
  1037ac:	f239                	bnez	a2,1036f2 <(null)+0x4e>
  1037ae:	9170ffcf          	fnmadd.s	ft11,ft1,fs7,fs2
  1037b2:	f245                	bnez	a2,103752 <(null)+0x4a>
  1037b4:	3f72                	fld	ft10,312(sp)
  1037b6:	3bea                	fld	fs7,184(sp)
  1037b8:	7eb1                	lui	t4,0xfffec
  1037ba:	ff7a                	fsw	ft10,188(sp)
  1037bc:	d1371f07          	0xd1371f07
  1037c0:	92f0fcd7          	0x92f0fcd7
  1037c4:	d1172437          	lui	s0,0xd1172
  1037c8:	6d06fd77          	0x6d06fd77
  1037cc:	c480db9b          	0xc480db9b
  1037d0:	ae25                	j	103b08 <(null)+0x82>
  1037d2:	d170ccbf 9160feaf 	0x9160feafd170ccbf
  1037da:	f3e5                	bnez	a5,1037ba <(null)+0x4a>
  1037dc:	9170fe07          	0x9170fe07
  1037e0:	c141                	beqz	a0,103860 <(null)+0x4a>
  1037e2:	fc5f 92e0 f119      	0xf11992e0fc5f
  1037e8:	39cd                	jal	1034da <(null)+0x452>
  1037ea:	d127b78f          	0xd127b78f
  1037ee:	6f06fdef          	jal	s11,172ede <(null)+0x3aece>
  1037f2:	d1156dbf d125aeaf 	0xd125aeafd1156dbf
  1037fa:	f3a9                	bnez	a5,10373c <(null)+0x34>
  1037fc:	d1252e07          	flw	ft8,-750(a0)
  103800:	fed1                	bnez	a3,10379c <(null)+0x2c>
  103802:	c15f 90e0 cc19      	0xcc1990e0c15f
  103808:	d1751157          	0xd1751157
  10380c:	04a1                	addi	s1,s1,8
  10380e:	f6e1                	bnez	a3,1037d6 <(null)+0x66>
  103810:	0451                	addi	s0,s0,20
  103812:	04d9                	addi	s1,s1,22
  103814:	c1c2                	sw	a6,192(sp)
  103816:	5049                	c.li	zero,-14
  103818:	8f76                	mv	t5,t4
  10381a:	8d5a                	mv	s10,s6
  10381c:	8b46                	mv	s6,a7
  10381e:	8922                	mv	s2,s0
  103820:	87de                	mv	a5,s7
  103822:	85ca                	mv	a1,s2
  103824:	83d6                	mv	t2,s5
  103826:	81d2                	mv	gp,s4
  103828:	d165a3d7          	0xd165a3d7
  10382c:	c5d7ca97          	auipc	s5,0xc5d7c
  103830:	c57e                	sw	t6,136(sp)
  103832:	c5f2                	sw	t3,200(sp)
  103834:	d0251d07          	0xd0251d07
  103838:	d1d51dc7          	fmsub.s	fs11,fa0,ft9,fs10,rtz
  10383c:	d170f307          	0xd170f307
  103840:	9160c1f7          	0x9160c1f7
  103844:	cc9d                	beqz	s1,103882 <(null)+0x6c>
  103846:	9170c16f          	jal	sp,1015c <(null)+0x815c>
  10384a:	c91e                	sw	t2,144(sp)
  10384c:	8885                	andi	s1,s1,1
  10384e:	c50e                	sw	gp,136(sp)
  103850:	de60e5eb          	0xde60e5eb
  103854:	caea                	sw	s10,84(sp)
  103856:	9230cf0f          	0x9230cf0f
  10385a:	cf1f 908a c2af      	0xc2af908acf1f
  103860:	92e0                	0x92e0
  103862:	d6970caf          	0xd6970caf
  103866:	07a5                	addi	a5,a5,9
  103868:	c712                	sw	tp,140(sp)
  10386a:	d287918f          	0xd287918f
  10386e:	d370c2ef          	jal	t0,105a4 <(null)+0x85a4>
  103872:	d4878eef          	jal	t4,7bdba <(null)+0x5bdb2>
  103876:	d360cc8f          	0xd360cc8f
  10387a:	2e8a42bf 9089cc8f 	0x9089cc8f2e8a42bf
  103882:	9f7f                	0x9f7f
  103884:	d0f4                	sw	a3,100(s1)
  103886:	d13452ef          	jal	t0,49598 <(null)+0x29590>
  10388a:	af5f d149 d1cf      	0xd1cfd149af5f
  103890:	d134                	sw	a3,96(a0)
  103892:	d29f d119 03ba      	0x3bad119d29f
  103898:	0712                	slli	a4,a4,0x4
  10389a:	492a                	lw	s2,136(sp)
  10389c:	c3d1                	beqz	a5,103920 <(null)+0x10a>
  10389e:	d14aa28f          	0xd14aa28f
  1038a2:	4a66                	lw	s4,88(sp)
  1038a4:	d0e421e7          	0xd0e421e7
  1038a8:	0af2                	slli	s5,s5,0x1c
  1038aa:	076a                	slli	a4,a4,0x1a
  1038ac:	0a12                	slli	s4,s4,0x4
  1038ae:	098a                	slli	s3,s3,0x2
  1038b0:	0942                	slli	s2,s2,0x10
  1038b2:	08da                	slli	a7,a7,0x16
  1038b4:	c6fe                	sw	t6,76(sp)
  1038b6:	c672                	sw	t3,12(sp)
  1038b8:	22f5                	jal	103aa4 <(null)+0x1e>
  1038ba:	c37a                	sw	t5,132(sp)
  1038bc:	c6c2                	sw	a6,76(sp)
  1038be:	d900e653          	0xd900e653
  1038c2:	cddf d3d5 fd49      	0xfd49d3d5cddf
  1038c8:	2c8a43f7          	0x2c8a43f7
  1038cc:	d144de47          	fmsub.s	ft8,fs1,fs4,fs10,unknown
  1038d0:	05d1                	addi	a1,a1,20
  1038d2:	f599                	bnez	a1,1037e0 <(null)+0x70>
  1038d4:	92b0c087          	flq	ft1,-1749(ra) # d170ed83 <(null)+0xd15d6d73>
  1038d8:	d2971f47          	fmsub.d	ft10,fa4,fs1,fs10,rtz
  1038dc:	0441                	addi	s0,s0,16
  1038de:	9086c10f          	0x9086c10f
  1038e2:	c7ba                	sw	a4,204(sp)
  1038e4:	c726                	sw	s1,140(sp)
  1038e6:	d0c0e733          	0xd0c0e733
  1038ea:	c992                	sw	tp,208(sp)
  1038ec:	cb8e                	sw	gp,212(sp)
  1038ee:	c78a                	sw	sp,204(sp)
  1038f0:	c776                	sw	t4,140(sp)
  1038f2:	419f d25a e773      	0xe773d25a419f
  1038f8:	d360                	sw	s0,100(a4)
  1038fa:	a01f d165 f00f      	0xf00fd165a01f
  103900:	d120                	sw	s0,96(a0)
  103902:	247f                	0x247f
  103904:	c1c2d0b7          	lui	ra,0xc1c2d
  103908:	0211                	addi	tp,tp,4
  10390a:	c29a                	sw	t1,68(sp)
  10390c:	d2879317          	auipc	t1,0xd2879
  103910:	d3a0c717          	auipc	a4,0xd3a0c
  103914:	d6878477          	0xd6878477
  103918:	d350c5b7          	lui	a1,0xd350c
  10391c:	2e5a4727          	fsq	ft5,750(s4) # 2e3e12ee <(null)+0x2e2a92de>
  103920:	90854577          	0x90854577
  103924:	d1345467          	0xd1345467
  103928:	d1649557          	0xd1649557
  10392c:	c96d                	beqz	a0,103a1e <(null)+0x8c>
  10392e:	d134d74f          	fnmadd.s	fa4,fs1,fs3,fs10,unknown
  103932:	2e50c7bb          	0x2e50c7bb
  103936:	52b5                	li	t0,-19
  103938:	c909                	beqz	a0,10394a <(null)+0x134>
  10393a:	d1a737bf 36578ae9 	0x36578ae9d1a737bf
  103942:	0291d127          	0x291d127
  103946:	d107c93f d197467f 	0xd197467fd107c93f
  10394e:	d127f6cf          	fnmadd.s	fa3,fa5,fs2,fs10
  103952:	d0e6                	sw	s9,96(sp)
  103954:	c3fa                	sw	t5,196(sp)
  103956:	d150c62b          	0xd150c62b
  10395a:	cb1d                	beqz	a4,103990 <(null)+0x17a>
  10395c:	8f69                	and	a4,a4,a0
  10395e:	2e50c60b          	0x2e50c60b
  103962:	53e5                	li	t2,-7
  103964:	9220cbc7          	fmsub.d	fs7,ft1,ft2,fs2,rmm
  103968:	c849                	beqz	s0,1039fa <(null)+0x68>
  10396a:	cbdf 908a c725      	0xc725908acbdf
  103970:	d0045597          	auipc	a1,0xd0045
  103974:	cb01                	beqz	a4,103984 <(null)+0x16e>
  103976:	d1e4188f          	0xd1e4188f
  10397a:	fbd9                	bnez	a5,103910 <(null)+0xfa>
  10397c:	2c5a4527          	fsq	ft5,714(s4)
  103980:	d144d6f7          	0xd144d6f7
  103984:	0081                	addi	ra,ra,0
  103986:	f07d                	bnez	s0,10396c <(null)+0x156>
  103988:	0e31                	addi	t3,t3,12
  10398a:	00b9                	addi	ra,ra,14
  10398c:	0d21                	addi	s10,s10,8
  10398e:	0ea9                	addi	t4,t4,10
  103990:	f059                	bnez	s0,103916 <(null)+0x100>
  103992:	d1d5ed8f          	0xd1d5ed8f
  103996:	ea1f d195 ec2f      	0xec2fd195ea1f
  10399c:	d155                	beqz	a0,103940 <(null)+0x12a>
  10399e:	0220                	addi	s0,sp,264
  1039a0:	0244                	addi	s1,sp,260
  1039a2:	2039                	jal	1039b0 <(null)+0x1e>
  1039a4:	d0d594c7          	fmsub.s	fs1,fa1,fa3,fs10,rtz
  1039a8:	504d                	c.li	zero,-13
  1039aa:	51ff                	0x51ff
  1039ac:	d0d6                	sw	s5,96(sp)
  1039ae:	d0d615ef          	jal	a1,656ba <(null)+0x456b2>
  1039b2:	d1d5600f          	0xd1d5600f
  1039b6:	6a1f d195 6c2f      	0x6c2fd1956a1f
  1039bc:	d155                	beqz	a0,103960 <(null)+0x14a>
  1039be:	c995                	beqz	a1,1039f2 <(null)+0x60>
  1039c0:	d0d5d6d7          	0xd0d5d6d7
  1039c4:	5741                	li	a4,-16
  1039c6:	c7c9                	beqz	a5,103a50 <(null)+0xbe>
  1039c8:	c74d                	beqz	a4,103a72 <(null)+0xe0>
  1039ca:	907f                	0x907f
  1039cc:	c955d0d3          	0xc955d0d3
  1039d0:	c4ad                	beqz	s1,103a3a <(null)+0xa8>
  1039d2:	d126d96f          	jal	s2,70ee4 <(null)+0x50edc>
  1039d6:	d028a4af          	0xd028a4af
  1039da:	249f d017 c9a5      	0xc9a5d017249f
  1039e0:	8941                	andi	a0,a0,16
  1039e2:	13e1                	addi	t2,t2,-8
  1039e4:	e631                	bnez	a2,103a30 <(null)+0x9e>
  1039e6:	d127dabf d0c2245f 	0xd0c2245fd127dabf
  1039ee:	d007244f          	fnmadd.s	fs0,fa4,ft0,fs10,rdn
  1039f2:	d1b7243f a0b1b13d 	0xa0b1b13dd1b7243f
  1039fa:	a41f d028 240f      	0x240fd028a41f
  103a00:	c6d5d017          	auipc	zero,0xc6d5d
  103a04:	d1c77bc7          	fmsub.s	fs7,fa4,ft8,fs10
  103a08:	a239                	j	103b16 <(null)+0x90>
  103a0a:	235f d0c2 a34f      	0xa34fd0c2235f
  103a10:	a33fd00f          	0xa33fd00f
  103a14:	c77fd1bf a2f9d5df 	0xa2f9d5dfc77fd1bf
  103a1c:	d1765857          	0xd1765857
  103a20:	d11796a7          	0xd11796a7
  103a24:	88b1                	andi	s1,s1,12
  103a26:	1cf5                	addi	s9,s9,-3
  103a28:	e991                	bnez	a1,103a3c <(null)+0xaa>
  103a2a:	1cc5                	addi	s9,s9,-15
  103a2c:	8b31                	andi	a4,a4,12
  103a2e:	cc9e                	sw	t2,88(sp)
  103a30:	4891                	li	a7,4
  103a32:	c95a                	sw	s6,144(sp)
  103a34:	d13698f7          	0xd13698f7
  103a38:	b495                	j	10349c <(null)+0x414>
  103a3a:	fe0d                	bnez	a2,103974 <(null)+0x15e>
  103a3c:	2f63a857          	0x2f63a857
  103a40:	d3b55527          	0xd3b55527
  103a44:	2e1e2db7          	lui	s11,0x2e1e2
  103a48:	d20eda07          	0xd20eda07
  103a4c:	2cd82197          	auipc	gp,0x2cd82
  103a50:	d0c8d967          	0xd0c8d967
  103a54:	2c2225f7          	0x2c2225f7
  103a58:	2ec8adc7          	fmsub.q	fs11,fa7,fa2,ft5,rdn
  103a5c:	d0c8d957          	0xd0c8d957
  103a60:	2d8f2127          	fsw	fs8,706(t5) # d134d9fa <(null)+0xd12159ea>
  103a64:	0d81                	addi	s11,s11,0
  103a66:	ff61                	bnez	a4,103a3e <(null)+0xac>
  103a68:	0db5                	addi	s11,s11,13
  103a6a:	ff61                	bnez	a4,103a42 <(null)+0xb0>
  103a6c:	b745                	j	103a0c <(null)+0x7a>
  103a6e:	f7f5                	bnez	a5,103a5a <(null)+0xc8>
  103a70:	2db52967          	0x2db52967
  103a74:	f705                	bnez	a4,10399c <(null)+0xa>
  103a76:	ac7f                	0xac7f
  103a78:	2c0e                	fld	fs8,192(sp)
  103a7a:	ff15                	bnez	a4,1039b6 <(null)+0x24>
  103a7c:	2717ca57          	0x2717ca57
  103a80:	b441                	j	103500 <(null)+0x478>
  103a82:	0c99                	addi	s9,s9,6
  103a84:	fc59                	bnez	s0,103a22 <(null)+0x90>
  103a86:	e1df d1d5 e66f      	0xe66fd1d5e1df
  103a8c:	d195                	beqz	a1,1039b0 <(null)+0x1e>
  103a8e:	e07f                	0xe07f
  103a90:	d155                	beqz	a0,103a34 <(null)+0xa2>
  103a92:	0e10                	addi	a2,sp,784
  103a94:	0e94                	addi	a3,sp,848
  103a96:	2ce9                	jal	103d70 <(null)+0x1f6>
  103a98:	d0d59837          	lui	a6,0xd0d59
  103a9c:	5c9d                	li	s9,-25
  103a9e:	d0d65d2f          	0xd0d65d2f
  103aa2:	19df d0d6 6c5f      	0x6c5fd0d619df
  103aa8:	d1d5                	beqz	a1,103a4c <(null)+0xba>
  103aaa:	d195666f          	jal	a2,5a7c2 <(null)+0x3a7ba>
  103aae:	607f                	0x607f
  103ab0:	d155                	beqz	a0,103a54 <(null)+0xc2>
  103ab2:	c5a5                	beqz	a1,103b1a <(null)+0x94>
  103ab4:	d0d5db07          	0xd0d5db07
  103ab8:	5ab1                	li	s5,-20
  103aba:	ca39                	beqz	a2,103b10 <(null)+0x8a>
  103abc:	ca9d                	beqz	a3,103af2 <(null)+0x6c>
  103abe:	d0d39daf          	0xd0d39daf
  103ac2:	c565                	beqz	a0,103baa <(null)+0x30>
  103ac4:	c8fd                	beqz	s1,103bba <(null)+0x40>
  103ac6:	d126d53f d028a8df 	0xd028a8dfd126d53f
  103ace:	d01728cf          	fnmadd.s	fa7,fa4,ft1,fs10,rdn
  103ad2:	c595                	beqz	a1,103afe <(null)+0x78>
  103ad4:	8591                	srai	a1,a1,0x4
  103ad6:	0f41                	addi	t5,t5,16
  103ad8:	eac1                	bnez	a3,103b68 <(null)+0xe2>
  103ada:	d127d64f          	fnmadd.s	fa2,fa5,fs2,fs10,unknown
  103ade:	d0c2288f          	0xd0c2288f
  103ae2:	287f                	0x287f
  103ae4:	286fd007          	0x286fd007
  103ae8:	bd4dd1b7          	lui	gp,0xbd4dd
  103aec:	ace1                	j	103dc4 <(null)+0x24a>
  103aee:	d028a84f          	fnmadd.s	fa6,fa7,ft2,fs10,rdn
  103af2:	d017283f 7837c505 	0x7837c505d017283f
  103afa:	a1e9d1c7          	fmsub.s	ft3,fs3,ft10,fs4,unknown
  103afe:	d0c2208f          	0xd0c2208f
  103b02:	a77f                	0xa77f
  103b04:	a76fd00f          	0xa76fd00f
  103b08:	c30fd1bf a6a9d5df 	0xa6a9d5dfc30fd1bf
  103b10:	d1765c67          	0xd1765c67
  103b14:	d1179277          	0xd1179277
  103b18:	8c41                	or	s0,s0,s0
  103b1a:	1805                	addi	a6,a6,-31
  103b1c:	ed41                	bnez	a0,103bb4 <(null)+0x3a>
  103b1e:	1815                	addi	a6,a6,-27
  103b20:	8f01                	sub	a4,a4,s0
  103b22:	c8ae                	sw	a1,80(sp)
  103b24:	4cc1                	li	s9,16
  103b26:	cd0a                	sw	sp,152(sp)
  103b28:	d1369c87          	0xd1369c87
  103b2c:	b0c5                	j	10340c <(null)+0x384>
  103b2e:	fa5d                	bnez	a2,103ae4 <(null)+0x5e>
  103b30:	2f63ac67          	0x2f63ac67
  103b34:	d3b550f7          	0xd3b550f7
  103b38:	2e1e2847          	fmsub.q	fa6,ft8,ft1,ft5,rdn
  103b3c:	d20edfd7          	0xd20edfd7
  103b40:	2cd825a7          	fsw	fa3,715(a6) # d0d592cb <(null)+0xd0c212bb>
  103b44:	d0c8dd37          	lui	s10,0xd0c8d
  103b48:	2c222187          	flw	ft3,706(tp) # 9166f2c2 <(null)+0x915372b2>
  103b4c:	2ec8a997          	auipc	s3,0x2ec8a
  103b50:	d0c8dd67          	0xd0c8dd67
  103b54:	2d8f25f7          	0x2d8f25f7
  103b58:	0971                	addi	s2,s2,28
  103b5a:	fb91                	bnez	a5,103a6e <(null)+0xdc>
  103b5c:	0965                	addi	s2,s2,25
  103b5e:	fbb1                	bnez	a5,103ab2 <(null)+0x2c>
  103b60:	b375                	j	10390c <(null)+0xf6>
  103b62:	f3c5                	bnez	a5,103b02 <(null)+0x7c>
  103b64:	2db52d37          	lui	s10,0x2db52
  103b68:	f375                	bnez	a4,103b4c <(null)+0xc6>
  103b6a:	2c0ea80f          	0x2c0ea80f
  103b6e:	fb45                	bnez	a4,103b1e <(null)+0x98>
  103b70:	2717ce67          	0x2717ce67
  103b74:	b391                	j	1038b8 <(null)+0xa2>
  103b76:	0b49                	addi	s6,s6,18
  103b78:	fba9                	bnez	a5,103aca <(null)+0x44>
  103b7a:	3dc9                	jal	103a4c <(null)+0xba>
  103b7c:	95aa                	add	a1,a1,a0
  103b7e:	d11560bf 0ed40e84 	0xed40e84d11560bf
  103b86:	8922                	mv	s2,s0
  103b88:	0ab8                	addi	a4,sp,344
  103b8a:	dd7f                	0xdd7f
  103b8c:	d0d9                	beqz	s1,103b12 <(null)+0x8c>
  103b8e:	9866                	add	a6,a6,s9
  103b90:	9a02                	jalr	s4
  103b92:	d116e38f          	0xd116e38f
  103b96:	e01f d1d6 9c2e      	0x9c2ed1d6e01f
  103b9c:	9e3a                	add	t3,t3,a4
  103b9e:	d156e0bf d196e1cf 	0xd196e1cfd156e0bf
  103ba6:	29a9                	jal	104000 <(null)+0x486>
  103ba8:	9292                	add	t0,t0,tp
  103baa:	ccf9                	beqz	s1,103c88 <(null)+0x10e>
  103bac:	d0d99ee7          	0xd0d99ee7
  103bb0:	59ad                	li	s3,-21
  103bb2:	9912                	add	s2,s2,tp
  103bb4:	90c6                	add	ra,ra,a7
  103bb6:	94ee                	add	s1,s1,s11
  103bb8:	80ae                	mv	ra,a1
  103bba:	829a                	mv	t0,t1
  103bbc:	8486                	mv	s1,ra
  103bbe:	8682                	jr	a3
  103bc0:	897e                	mv	s2,t6
  103bc2:	9ea6                	add	t4,t4,s1
  103bc4:	9cb6                	add	s9,s9,a3
  103bc6:	9aa2                	add	s5,s5,s0
  103bc8:	960e                	add	a2,a2,gp
  103bca:	940e                	add	s0,s0,gp
  103bcc:	920a                	add	tp,tp,sp
  103bce:	9012                	c.add	zero,tp
  103bd0:	c221                	beqz	a2,103c10 <(null)+0x96>
  103bd2:	921f d029 820d      	0x820dd029921f
  103bd8:	c714c747          	fmsub.q	fa4,fs1,fa7,fs8,rmm
  103bdc:	29a1                	jal	104034 <(null)+0x4ba>
  103bde:	c1b1                	beqz	a1,103c22 <(null)+0xa8>
  103be0:	90ae                	add	ra,ra,a1
  103be2:	5688                	lw	a0,40(a3)
  103be4:	56fc                	lw	a5,108(a3)
  103be6:	0d10                	addi	a2,sp,656
  103be8:	2e176d67          	0x2e176d67
  103bec:	5951                	li	s2,-12
  103bee:	49a6                	lw	s3,72(sp)
  103bf0:	cc25                	beqz	s0,103c68 <(null)+0xee>
  103bf2:	c18d                	beqz	a1,103c14 <(null)+0x9a>
  103bf4:	8d18                	0x8d18
  103bf6:	d37f                	0xd37f
  103bf8:	2f26                	fld	ft10,72(sp)
  103bfa:	193a                	slli	s2,s2,0x2e
  103bfc:	3b91                	jal	103950 <(null)+0x13a>
  103bfe:	4bed                	li	s7,27
  103c00:	569e                	lw	a3,228(sp)
  103c02:	8926                	mv	s2,s1
  103c04:	c52a                	sw	a0,136(sp)
  103c06:	1a89                	addi	s5,s5,-30
  103c08:	d0d94177          	0xd0d94177
  103c0c:	3601                	jal	10370c <(null)+0x4>
  103c0e:	d0d903ef          	jal	t2,9491a <(null)+0x74912>
  103c12:	d019                	beqz	s0,103b18 <(null)+0x92>
  103c14:	463d                	li	a2,15
  103c16:	8786                	mv	a5,ra
  103c18:	81a2                	mv	gp,s0
  103c1a:	83a2                	mv	t2,s0
  103c1c:	85b6                	mv	a1,a3
  103c1e:	91ba                	add	gp,gp,a4
  103c20:	934a                	add	t1,t1,s2
  103c22:	954e                	add	a0,a0,s3
  103c24:	972a                	add	a4,a4,a0
  103c26:	de71                	beqz	a2,103c02 <(null)+0x88>
  103c28:	d0290d77          	0xd0290d77
  103c2c:	c3d75997          	auipc	s3,0xc3d75
  103c30:	cf375be7          	0xcf375be7
  103c34:	3b01                	jal	103944 <(null)+0x12e>
  103c36:	d085be2f          	0xd085be2f
  103c3a:	972e                	add	a4,a4,a1
  103c3c:	516c                	lw	a1,100(a0)
  103c3e:	5110                	lw	a2,32(a0)
  103c40:	1304                	addi	s1,sp,416
  103c42:	2e17f34f          	fnmadd.q	ft6,fa5,ft1,ft5
  103c46:	4779                	li	a4,30
  103c48:	56be                	lw	a3,236(sp)
  103c4a:	d24d                	beqz	a2,103bec <(null)+0x72>
  103c4c:	def1                	beqz	a3,103c28 <(null)+0xae>
  103c4e:	937c                	0x937c
  103c50:	2f354de7          	0x2f354de7
  103c54:	1746                	slli	a4,a4,0x31
  103c56:	2539                	jal	104264 <(null)+0x6ea>
  103c58:	5575                	li	a0,-3
  103c5a:	5776                	lw	a4,124(sp)
  103c5c:	90da                	add	ra,ra,s6
  103c5e:	c7c2                	sw	a6,204(sp)
  103c60:	1791                	addi	a5,a5,-28
  103c62:	c73a                	sw	a4,140(sp)
  103c64:	80be                	mv	ra,a5
  103c66:	570d                	li	a4,-29
  103c68:	9e8e                	add	t4,t4,gp
  103c6a:	427f                	0x427f
  103c6c:	934fd1fb          	0x934fd1fb
  103c70:	d0e9                	beqz	s1,103c32 <(null)+0xb8>
  103c72:	df01                	beqz	a4,103b8a <(null)+0x10>
  103c74:	98f6                	add	a7,a7,t4
  103c76:	4735                	li	a4,13
  103c78:	1649                	addi	a2,a2,-14
  103c7a:	cd263dcf          	0xcd263dcf
  103c7e:	d1c0b30b          	0xd1c0b30b
  103c82:	5492                	lw	s1,36(sp)
  103c84:	999650c7          	fmsub.s	ft1,fa2,fs9,fs3,unknown
  103c88:	c486                	sw	ra,72(sp)
  103c8a:	10a4                	addi	s1,sp,104
  103c8c:	d4a2                	sw	s0,104(sp)
  103c8e:	d107304f          	fnmadd.s	ft0,fa4,fa6,fs10,rup
  103c92:	dd11                	beqz	a0,103bae <(null)+0x34>
  103c94:	dd19                	beqz	a0,103bb2 <(null)+0x38>
  103c96:	9521                	srai	a0,a0,0x28
  103c98:	9849                	andi	s0,s0,-14
  103c9a:	d642                	sw	a6,44(sp)
  103c9c:	9b30f6db          	0x9b30f6db
  103ca0:	d73a                	sw	a4,172(sp)
  103ca2:	51df 2e94 80cf      	0x80cf2e9451df
  103ca8:	d8c59187          	0xd8c59187
  103cac:	9485                	srai	s1,s1,0x21
  103cae:	0459                	addi	s0,s0,22
  103cb0:	d326d137          	lui	sp,0xd326d
  103cb4:	d3d0d387          	0xd3d0d387
  103cb8:	d2d1de37          	lui	t3,0xd2d1d
  103cbc:	def9                	beqz	a3,103c9a <(null)+0x120>
  103cbe:	d1f6c32f          	0xd1f6c32f
  103cc2:	55a9                	li	a1,-22
  103cc4:	c5c6                	sw	a7,200(sp)
  103cc6:	d728413f c79e5324 	0xc79e5324d728413f
  103cce:	05ea                	slli	a1,a1,0x1a
  103cd0:	442d                	li	s0,11
  103cd2:	d137403f 2b357f3f 	0x2b357f3fd137403f
  103cda:	547d                	li	s0,-1
  103cdc:	2611                	jal	103fe0 <(null)+0x466>
  103cde:	5462                	lw	s0,56(sp)
  103ce0:	1711                	addi	a4,a4,-28
  103ce2:	4a90                	lw	a2,16(a3)
  103ce4:	56c5                	li	a3,-15
  103ce6:	3fbf3733          	0x3fbf3733
  103cea:	debd                	beqz	a3,103c68 <(null)+0xee>
  103cec:	ed89                	bnez	a1,103d06 <(null)+0x18c>
  103cee:	97b9                	srai	a5,a5,0x2e
  103cf0:	9470f76b          	0x9470f76b
  103cf4:	d3d5d307          	0xd3d5d307
  103cf8:	e59d                	bnez	a1,103d26 <(null)+0x1ac>
  103cfa:	9461                	srai	s0,s0,0x38
  103cfc:	d7d6                	sw	s5,236(sp)
  103cfe:	9510f753          	0x9510f753
  103d02:	d4df d5d5 ea79      	0xea79d5d5d4df
  103d08:	d00e                	sw	gp,32(sp)
  103d0a:	95d0f083          	0x95d0f083
  103d0e:	d7d5d4ef          	jal	s1,61a8a <(null)+0x41a82>
  103d12:	ea19                	bnez	a2,103d28 <(null)+0x1ae>
  103d14:	03b1                	addi	t2,t2,12
  103d16:	d306d6af          	0xd306d6af
  103d1a:	4d04                	lw	s1,24(a0)
  103d1c:	126d                	addi	tp,tp,-5
  103d1e:	d107558f          	0xd107558f
  103d22:	1414                	addi	a3,sp,544
  103d24:	42fd                	li	t0,31
  103d26:	4279                	li	tp,30
  103d28:	967c                	0x967c
  103d2a:	2f178a0f          	0x2f178a0f
  103d2e:	43d5                	li	t2,21
  103d30:	e2bd                	bnez	a3,103d96 <(null)+0x21c>
  103d32:	164c                	addi	a1,sp,804
  103d34:	2e177897          	auipc	a7,0x2e177
  103d38:	d1675397          	auipc	t2,0xd1675
  103d3c:	d1364607          	flq	fa2,-749(a2) # d1778d13 <(null)+0xd1640d03>
  103d40:	d1788977          	0xd1788977
  103d44:	d0d637e7          	0xd0d637e7
  103d48:	d103f147          	fmsub.s	ft2,ft7,fa6,fs10
  103d4c:	43d1                	li	t2,20
  103d4e:	eb8d                	bnez	a5,103d80 <(null)+0x206>
  103d50:	db85                	beqz	a5,103c80 <(null)+0x106>
  103d52:	db91                	beqz	a5,103c66 <(null)+0xec>
  103d54:	db99                	beqz	a5,103c6a <(null)+0xf0>
  103d56:	1fc5                	addi	t6,t6,-15
  103d58:	3bd749c7          	fmsub.d	fs3,fa4,ft9,ft7,rmm
  103d5c:	1fe9                	addi	t6,t6,-6
  103d5e:	e105                	bnez	a0,103d7e <(null)+0x204>
  103d60:	1091                	addi	ra,ra,-28
  103d62:	1f1d                	addi	t5,t5,-25
  103d64:	e1d5                	bnez	a1,103e08 <(null)+0x28e>
  103d66:	d0bab66f          	jal	a2,afa70 <(null)+0x8fa68>
  103d6a:	365f d087 db61      	0xdb61d087365f
  103d70:	9f21                	0x9f21
  103d72:	9de9                	0x9de9
  103d74:	ecb0f17b          	0xecb0f17b
  103d78:	d05a                	sw	s6,32(sp)
  103d7a:	2e9456bf 918787af 	0x918787af2e9456bf
  103d82:	dc65                	beqz	s0,103d7a <(null)+0x200>
  103d84:	903d                	srli	s0,s0,0x2f
  103d86:	00f9                	addi	ra,ra,30
  103d88:	d326d5d7          	0xd326d5d7
  103d8c:	d3d0d767          	0xd3d0d767
  103d90:	d5d1da97          	auipc	s5,0xd5d1d
  103d94:	da59                	beqz	a2,103d2a <(null)+0x1b0>
  103d96:	d1f6c78f          	0xd1f6c78f
  103d9a:	50c9                	li	ra,-14
  103d9c:	c0a6                	sw	s1,64(sp)
  103d9e:	4b5f d728 5684      	0x5684d7284b5f
  103da4:	c23e                	sw	a5,4(sp)
  103da6:	100e                	c.slli	zero,0x23
  103da8:	41cd                	li	gp,19
  103daa:	45df d137 72df      	0x72dfd13745df
  103db0:	2d35                	jal	1043ec <(null)+0x872>
  103db2:	51dd                	li	gp,-9
  103db4:	51ca                	lw	gp,176(sp)
  103db6:	1249                	addi	tp,tp,-14
  103db8:	5778                	lw	a4,108(a4)
  103dba:	30ff3243          	fmadd.s	ft4,ft10,fa5,ft6,rup
  103dbe:	2019                	jal	103dc4 <(null)+0x24a>
  103dc0:	51d5                	li	gp,-11
  103dc2:	d99d                	beqz	a1,103cf8 <(null)+0x17e>
  103dc4:	eb71                	bnez	a4,103e98 <(null)+0x31e>
  103dc6:	d1da5b3f f39bd36e 	0xf39bd36ed1da5b3f
  103dce:	e630                	fsw	fa2,72(a2)
  103dd0:	d3d5d797          	auipc	a5,0xd3d5d
  103dd4:	e11d                	bnez	a0,103dfa <(null)+0x280>
  103dd6:	db7f                	0xdb7f
  103dd8:	d322d1db          	0xd322d1db
  103ddc:	e730f3db          	0xe730f3db
  103de0:	d5d5d757          	0xd5d5d757
  103de4:	e9d9                	bnez	a1,103e7a <(null)+0x300>
  103de6:	d3da                	sw	s6,228(sp)
  103de8:	e7f0f30b          	0xe7f0f30b
  103dec:	d7d5d767          	0xd7d5d767
  103df0:	e1b9                	bnez	a1,103e36 <(null)+0x2bc>
  103df2:	0029                	c.nop	10
  103df4:	d306d527          	0xd306d527
  103df8:	560c                	lw	a1,40(a2)
  103dfa:	11f5                	addi	gp,gp,-3
  103dfc:	d1075607          	0xd1075607
  103e00:	189c                	addi	a5,sp,112
  103e02:	4e65                	li	t3,25
  103e04:	4ef1                	li	t4,28
  103e06:	9ac4                	0x9ac4
  103e08:	2f178687          	0x2f178687
  103e0c:	4f5d                	li	t5,23
  103e0e:	ee7d                	bnez	a2,103f0c <(null)+0x392>
  103e10:	1ac4                	addi	s1,sp,372
  103e12:	2e17740f          	0x2e17740f
  103e16:	d1675f2f          	0xd1675f2f
  103e1a:	4a9f d136 840f      	0x840fd1364a9f
  103e20:	d178                	sw	a4,100(a0)
  103e22:	3a7f                	0x3a7f
  103e24:	d0d6                	sw	s5,96(sp)
  103e26:	fcff                	0xfcff
  103e28:	4e49d103          	lhu	sp,1252(s3) # c3e79110 <(null)+0xc3d41100>
  103e2c:	e62d                	bnez	a2,103e96 <(null)+0x31c>
  103e2e:	d0bab6cf          	fnmadd.s	fa3,fs5,fa1,fs10,rup
  103e32:	d08ab63f d17a362f 	0xd17a362fd08ab63f
  103e3a:	1ef5                	addi	t4,t4,-3
  103e3c:	33da4f57          	0x33da4f57
  103e40:	1f19                	addi	t5,t5,-26
  103e42:	ed1d                	bnez	a0,103e80 <(null)+0x306>
  103e44:	1f81                	addi	t6,t6,-32
  103e46:	1f0d                	addi	t5,t5,-29
  103e48:	e519                	bnez	a0,103e56 <(null)+0x2dc>
  103e4a:	0f7a                	slli	t5,t5,0x1e
  103e4c:	1626                	slli	a2,a2,0x29
  103e4e:	3d69                	jal	103ce8 <(null)+0x16e>
  103e50:	2e25db97          	auipc	s7,0x2e25d
  103e54:	d0d78287          	0xd0d78287
  103e58:	d0de87b7          	lui	a5,0xd0de8
  103e5c:	d715                	beqz	a4,103d88 <(null)+0x20e>
  103e5e:	d10ea30f          	0xd10ea30f
  103e62:	5a7f                	0x5a7f
  103e64:	d33a                	sw	a4,164(sp)
  103e66:	d33edbef          	jal	s7,f1b98 <(null)+0xd1b90>
  103e6a:	55df d21f 584f      	0x584fd21f55df
  103e70:	8a1fd0d7          	0x8a1fd0d7
  103e74:	d0d6                	sw	s5,96(sp)
  103e76:	cf66                	sw	s9,156(sp)
  103e78:	d28f5617          	auipc	a2,0xd28f5
  103e7c:	d0d72ed7          	0xd0d72ed7
  103e80:	c0ba                	sw	a4,64(sp)
  103e82:	140e                	slli	s0,s0,0x23
  103e84:	d0d707c7          	fmsub.s	fa5,fa4,fa3,fs10,rne
  103e88:	d4c5                	beqz	s1,103e30 <(null)+0x2b6>
  103e8a:	d54d                	beqz	a0,103e34 <(null)+0x2ba>
  103e8c:	5ce2                	lw	s9,56(sp)
  103e8e:	cc9a                	sw	t1,88(sp)
  103e90:	d0df8a97          	auipc	s5,0xd0df8
  103e94:	d10fa127          	fsw	fa6,-766(t6) # d0e571da <(null)+0xd0d1f1ca>
  103e98:	d33fd897          	auipc	a7,0xd33fd
  103e9c:	895e                	mv	s2,s7
  103e9e:	8bd6                	mv	s7,s5
  103ea0:	d23f58f7          	0xd23f58f7
  103ea4:	d3345967          	0xd3345967
  103ea8:	d1175bd7          	0xd1175bd7
  103eac:	d0d60967          	jalr	s2,-755(a2) # d29f8b85 <(null)+0xd28c0b75>
  103eb0:	cc7a                	sw	t5,24(sp)
  103eb2:	d34f55bf d1172aff 	0xd1172affd34f55bf
  103eba:	3db9                	jal	103d18 <(null)+0x19e>
  103ebc:	c0d2                	sw	s4,64(sp)
  103ebe:	3da9                	jal	103d18 <(null)+0x19e>
  103ec0:	2e26dad7          	0x2e26dad7
  103ec4:	d1672a67          	0xd1672a67
  103ec8:	d0d70df7          	0xd0d70df7
  103ecc:	0df2                	slli	s11,s11,0x1c
  103ece:	d4c5                	beqz	s1,103e76 <(null)+0x2fc>
  103ed0:	5f12                	lw	t5,36(sp)
  103ed2:	061f d0d7 d7b5      	0xd7b5d0d7061f
  103ed8:	d36a5897          	auipc	a7,0xd36a5
  103edc:	cf56                	sw	s5,156(sp)
  103ede:	c3c2                	sw	a6,196(sp)
  103ee0:	d2155977          	0xd2155977
  103ee4:	d219dce7          	0xd219dce7
  103ee8:	d1b757d7          	0xd1b757d7
  103eec:	d0d60867          	jalr	a6,-755(a2)
  103ef0:	cd12                	sw	tp,152(sp)
  103ef2:	d2fa573f d1b72cff 	0xd1b72cffd2fa573f
  103efa:	c24a                	sw	s2,4(sp)
  103efc:	d0d705a7          	0xd0d705a7
  103f00:	c756                	sw	s5,140(sp)
  103f02:	35d9                	jal	103dc8 <(null)+0x24e>
  103f04:	2e285e47          	fmsub.q	ft8,fa6,ft2,ft5,unknown
  103f08:	d1172057          	0xd1172057
  103f0c:	d3d1                	beqz	a5,103e90 <(null)+0x316>
  103f0e:	556a                	lw	a0,184(sp)
  103f10:	d2355e37          	lui	t3,0xd2355
  103f14:	c576                	sw	t4,136(sp)
  103f16:	d239dfaf          	0xd239dfaf
  103f1a:	d0d686bf d3645e8f 	0xd3645e8fd0d686bf
  103f22:	cb26                	sw	s1,148(sp)
  103f24:	cb76                	sw	t4,148(sp)
  103f26:	d2f45bef          	jal	s7,49c54 <(null)+0x29c4c>
  103f2a:	d1262b8f          	0xd1262b8f
  103f2e:	ceee                	sw	s11,92(sp)
  103f30:	1376                	slli	t1,t1,0x3d
  103f32:	0f1f d0d6 ca52      	0xca52d0d60f1f
  103f38:	39b1                	jal	103b94 <(null)+0x1a>
  103f3a:	89c6                	mv	s3,a7
  103f3c:	2e24df27          	0x2e24df27
  103f40:	d0de0ad7          	0xd0de0ad7
  103f44:	d12e27e7          	0xd12e27e7
  103f48:	d33351d7          	0xd33351d7
  103f4c:	d25d                	beqz	a2,103ef2 <(null)+0x378>
  103f4e:	d2d5                	beqz	a3,103ef2 <(null)+0x378>
  103f50:	5a92                	lw	s5,36(sp)
  103f52:	caea                	sw	s10,84(sp)
  103f54:	d33e5a27          	0xd33e5a27
  103f58:	d20f5517          	auipc	a0,0xd20f5
  103f5c:	d0585e87          	0xd0585e87
  103f60:	d0d38157          	0xd0d38157
  103f64:	c43e                	sw	a5,8(sp)
  103f66:	d3af5fef          	jal	t6,f94a0 <(null)+0xd9498>
  103f6a:	d0582a8f          	0xd0582a8f
  103f6e:	ca8a                	sw	sp,84(sp)
  103f70:	d0d80e17          	auipc	t3,0xd0d80
  103f74:	3001                	jal	103774 <(null)+0x4>
  103f76:	cb7a                	sw	t5,148(sp)
  103f78:	2e2c5fb7          	lui	t6,0x2e2c5
  103f7c:	8ade                	mv	s5,s7
  103f7e:	d1182e0f          	0xd1182e0f
  103f82:	07fa                	slli	a5,a5,0x1e
  103f84:	d113a967          	0xd113a967
  103f88:	58f2                	lw	a7,60(sp)
  103f8a:	0e7f                	0xe7f
  103f8c:	d0d8                	sw	a4,36(s1)
  103f8e:	d1182c4f          	fnmadd.s	fs8,fa6,fa7,fs10,rdn
  103f92:	d216d2bf d717c8d2 	0xd717c8d2d216d2bf
  103f9a:	d214                	sw	a3,32(a2)
  103f9c:	d0d807a7          	0xd0d807a7
  103fa0:	d31a59f7          	0xd31a59f7
  103fa4:	ccea                	sw	s10,88(sp)
  103fa6:	c212                	sw	tp,4(sp)
  103fa8:	d35a56d7          	0xd35a56d7
  103fac:	d07d2997          	auipc	s3,0xd07d2
  103fb0:	c3b6                	sw	a3,196(sp)
  103fb2:	c606                	sw	ra,12(sp)
  103fb4:	d1796fa7          	0xd1796fa7
  103fb8:	d0dd09b7          	lui	s3,0xd0dd0
  103fbc:	cd4a                	sw	s2,152(sp)
  103fbe:	c4fe                	sw	t6,72(sp)
  103fc0:	c20a                	sw	sp,4(sp)
  103fc2:	587f                	0x587f
  103fc4:	d0d9                	beqz	s1,103f4a <(null)+0x3d0>
  103fc6:	d0d3e36f          	jal	t1,42cd2 <(null)+0x22cca>
  103fca:	32f9                	jal	103998 <(null)+0x6>
  103fcc:	943a                	add	s0,s0,a4
  103fce:	8cb2                	mv	s9,a2
  103fd0:	d09bd837          	lui	a6,0xd09bd
  103fd4:	d0d3d9a7          	0xd0d3d9a7
  103fd8:	2e2c5637          	lui	a2,0x2e2c5
  103fdc:	d093e807          	0xd093e807
  103fe0:	d0d263f7          	0xd0d263f7
  103fe4:	d07d2667          	0xd07d2667
  103fe8:	d1025257          	0xd1025257
  103fec:	d0d3b3c7          	fmsub.s	ft7,ft7,fa3,fs10,rup
  103ff0:	5312                	lw	t1,36(sp)
  103ff2:	d17beebf d078232f 	0xd078232fd17beebf
  103ffa:	c616                	sw	t0,12(sp)
  103ffc:	d1096d07          	0xd1096d07
  104000:	3452                	fld	fs0,304(sp)
  104002:	38a6                	fld	fa7,104(sp)
  104004:	f922                	fsw	fs0,176(sp)
  104006:	d0c8a76f          	jal	a4,8e512 <(null)+0x6e50a>
  10400a:	1cdf d0c2 6d32      	0x6d32d0c21cdf
  104010:	75ca                	flw	fa1,176(sp)
  104012:	f27a                	fsw	ft10,36(sp)
  104014:	3402                	fld	fs0,32(sp)
  104016:	f97a                	fsw	ft10,176(sp)
  104018:	d1042997          	auipc	s3,0xd1042
  10401c:	d10c9287          	0xd10c9287
  104020:	d1b411f7          	0xd1b411f7
  104024:	d1289367          	0xd1289367
  104028:	d0dcaf57          	0xd0dcaf57
  10402c:	2f69                	jal	1047c6 <(null)+0x13e>
  10402e:	f49a                	fsw	ft6,104(sp)
  104030:	d12aacb7          	lui	s9,0xd12aa
  104034:	e2f6                	fsw	ft9,68(sp)
  104036:	d0592d2f          	0xd0592d2f
  10403a:	af9f d0c8 9f0f      	0x9f0fd0c8af9f
  104040:	d17a                	sw	t5,160(sp)
  104042:	12ff                	0x12ff
  104044:	d129                	beqz	a0,103f86 <(null)+0x40c>
  104046:	d12ac2ef          	jal	t0,b0558 <(null)+0x90550>
  10404a:	1ddf d0ca 994f      	0x994fd0ca1ddf
  104050:	d058                	sw	a4,36(s0)
  104052:	36e6                	fld	fa3,120(sp)
  104054:	d0d27787          	0xd0d27787
  104058:	d0cd4f17          	auipc	t5,0xd0cd4
  10405c:	d0725607          	0xd0725607
  104060:	d3322277          	0xd3322277
  104064:	3ab6                	fld	fs5,360(sp)
  104066:	d333a2ef          	jal	t0,3ed98 <(null)+0x1ed90>
  10406a:	fd7f                	0xfd7f
  10406c:	d0d6                	sw	s5,96(sp)
  10406e:	d3bea34f          	fnmadd.d	ft6,ft9,fs11,fs10,rdn
  104072:	37ee                	fld	fa5,248(sp)
  104074:	387a                	fld	fa6,440(sp)
  104076:	d38eaa2f          	0xd38eaa2f
  10407a:	d109d6cf          	fnmadd.s	fa3,fs3,fa6,fs10,unknown
  10407e:	3f0e                	fld	ft10,224(sp)
  104080:	fae2                	fsw	fs8,116(sp)
  104082:	c5d9                	beqz	a1,104110 <(null)+0x596>
  104084:	2e27a347          	fmsub.q	ft6,fa5,ft2,ft5,rdn
  104088:	d0d9f177          	0xd0d9f177
  10408c:	d179dec7          	fmsub.s	ft9,fs3,fs7,fs10,unknown
  104090:	342e                	fld	fs0,232(sp)
  104092:	2cb1                	jal	1042ee <(null)+0x774>
  104094:	d0d8f987          	0xd0d8f987
  104098:	abb2                	fsd	fa2,464(sp)
  10409a:	df9f d178 2ed2      	0x2ed2d178df9f
  1040a0:	3b2e                	fld	fs6,232(sp)
  1040a2:	a1ff                	0xa1ff
  1040a4:	a16fd22b          	0xa16fd22b
  1040a8:	d218                	sw	a4,32(a2)
  1040aa:	ac5f d2eb feef      	0xfeefd2ebac5f
  1040b0:	d0d6                	sw	s5,96(sp)
  1040b2:	d21ea8bf 3932393a 	0x3932393ad21ea8bf
  1040ba:	d01bd5cf          	fnmadd.s	fa1,fs7,ft1,fs10,unknown
  1040be:	34de                	fld	fs1,496(sp)
  1040c0:	d0dbf1d7          	0xd0dbf1d7
  1040c4:	3536                	fld	fa0,360(sp)
  1040c6:	c9c9                	beqz	a1,104158 <(null)+0x5de>
  1040c8:	760a                	flw	fa2,160(sp)
  1040ca:	a07f                	0xa07f
  1040cc:	2e2a                	fld	ft8,136(sp)
  1040ce:	d13bdf4f          	fnmadd.s	ft10,fs7,fs3,fs10,unknown
  1040d2:	2da1                	jal	10472a <(null)+0xa2>
  1040d4:	aa02                	fsd	ft0,272(sp)
  1040d6:	d36fa02f          	0xd36fa02f
  1040da:	3a46                	fld	fs4,112(sp)
  1040dc:	d2082187          	flw	ft3,-736(a6) # d09bcd20 <(null)+0xd0884d10>
  1040e0:	d0d672d7          	0xd0d672d7
  1040e4:	d362a067          	0xd362a067
  1040e8:	3506                	fld	fa0,96(sp)
  1040ea:	3512                	fld	fa0,288(sp)
  1040ec:	d3a829c7          	fmsub.d	fs3,fa6,fs10,fs10,rdn
  1040f0:	d106d4e7          	0xd106d4e7
  1040f4:	3c9e                	fld	fs9,480(sp)
  1040f6:	d0d6f10f          	0xd0d6f10f
  1040fa:	340a                	fld	fs0,160(sp)
  1040fc:	c921                	beqz	a0,10414c <(null)+0x5d2>
  1040fe:	74de                	flw	fs1,244(sp)
  104100:	2e2aa6d7          	0x2e2aa6d7
  104104:	d106d567          	0xd106d567
  104108:	2a45                	jal	1042b8 <(null)+0x73e>
  10410a:	a07a                	fsd	ft10,0(sp)
  10410c:	d2352e47          	fmsub.d	ft8,fa0,ft3,fs10,rdn
  104110:	306a                	fld	ft0,184(sp)
  104112:	d315a7bf d237272f 	0xd237272fd315a7bf
  10411a:	328a                	fld	ft5,160(sp)
  10411c:	d0d676a7          	0xd0d676a7
  104120:	3226                	fld	ft4,104(sp)
  104122:	aa7f                	0xaa7f
  104124:	d355                	beqz	a4,1040c8 <(null)+0x54e>
  104126:	d016d3bf c3613f66 	0xc3613f66d016d3bf
  10412e:	2e27aeef          	jal	t4,17e410 <(null)+0x46400>
  104132:	d016d63f d0d6fb0f 	0xd0d6fb0fd016d63f
  10413a:	271f d0ca 578f      	0x578fd0ca271f
  104140:	d016                	sw	t0,32(sp)
  104142:	99ff                	0x99ff
  104144:	d0c6                	sw	a7,96(sp)
  104146:	3e66                	fld	ft8,120(sp)
  104148:	a2f2                	fsd	ft8,320(sp)
  10414a:	3282                	fld	ft5,32(sp)
  10414c:	d0cb2c47          	fmsub.s	fs8,fs6,fa2,fs10,rdn
  104150:	f372                	fsw	ft8,164(sp)
  104152:	d0cc19bf d06b1b2f 	0xd06b1b2fd0cc19bf
  10415a:	33ba                	fld	ft7,424(sp)
  10415c:	d0cb4b07          	flq	fs6,-756(s6)
  104160:	fc32                	fsw	fa2,56(sp)
  104162:	99ff                	0x99ff
  104164:	d0d6                	sw	s5,96(sp)
  104166:	d13c2aef          	jal	s5,c6e78 <(null)+0xa6e70>
  10416a:	f38a                	fsw	ft2,228(sp)
  10416c:	d0da2d47          	fmsub.s	fs10,fs4,fa3,fs10,rdn
  104170:	337a                	fld	ft6,440(sp)
  104172:	d0ca1abf d0dd99af 	0xd0dd99afd0ca1abf
  10417a:	949f d176 338e      	0x338ed176949f
  104180:	d0da4977          	0xd0da4977
  104184:	ff32                	fsw	fa2,188(sp)
  104186:	d1762e6f          	jal	t3,66e9c <(null)+0x46e94>
  10418a:	3cee                	fld	fs9,248(sp)
  10418c:	3096                	fld	ft1,352(sp)
  10418e:	d10694cf          	fnmadd.s	fs1,fa3,fa6,fs10,rtz
  104192:	d0ad28bf d10bac2f 	0xd10bac2fd0ad28bf
  10419a:	151f d0d6 170f      	0x170fd0d6151f
  1041a0:	d17d                	beqz	a0,104186 <(null)+0x60c>
  1041a2:	28d1                	jal	104276 <(null)+0x6fc>
  1041a4:	d10f1467          	0xd10f1467
  1041a8:	3dea                	fld	fs11,184(sp)
  1041aa:	985f d0ab 3d92      	0x3d92d0ab985f
  1041b0:	d10bc837          	lui	a6,0xd10bc
  1041b4:	d31faaa7          	fsw	fa7,-715(t6) # 2e2c4d35 <(null)+0x2e18cd25>
  1041b8:	d08b2417          	auipc	s0,0xd08b2
  1041bc:	715e                	flw	ft2,244(sp)
  1041be:	d205288f          	0xd205288f
  1041c2:	765f d0d9 a46f      	0xa46fd0d9765f
  1041c8:	d312                	sw	tp,164(sp)
  1041ca:	316a                	fld	ft2,184(sp)
  1041cc:	310a                	fld	ft2,160(sp)
  1041ce:	d352abcf          	fnmadd.d	fs7,ft5,fs5,fs10,rdn
  1041d2:	d096576f          	jal	a4,69eda <(null)+0x49ed2>
  1041d6:	c309                	beqz	a4,1041d8 <(null)+0x65e>
  1041d8:	3eda                	fld	ft9,432(sp)
  1041da:	cc39                	beqz	s0,104238 <(null)+0x6be>
  1041dc:	d0d67627          	0xd0d67627
  1041e0:	2e2b2957          	0x2e2b2957
  1041e4:	3e2a                	fld	ft8,168(sp)
  1041e6:	d08656ef          	jal	a3,696ee <(null)+0x496e6>
  1041ea:	5bdf d089 a3ea      	0xa3ead0895bdf
  1041f0:	d3b82937          	lui	s2,0xd3b82
  1041f4:	3382                	fld	ft7,32(sp)
  1041f6:	d3622baf          	0xd3622baf
  1041fa:	a61f d363 74af      	0x74afd363a61f
  104200:	d0d9                	beqz	s1,104186 <(null)+0x60c>
  104202:	3cce                	fld	fs9,240(sp)
  104204:	3e2e                	fld	ft8,232(sp)
  104206:	d388256f          	jal	a0,8673e <(null)+0x66736>
  10420a:	d0865f0f          	0xd0865f0f
  10420e:	307a                	fld	ft0,440(sp)
  104210:	c391                	beqz	a5,104214 <(null)+0x69a>
  104212:	799f d0d6 a60f      	0xa60fd0d6799f
  104218:	541f2e2b          	0x541f2e2b
  10421c:	d099                	beqz	s1,104122 <(null)+0x5a8>
  10421e:	3046                	fld	ft0,112(sp)
  104220:	d0965977          	0xd0965977
  104224:	ac42                	fsd	fa6,24(sp)
  104226:	d238abef          	jal	s7,8ef48 <(null)+0x6ef40>
  10422a:	3c7a                	fld	fs8,440(sp)
  10422c:	d23ea3c7          	fmsub.d	ft7,ft9,ft3,fs10,rdn
  104230:	d0d67497          	auipc	s1,0xd0d67
  104234:	d225a6a7          	fsw	ft2,-723(a1) # d014869d <(null)+0xd001068d>
  104238:	d2e5a817          	auipc	a6,0xd2e5a
  10423c:	3d1a                	fld	fs10,416(sp)
  10423e:	3d2a                	fld	fs10,168(sp)
  104240:	d035de27          	0xd035de27
  104244:	3256                	fld	ft4,368(sp)
  104246:	d0d5f64f          	fnmadd.s	fa2,fa1,fa3,fs10
  10424a:	336a                	fld	ft6,184(sp)
  10424c:	c261                	beqz	a2,10430c <(null)+0x792>
  10424e:	2e2b226f          	jal	tp,1b6530 <(null)+0x7e520>
  104252:	d035d53f d0365a2f 	0xd0365a2fd035d53f
  10425a:	299f d3b5 a02a      	0xa02ad3b5299f
  104260:	30aa                	fld	ft1,168(sp)
  104262:	22ff                	0x22ff
  104264:	abefd3b7          	lui	t2,0xabefd
  104268:	7affd313          	0x7affd313
  10426c:	d0de                	sw	s7,96(sp)
  10426e:	3e8e                	fld	ft9,224(sp)
  104270:	3eea                	fld	ft9,184(sp)
  104272:	d38529bf d1475eff 	0xd1475effd38529bf
  10427a:	3caa                	fld	fs9,168(sp)
  10427c:	c2a1                	beqz	a3,1042bc <(null)+0x742>
  10427e:	d0d77aaf          	0xd0d77aaf
  104282:	2adf 2e2b 3f32      	0x3f322e2b2adf
  104288:	d1475957          	0xd1475957
  10428c:	d14e5147          	fmsub.s	ft2,ft8,fs4,fs10,unknown
  104290:	ac12                	fsd	ft4,24(sp)
  104292:	d222aabf ad973c32 	0xad973c32d222aabf
  10429a:	d2e2                	sw	s8,100(sp)
  10429c:	d208a107          	flw	ft2,-736(a7) # d37a8bf8 <(null)+0xd3670be8>
  1042a0:	d20ea077          	0xd20ea077
  1042a4:	d0de78c7          	fmsub.s	fa7,ft8,fa3,fs10
  1042a8:	3846                	fld	fa6,112(sp)
  1042aa:	3da6                	fld	fs11,104(sp)
  1042ac:	d0075d97          	auipc	s11,0xd0075
  1042b0:	3f02                	fld	ft10,32(sp)
  1042b2:	729f d0d7 c709      	0xc709d0d7729f
  1042b8:	37d6                	fld	fa5,368(sp)
  1042ba:	35d2                	fld	fa1,304(sp)
  1042bc:	2e2daa27          	fsw	ft2,756(s11) # d01795a0 <(null)+0xd0041590>
  1042c0:	d17f1a77          	0xd17f1a77
  1042c4:	3cc6                	fld	fs9,112(sp)
  1042c6:	246d                	jal	104570 <(null)+0x9f6>
  1042c8:	d177a257          	0xd177a257
  1042cc:	d14e5047          	fmsub.s	ft0,ft8,fs4,fs10,unknown
  1042d0:	347e                	fld	fs0,504(sp)
  1042d2:	ac1a                	fsd	ft6,24(sp)
  1042d4:	3c3a                	fld	fs8,424(sp)
  1042d6:	d16f1aaf          	0xd16f1aaf
  1042da:	201f d0fc 342a      	0x342ad0fc201f
  1042e0:	d16e2c77          	0xd16e2c77
  1042e4:	d0b2a167          	0xd0b2a167
  1042e8:	7242                	flw	ft4,48(sp)
  1042ea:	11df d0df a24f      	0xa24fd0df11df
  1042f0:	d01f 993f d0c7      	0xd0c7993fd01f
  1042f6:	d17c1aaf          	0xd17c1aaf
  1042fa:	169f d0fe 9a0f      	0x9a0fd0fe169f
  104300:	d162                	sw	s8,160(sp)
  104302:	204d                	jal	1043a4 <(null)+0x82a>
  104304:	d1684de7          	0xd1684de7
  104308:	d0bf96d7          	0xd0bf96d7
  10430c:	d01c9647          	fmsub.s	fa2,fs9,ft1,fs10,rtz
  104310:	387e                	fld	fa6,504(sp)
  104312:	d01fc6bf d13ca02f 	0xd13ca02fd01fc6bf
  10431a:	380e                	fld	fa6,224(sp)
  10431c:	d1391f07          	0xd1391f07
  104320:	38b2                	fld	fa7,296(sp)
  104322:	2e7f                	0x2e7f
  104324:	d134                	sw	a3,96(a0)
  104326:	d1541cef          	jal	s9,4603a <(null)+0x26032>
  10432a:	addf d3b8 359a      	0x359ad3b8addf
  104330:	d1379fb7          	lui	t6,0xd1379
  104334:	d1191ea7          	0xd1191ea7
  104338:	3b12                	fld	fs6,288(sp)
  10433a:	ad1f d117 948f      	0x948fd117ad1f
  104340:	9f7fd057          	0x9f7fd057
  104344:	d114                	sw	a3,32(a0)
  104346:	76ca                	flw	fa3,176(sp)
  104348:	2371                	jal	1048d4 <(null)+0x24c>
  10434a:	aa5f d3be 7fef      	0x7fefd3beaa5f
  104350:	d0d4                	sw	a3,36(s1)
  104352:	d11d4f3f d2e3a0af 	0xd2e3a0afd11d4f3f
  10435a:	35e2                	fld	fa1,56(sp)
  10435c:	d223a687          	flw	fa3,-734(t2) # abefcd22 <(null)+0xabdc4d12>
  104360:	d0e7ab77          	0xd0e7ab77
  104364:	d1b3dab7          	lui	s5,0xd1b3d
  104368:	3356                	fld	ft6,368(sp)
  10436a:	df5f d143 aa6a      	0xaa6ad143df5f
  104370:	2039                	jal	10437e <(null)+0x804>
  104372:	fb1f d0d3 387e      	0x387ed0d3fb1f
  104378:	3e4a                	fld	ft8,176(sp)
  10437a:	ea2a                	fsw	fa0,20(sp)
  10437c:	fbf2                	fsw	ft8,244(sp)
  10437e:	394e                	fld	fs2,240(sp)
  104380:	d1449ef7          	0xd1449ef7
  104384:	d10643e7          	0xd10643e7
  104388:	e852                	fsw	fs4,16(sp)
  10438a:	3d8a                	fld	fs11,160(sp)
  10438c:	3d86                	fld	fs11,96(sp)
  10438e:	d0e643cf          	fnmadd.s	ft7,fa2,fa4,fs10,rmm
  104392:	30ce                	fld	ft1,240(sp)
  104394:	a8f6                	fsd	ft9,80(sp)
  104396:	73e6                	flw	ft7,120(sp)
  104398:	718e                	flw	ft3,224(sp)
  10439a:	cd9f d0e6 bff0      	0xbff0d0e6cd9f
  1043a0:	b71c                	fsd	fa5,40(a4)
  1043a2:	e8cc                	fsw	fa1,20(s1)
  1043a4:	e490                	fsw	fa2,8(s1)
  1043a6:	2d45                	jal	104a56 <(null)+0x3ce>
  1043a8:	a986                	fsd	ft1,208(sp)
  1043aa:	2169                	jal	104834 <(null)+0x1ac>
  1043ac:	6cb4                	flw	fa3,88(s1)
  1043ae:	a8b9                	j	10440c <(null)+0x892>
  1043b0:	2f34b367          	0x2f34b367
  1043b4:	f966                	fsw	fs9,176(sp)
  1043b6:	f8ce                	fsw	fs3,112(sp)
  1043b8:	d1211d17          	auipc	s10,0xd1211
  1043bc:	6356                	flw	ft6,84(sp)
  1043be:	f97e                	fsw	ft11,176(sp)
  1043c0:	21c9                	jal	104882 <(null)+0x1fa>
  1043c2:	f92e                	fsw	fa1,176(sp)
  1043c4:	64b6                	flw	fs1,76(sp)
  1043c6:	d1c12deb          	0xd1c12deb
  1043ca:	6082                	flw	ft1,0(sp)
  1043cc:	669e                	flw	fa3,196(sp)
  1043ce:	215d                	jal	104874 <(null)+0x1ec>
  1043d0:	c3d62767          	0xc3d62767
  1043d4:	a9be                	fsd	fa5,208(sp)
  1043d6:	a6d0                	fsd	fa2,136(a3)
  1043d8:	a69c                	fsd	fa5,8(a3)
  1043da:	ed6c                	fsw	fa1,92(a0)
  1043dc:	ed30                	fsw	fa2,88(a0)
  1043de:	2ced                	jal	1046d8 <(null)+0x50>
  1043e0:	a8ee                	fsd	fs11,80(sp)
  1043e2:	2049                	jal	104464 <(null)+0x8ea>
  1043e4:	6d94                	flw	fa3,24(a1)
  1043e6:	a999                	j	10483c <(null)+0x1b4>
  1043e8:	2f34b207          	fld	ft4,755(s1) # d0e6b523 <(null)+0xd0d33513>
  1043ec:	e9d6                	fsw	fs5,208(sp)
  1043ee:	d1211c4f          	fnmadd.s	fs8,ft2,fs2,fs10,rtz
  1043f2:	2ddd                	jal	104ae8 <(null)+0x460>
  1043f4:	607a                	flw	ft0,156(sp)
  1043f6:	e98e                	fsw	ft3,208(sp)
  1043f8:	2129                	jal	104802 <(null)+0x17a>
  1043fa:	6646                	flw	fa2,80(sp)
  1043fc:	e992                	fsw	ft4,208(sp)
  1043fe:	c979                	beqz	a0,1044d4 <(null)+0x95a>
  104400:	a6ed                	j	1047ea <(null)+0x162>
  104402:	26a2                	fld	fa3,8(sp)
  104404:	c1216837          	lui	a6,0xc1216
  104408:	f676                	fsw	ft9,44(sp)
  10440a:	42ff                	0x42ff
  10440c:	d1a6                	sw	s1,224(sp)
  10440e:	7bad                	lui	s7,0xfffeb
  104410:	d1264297          	auipc	t0,0xd1264
  104414:	f751                	bnez	a4,1043a0 <(null)+0x826>
  104416:	b07f                	0xb07f
  104418:	f7aed317          	auipc	t1,0xf7aed
  10441c:	b671                	j	103fa8 <(null)+0x42e>
  10441e:	f70e                	fsw	ft3,172(sp)
  104420:	792a                	flw	fs2,168(sp)
  104422:	03df d196 2732      	0x2732d19603df
  104428:	f446                	fsw	fa7,40(sp)
  10442a:	83df d137 7b1e      	0x7b1ed13783df
  104430:	d1163237          	lui	tp,0xd1163
  104434:	7d76                	flw	fs10,124(sp)
  104436:	d137822f          	0xd137822f
  10443a:	2756                	fld	fa4,336(sp)
  10443c:	7f56                	flw	ft10,116(sp)
  10443e:	f69e                	fsw	ft7,108(sp)
  104440:	d1c133f3          	csrrc	t2,0xd1c,sp
  104444:	3ef9                	jal	104022 <(null)+0x4a8>
  104446:	7a81                	lui	s5,0xfffe0
  104448:	2e2132d3          	0x2e2132d3
  10444c:	a7dd                	j	104c32 <(null)+0x5aa>
  10444e:	3f55                	jal	104402 <(null)+0x888>
  104450:	7eea                	flw	ft9,184(sp)
  104452:	f72a                	fsw	fa0,172(sp)
  104454:	d7d1                	beqz	a5,1043e0 <(null)+0x866>
  104456:	27f2                	fld	fa5,280(sp)
  104458:	b8e8                	fsd	fa0,240(s1)
  10445a:	b894                	fsd	fa3,48(s1)
  10445c:	f374                	fsw	fa3,100(a4)
  10445e:	f338                	fsw	fa4,96(a4)
  104460:	321d                	jal	103d86 <(null)+0x20c>
  104462:	b6ee                	fsd	fs11,360(sp)
  104464:	3e51                	jal	103ff8 <(null)+0x47e>
  104466:	739c                	flw	fa5,32(a5)
  104468:	b7a1                	j	1043b0 <(null)+0x836>
  10446a:	2f662c0f          	0x2f662c0f
  10446e:	d789                	beqz	a5,104378 <(null)+0x7fe>
  104470:	2e363317          	auipc	t1,0x2e363
  104474:	d927f8f7          	0xd927f8f7
  104478:	f786                	fsw	ft1,236(sp)
  10447a:	33f5                	jal	104266 <(null)+0x6ec>
  10447c:	7e5a                	flw	ft8,180(sp)
  10447e:	f79e                	fsw	ft7,236(sp)
  104480:	b4d6                	fsd	fs5,104(sp)
  104482:	30dd                	jal	103d68 <(null)+0x1ee>
  104484:	d7302077          	0xd7302077
  104488:	f472                	fsw	ft8,40(sp)
  10448a:	f6fe                	fsw	ft11,108(sp)
  10448c:	f576                	fsw	ft9,168(sp)
  10448e:	b416                	fsd	ft5,40(sp)
  104490:	3c89                	jal	103ee2 <(null)+0x368>
  104492:	d720212f          	0xd720212f
  104496:	f47a                	fsw	ft10,40(sp)
  104498:	f596                	fsw	ft5,232(sp)
  10449a:	e4ce                	fsw	fs3,72(sp)
  10449c:	e39a                	fsw	ft6,196(sp)
  10449e:	e702                	fsw	ft0,140(sp)
  1044a0:	709c                	flw	fa5,32(s1)
  1044a2:	70c8                	flw	fa0,36(s1)
  1044a4:	7494                	flw	fa3,40(s1)
  1044a6:	74d4                	flw	fa3,44(s1)
  1044a8:	e76a                	fsw	fs10,140(sp)
  1044aa:	eaf2                	fsw	ft8,84(sp)
  1044ac:	ea1a                	fsw	ft6,20(sp)
  1044ae:	e982                	fsw	ft0,208(sp)
  1044b0:	e94a                	fsw	fs2,144(sp)
  1044b2:	e8d2                	fsw	fs4,80(sp)
  1044b4:	f83a                	fsw	fa4,48(sp)
  1044b6:	ffa2                	fsw	fs0,252(sp)
  1044b8:	ff2a                	fsw	fa0,188(sp)
  1044ba:	feb2                	fsw	fa2,124(sp)
  1044bc:	fe5a                	fsw	fs6,60(sp)
  1044be:	36d2                	fld	fa3,304(sp)
  1044c0:	d339                	beqz	a4,104406 <(null)+0x88c>
  1044c2:	329a                	fld	ft5,416(sp)
  1044c4:	7a4a                	flw	fs4,176(sp)
  1044c6:	e5ca                	fsw	fs2,200(sp)
  1044c8:	7a8e                	flw	fs5,224(sp)
  1044ca:	e5ea                	fsw	fs10,200(sp)
  1044cc:	789e                	flw	fa7,228(sp)
  1044ce:	e5ca                	fsw	fs2,200(sp)
  1044d0:	7eee                	flw	ft9,248(sp)
  1044d2:	e5aa                	fsw	fa0,200(sp)
  1044d4:	7cfe                	flw	fs9,252(sp)
  1044d6:	f5c1                	bnez	a1,10445e <(null)+0x8e4>
  1044d8:	c92abe47          	fmsub.s	ft8,fs5,fs2,fs9,rup
  1044dc:	f5ed                	bnez	a1,1044c6 <(null)+0x94c>
  1044de:	ba5f c92a f51d      	0xf51dc92aba5f
  1044e4:	212aab37          	lui	s6,0x212aa
  1044e8:	7c32                	flw	fs8,44(sp)
  1044ea:	7e3a                	flw	ft8,172(sp)
  1044ec:	7822                	flw	fa6,40(sp)
  1044ee:	7a2a                	flw	fs4,168(sp)
  1044f0:	1871                	addi	a6,a6,-4
  1044f2:	7a96                	flw	fs5,100(sp)
  1044f4:	f546                	fsw	fa7,168(sp)
  1044f6:	3972                	fld	fs2,312(sp)
  1044f8:	7a4e                	flw	fs4,240(sp)
  1044fa:	f56e                	fsw	fs11,168(sp)
  1044fc:	785e                	flw	fa6,244(sp)
  1044fe:	f54e                	fsw	fs3,168(sp)
  104500:	79ae                	flw	fs3,232(sp)
  104502:	f2ae                	fsw	fa1,100(sp)
  104504:	7bbe                	flw	fs7,236(sp)
  104506:	0ac9                	addi	s5,s5,18
  104508:	e2b2                	fsw	fa2,68(sp)
  10450a:	7b06                	flw	fs6,96(sp)
  10450c:	08e5                	addi	a7,a7,25
  10450e:	7baa                	flw	fs7,168(sp)
  104510:	79d2                	flw	fs3,52(sp)
  104512:	7fda                	flw	ft11,180(sp)
  104514:	7dc2                	flw	fs11,48(sp)
  104516:	2e26378f          	0x2e26378f
  10451a:	02ed                	addi	t0,t0,27
  10451c:	f265                	bnez	a2,1044fc <(null)+0x982>
  10451e:	9126378f          	0x9126378f
  104522:	37df d691 73bf      	0x73bfd69137df
  104528:	c326                	sw	s1,132(sp)
  10452a:	bd3c                	fsd	fa5,120(a0)
  10452c:	9186e5e7          	0x9186e5e7
  104530:	3376                	fld	ft6,376(sp)
  104532:	f1d9                	bnez	a1,1044b8 <(null)+0x93e>
  104534:	f2c1                	bnez	a3,1044b4 <(null)+0x93a>
  104536:	26ff                	0x26ff
  104538:	d376                	sw	t4,164(sp)
  10453a:	3e05                	jal	10406a <(null)+0x4f0>
  10453c:	d1f427a7          	fsw	ft11,-753(s0) # d09b5ec7 <(null)+0xd087deb7>
  104540:	5385                	li	t2,-31
  104542:	f215                	bnez	a2,104466 <(null)+0x8ec>
  104544:	33a6                	fld	ft7,104(sp)
  104546:	f289                	bnez	a3,104448 <(null)+0x8ce>
  104548:	3a39                	jal	103e66 <(null)+0x2ec>
  10454a:	b4df d136 f5a4      	0xf5a4d136b4df
  104550:	b2d5                	j	103f34 <(null)+0x3ba>
  104552:	77d4                	flw	fa3,44(a5)
  104554:	b3d1                	j	104318 <(null)+0x79e>
  104556:	6bff                	0x6bff
  104558:	f3e92f07          	flw	ft10,-194(s2) # d3b81f3e <(null)+0xd3a49f2e>
  10455c:	9176b407          	fld	fs0,-1769(a3) # ae20d917 <(null)+0xae0d5907>
  104560:	1431                	addi	s0,s0,-20
  104562:	f608                	fsw	fa0,40(a2)
  104564:	b385                	j	1042c4 <(null)+0x74a>
  104566:	b219                	j	103e6c <(null)+0x2f2>
  104568:	38e1                	jal	103e40 <(null)+0x2c6>
  10456a:	0349                	addi	t1,t1,18
  10456c:	ec51                	bnez	s0,104608 <(null)+0xa8e>
  10456e:	d2c4394f          	fnmadd.d	fs2,fs0,fa2,fs10,rup
  104572:	b5cc                	fsd	fa1,168(a1)
  104574:	227a                	fld	ft4,408(sp)
  104576:	971f 2cd7 343f      	0x343f2cd7971f
  10457c:	d3d1                	beqz	a5,104500 <(null)+0x986>
  10457e:	3975                	jal	10423a <(null)+0x6c0>
  104580:	d167a4f7          	0xd167a4f7
  104584:	3b55                	jal	104338 <(null)+0x7be>
  104586:	f185                	bnez	a1,1044a6 <(null)+0x92c>
  104588:	2016                	fld	ft0,320(sp)
  10458a:	ff39                	bnez	a4,1044e8 <(null)+0x96e>
  10458c:	39a9                	jal	1041e6 <(null)+0x66c>
  10458e:	7d1f d709 f049      	0xf049d7097d1f
  104594:	91763727          	fsd	fs7,-1778(a2) # 2e2c490e <(null)+0x2e18c8fe>
  104598:	b1fa                	fsd	ft10,224(sp)
  10459a:	b660                	fsd	fs0,232(a2)
  10459c:	21da                	fld	ft3,400(sp)
  10459e:	f01e                	fsw	ft7,32(sp)
  1045a0:	d1266577          	0xd1266577
  1045a4:	2d279af7          	0x2d279af7
  1045a8:	fea1                	bnez	a3,104500 <(null)+0x986>
  1045aa:	34df 9178 b2a2      	0xb2a2917834df
  1045b0:	b1da                	fsd	fs6,224(sp)
  1045b2:	f259                	bnez	a2,104538 <(null)+0x9be>
  1045b4:	22e6                	fld	ft5,88(sp)
  1045b6:	30aee273          	csrrsi	tp,0x30a,29
  1045ba:	f0be                	fsw	fa5,96(sp)
  1045bc:	d1510507          	0xd1510507
  1045c0:	39c9                	jal	104292 <(null)+0x718>
  1045c2:	7ea6                	flw	ft9,104(sp)
  1045c4:	d1a6c447          	fmsub.s	fs0,fa3,fs10,fs10,rmm
  1045c8:	712d                	addi	sp,sp,-288
  1045ca:	c47f                	0xc47f
  1045cc:	d126                	sw	s1,160(sp)
  1045ce:	371f d2f6 f10e      	0xf10ed2f6371f
  1045d4:	b1d1                	j	104298 <(null)+0x71e>
  1045d6:	f0ae                	fsw	fa1,96(sp)
  1045d8:	7ece                	flw	ft9,240(sp)
  1045da:	d19684bf f0e62156 	0xf0e62156d19684bf
  1045e2:	047f                	0x47f
  1045e4:	d126                	sw	s1,160(sp)
  1045e6:	7c32                	flw	fs8,44(sp)
  1045e8:	d106b4d7          	0xd106b4d7
  1045ec:	7a1a                	flw	fs4,164(sp)
  1045ee:	d12604cf          	fnmadd.s	fs1,fa2,fs2,fs10,rne
  1045f2:	21ea                	fld	ft3,152(sp)
  1045f4:	787a                	flw	fa6,188(sp)
  1045f6:	f1be                	fsw	fa5,224(sp)
  1045f8:	d1d93413          	sltiu	s0,s2,-739
  1045fc:	3919                	jal	104212 <(null)+0x698>
  1045fe:	7175                	addi	sp,sp,-144
  104600:	7792                	flw	fa5,36(sp)
  104602:	759a                	flw	fa1,164(sp)
  104604:	7382                	flw	ft7,32(sp)
  104606:	718a                	flw	ft3,160(sp)
  104608:	feb5                	bnez	a3,104584 <(null)+0xa0a>
  10460a:	04ad                	addi	s1,s1,11
  10460c:	fa30                	fsw	fa2,112(a2)
  10460e:	1f7f                	0x1f7f
  104610:	d196                	sw	t0,224(sp)
  104612:	d0c6323f d1276a2f 	0xd1276a2fd0c6323f
  10461a:	2f1f d162 5a0f      	0x5a0fd1622f1f
  104620:	1cefd1b7          	lui	gp,0x1cefd
  104624:	d11f b18d bea1      	0xbea1b18dd11f
  10462a:	0e2d                	addi	t3,t3,11
  10462c:	d115ba67          	0xd115ba67
  104630:	f94c                	fsw	fa1,52(a0)
  104632:	f900                	fsw	fs0,48(a0)
  104634:	3a4d                	jal	103fe6 <(null)+0x46c>
  104636:	bebe                	fsd	fa5,376(sp)
  104638:	3629                	jal	104142 <(null)+0x5c8>
  10463a:	7964                	flw	fs1,116(a0)
  10463c:	bd71                	j	1044d8 <(null)+0x95e>
  10463e:	a55f 2f05 ffee      	0xffee2f05a55f
  104644:	3b8d                	jal	1043b6 <(null)+0x83c>
  104646:	76b6                	flw	fa3,108(sp)
  104648:	ffb1                	bnez	a5,1045a4 <(null)+0xa2a>
  10464a:	052d                	addi	a0,a0,11
  10464c:	fff6                	fsw	ft9,252(sp)
  10464e:	ff6e                	fsw	fs11,188(sp)
  104650:	370d                	jal	104572 <(null)+0x9f8>
  104652:	ffbe                	fsw	fa5,252(sp)
  104654:	371d                	jal	10457a <(null)+0xa00>
  104656:	ffbe                	fsw	fa5,252(sp)
  104658:	372d                	jal	104582 <(null)+0xa08>
  10465a:	fff9                	bnez	a5,104638 <(null)+0xabe>
  10465c:	33d63cd7          	0x33d63cd7
  104660:	7612                	flw	fa2,36(sp)
  104662:	741a                	flw	fs0,164(sp)
  104664:	7202                	flw	ft4,32(sp)
  104666:	700a                	flw	ft0,160(sp)
  104668:	05a9                	addi	a1,a1,10
  10466a:	df19                	beqz	a4,104588 <(null)+0xa0e>
  10466c:	7622                	flw	fa2,40(sp)
  10466e:	742a                	flw	fs0,168(sp)
  104670:	7252                	flw	ft4,52(sp)
  104672:	705a                	flw	ft0,180(sp)
  104674:	af3d                	j	104db2 <(null)+0x72a>
  104676:	0de9                	addi	s11,s11,26
  104678:	df51                	beqz	a4,104614 <(null)+0xa9a>
  10467a:	7646                	flw	fa2,112(sp)
  10467c:	7462                	flw	fs0,56(sp)
  10467e:	726a                	flw	ft4,184(sp)
  104680:	7392                	flw	ft7,36(sp)
  104682:	ace5                	j	10497a <(null)+0x2f2>
  104684:	7302                	flw	ft6,32(sp)
  104686:	00ed                	addi	ra,ra,27
  104688:	ca69                	beqz	a2,10475a <(null)+0xd2>
  10468a:	fea4                	fsw	fs1,120(a3)
  10468c:	71f6                	flw	ft3,124(sp)
  10468e:	94ff                	0x94ff
  104690:	d114                	sw	a3,32(a0)
  104692:	facc                	fsw	fa1,52(a3)
  104694:	fa98                	fsw	fa4,48(a3)
  104696:	7392                	flw	ft7,36(sp)
  104698:	7dae                	flw	fs11,232(sp)
  10469a:	3052                	fld	ft0,304(sp)
  10469c:	675e                	flw	fa4,212(sp)
  10469e:	7756                	flw	fa4,116(sp)
  1046a0:	d1d716c7          	fmsub.s	fa3,fa4,ft9,fs10,rtz
  1046a4:	d0dba947          	fmsub.s	fs2,fs7,fa3,fs10,rdn
  1046a8:	f9f8                	fsw	fa4,116(a1)
  1046aa:	fdb4                	fsw	fa3,120(a1)
  1046ac:	d1171577          	0xd1171577
  1046b0:	6976                	flw	fs2,92(sp)
  1046b2:	3819                	jal	103ec8 <(null)+0x34e>
  1046b4:	d1cbaa07          	flw	fs4,-740(s7) # fffead1c <(null)+0xffeb2d0c>
  1046b8:	63c6                	flw	ft7,80(sp)
  1046ba:	65ae                	flw	fa1,200(sp)
  1046bc:	73d6                	flw	ft7,116(sp)
  1046be:	6d6e                	flw	fs10,216(sp)
  1046c0:	6eb2                	flw	ft9,12(sp)
  1046c2:	6ad2                	flw	fs5,20(sp)
  1046c4:	74ce                	flw	fs1,240(sp)
  1046c6:	76da                	flw	fa3,180(sp)
  1046c8:	7ed2                	flw	ft9,52(sp)
  1046ca:	78de                	flw	fa7,244(sp)
  1046cc:	601a                	flw	ft0,132(sp)
  1046ce:	7012                	flw	ft0,36(sp)
  1046d0:	746e                	flw	fs0,248(sp)
  1046d2:	3a9d                	jal	104048 <(null)+0x4ce>
  1046d4:	d02be587          	0xd02be587
  1046d8:	d0d037b7          	lui	a5,0xd0d03
  1046dc:	b214                	fsd	fa3,32(a2)
  1046de:	f8f4                	fsw	fa3,116(s1)
  1046e0:	2e1798c7          	fmsub.q	fa7,fa5,ft1,ft5,rtz
  1046e4:	ac71                	j	104980 <(null)+0x2f8>
  1046e6:	bd06                	fsd	ft1,184(sp)
  1046e8:	39c5                	jal	1043d8 <(null)+0x85e>
  1046ea:	3561                	jal	104572 <(null)+0x9f8>
  1046ec:	787c                	flw	fa5,116(s0)
  1046ee:	a71f 2f09 f39a      	0xf39a2f09a71f
  1046f4:	d0daa807          	flw	fa6,-755(s5) # fffdfd0d <(null)+0xffea7cfd>
  1046f8:	d1caa3b7          	lui	t2,0xd1caa
  1046fc:	b3ee                	fsd	fs11,480(sp)
  1046fe:	3929                	jal	104318 <(null)+0x79e>
  104700:	673a                	flw	fa4,140(sp)
  104702:	6136                	flw	ft2,76(sp)
  104704:	635e                	flw	ft6,212(sp)
  104706:	6f22                	flw	ft10,8(sp)
  104708:	691e                	flw	fs2,196(sp)
  10470a:	7572                	flw	fa0,60(sp)
  10470c:	6562                	flw	fa0,24(sp)
  10470e:	6d6a                	flw	fs10,152(sp)
  104710:	6b6e                	flw	fs6,216(sp)
  104712:	641f d0cd e38f      	0xe38fd0cd641f
  104718:	d02a                	sw	a0,32(sp)
  10471a:	ad70                	fsd	fa2,216(a0)
  10471c:	ad0c                	fsd	fa1,24(a0)
  10471e:	fcf4                	fsw	fa3,124(s1)
  104720:	2e149fc7          	fmsub.q	ft11,fs1,ft1,ft5,rtz
  104724:	a871                	j	1047c0 <(null)+0x138>
  104726:	ba06                	fsd	ft1,304(sp)
  104728:	3ec5                	jal	104318 <(null)+0x79e>
  10472a:	3261                	jal	1040b2 <(null)+0x538>
  10472c:	7c7c                	flw	fa5,124(s0)
  10472e:	201f 2f64 e9da      	0xe9da2f64201f
  104734:	da61                	beqz	a2,104704 <(null)+0x7c>
  104736:	aa35                	j	104872 <(null)+0x1ea>
  104738:	b9fe                	fsd	ft11,240(sp)
  10473a:	6dda                	flw	fs11,148(sp)
  10473c:	d12d21d7          	0xd12d21d7
  104740:	eb32                	fsw	fa2,148(sp)
  104742:	eb8a                	fsw	ft2,212(sp)
  104744:	33d9                	jal	10450a <(null)+0x990>
  104746:	eb3a                	fsw	fa4,148(sp)
  104748:	33e9                	jal	104512 <(null)+0x998>
  10474a:	33f9                	jal	104518 <(null)+0x99e>
  10474c:	5fb9                	li	t6,-18
  10474e:	d1caf2ef          	jal	t0,b3c6a <(null)+0x93c62>
  104752:	9055b13f 8e8aa07f 	0x8e8aa07f9055b13f
  10475a:	fcd1634f          	0xfcd1634f
  10475e:	f7ba                	fsw	fa4,236(sp)
  104760:	f6f2                	fsw	ft8,108(sp)
  104762:	f56a                	fsw	fs10,168(sp)
  104764:	d7dd25b7          	lui	a1,0xd7dd2
  104768:	eaa2                	fsw	fs0,84(sp)
  10476a:	eb9a                	fsw	ft6,212(sp)
  10476c:	eb12                	fsw	ft4,148(sp)
  10476e:	d1375f4f          	fnmadd.s	ft10,fa4,fs3,fs10,unknown
  104772:	3205                	jal	104092 <(null)+0x518>
  104774:	3201                	jal	104074 <(null)+0x4fa>
  104776:	5a51                	li	s4,-12
  104778:	64ba                	flw	fs1,140(sp)
  10477a:	66a6                	flw	fa3,72(sp)
  10477c:	60b2                	flw	ft1,12(sp)
  10477e:	62a6                	flw	ft5,72(sp)
  104780:	3bd2                	fld	fs7,304(sp)
  104782:	1fb5                	addi	t6,t6,-19
  104784:	2e293cc7          	fmsub.q	fs9,fs2,ft2,ft5,rup
  104788:	51bd                	li	gp,-17
  10478a:	2b72                	fld	fs6,280(sp)
  10478c:	d0f50347          	fmsub.s	ft6,fa0,fa5,fs10,rne
  104790:	290e                	fld	fs2,192(sp)
  104792:	677a                	flw	fa4,156(sp)
  104794:	d0f73e27          	fsd	fa5,-740(a4) # d3b0f62c <(null)+0xd39d761c>
  104798:	d0f50317          	auipc	t1,0xd0f50
  10479c:	d0a70c07          	0xd0a70c07
  1047a0:	d0f75cf7          	0xd0f75cf7
  1047a4:	28d2                	fld	fa7,272(sp)
  1047a6:	d1163c6f          	jal	s8,684b6 <(null)+0x484ae>
  1047aa:	8cdf d117 0dcf      	0xdcfd1178cdf
  1047b0:	d096                	sw	t0,96(sp)
  1047b2:	3089                	jal	103ff4 <(null)+0x47a>
  1047b4:	280e                	fld	fa6,192(sp)
  1047b6:	28f6                	fld	fa7,344(sp)
  1047b8:	65d2                	flw	fa1,20(sp)
  1047ba:	63ce                	flw	ft7,208(sp)
  1047bc:	61da                	flw	ft3,148(sp)
  1047be:	fb6d                	bnez	a4,1047b0 <(null)+0x128>
  1047c0:	14f5                	addi	s1,s1,-3
  1047c2:	d9b9                	beqz	a1,104718 <(null)+0x90>
  1047c4:	a9fd                	j	104cc2 <(null)+0x63a>
  1047c6:	2b2932bf d6913cff 	0xd6913cff2b2932bf
  1047ce:	ec1f c106 685a      	0x685ac106ec1f
  1047d4:	6a42                	flw	fs4,16(sp)
  1047d6:	6c4a                	flw	fs8,144(sp)
  1047d8:	f9f5                	bnez	a1,1047cc <(null)+0x144>
  1047da:	1401                	addi	s0,s0,-32
  1047dc:	d9c1                	beqz	a1,10476c <(null)+0xe4>
  1047de:	a995                	j	104c52 <(null)+0x5ca>
  1047e0:	df25afa7          	fsw	fs2,-513(a1) # d7dd1dff <(null)+0xd7c99def>
  1047e4:	66ca                	flw	fa3,144(sp)
  1047e6:	64d6                	flw	fs1,84(sp)
  1047e8:	62e2                	flw	ft5,24(sp)
  1047ea:	60f6                	flw	ft1,92(sp)
  1047ec:	e962                	fsw	fs8,144(sp)
  1047ee:	d1a6ccef          	jal	s9,70d08 <(null)+0x50d00>
  1047f2:	75dd                	lui	a1,0xffff7
  1047f4:	d126cc87          	flq	fs9,-750(a3)
  1047f8:	f861                	bnez	s0,1047c8 <(null)+0x140>
  1047fa:	d3063fcf          	fnmadd.d	ft11,fa2,fa6,fs10,rup
  1047fe:	e9ba                	fsw	fa4,208(sp)
  104800:	8681                	c.srai64	a3
  104802:	d7fa                	sw	t5,236(sp)
  104804:	593e                	lw	s2,236(sp)
  104806:	d196b3cf          	fnmadd.s	ft7,fa3,fs9,fs10,rup
  10480a:	1606                	slli	a2,a2,0x21
  10480c:	d752                	sw	s4,172(sp)
  10480e:	d12633cf          	fnmadd.s	ft7,fa2,fs2,fs10,rup
  104812:	5b62                	lw	s6,56(sp)
  104814:	d1068327          	0xd1068327
  104818:	5d4a                	lw	s10,176(sp)
  10481a:	331f d126 165a      	0x165ad126331f
  104820:	5faa                	lw	t6,168(sp)
  104822:	d66a                	sw	s10,44(sp)
  104824:	d1d903e3          	beq	s2,t4,10452a <(null)+0x9b0>
  104828:	0ecd                	addi	t4,t4,19
  10482a:	4aa1                	li	s5,8
  10482c:	e681                	bnez	a3,104834 <(null)+0x1ac>
  10482e:	852d                	srai	a0,a0,0xb
  104830:	96ad                	srai	a3,a3,0x2b
  104832:	9b358c6f          	jal	s8,5d1e4 <(null)+0x3d1dc>
  104836:	2e2903ab          	0x2e2903ab
  10483a:	9685                	srai	a3,a3,0x21
  10483c:	0e19                	addi	t3,t3,6
  10483e:	5fd6                	lw	t6,116(sp)
  104840:	980c                	0x980c
  104842:	9868                	0x9868
  104844:	c398                	sw	a4,0(a5)
  104846:	c3dc                	sw	a5,4(a5)
  104848:	033d                	addi	t1,t1,15
  10484a:	86ce                	mv	a3,s3
  10484c:	0f75                	addi	t5,t5,29
  10484e:	43b0                	lw	a2,64(a5)
  104850:	87c1                	srai	a5,a5,0x10
  104852:	2f271cef          	jal	s9,175b44 <(null)+0x3db34>
  104856:	d7ba                	sw	a4,236(sp)
  104858:	e6d1                	bnez	a3,1048e4 <(null)+0x25c>
  10485a:	d1e6d23f 82575e52 	0x82575e52d1e6d23f
  104862:	9bb72e27          	fsw	fs11,-1604(a4)
  104866:	d125                	beqz	a0,1047c6 <(null)+0x13e>
  104868:	d6e2                	sw	s8,108(sp)
  10486a:	d77a                	sw	t5,172(sp)
  10486c:	0f71                	addi	t5,t5,28
  10486e:	d6ca                	sw	s2,108(sp)
  104870:	0f01                	addi	t5,t5,0
  104872:	0f01                	addi	t5,t5,0
  104874:	4751                	li	a4,20
  104876:	5efe                	lw	t4,252(sp)
  104878:	5cf2                	lw	s9,60(sp)
  10487a:	5afa                	lw	s5,188(sp)
  10487c:	58e2                	lw	a7,56(sp)
  10487e:	ca69                	beqz	a2,104950 <(null)+0x2c8>
  104880:	d4e2                	sw	s8,104(sp)
  104882:	87de                	mv	a5,s7
  104884:	03c5                	addi	t2,t2,17
  104886:	89b6                	mv	s3,a3
  104888:	d14becd7          	0xd14becd7
  10488c:	d0801157          	0xd0801157
  104890:	d1201027          	0xd1201027
  104894:	d502                	sw	zero,168(sp)
  104896:	d59a                	sw	t1,232(sp)
  104898:	d412                	sw	tp,40(sp)
  10489a:	c4ca                	sw	s2,72(sp)
  10489c:	d3d6                	sw	s5,228(sp)
  10489e:	d74e                	sw	s3,172(sp)
  1048a0:	d11a26e7          	0xd11a26e7
  1048a4:	d10a24f7          	0xd10a24f7
  1048a8:	d13a22c7          	fmsub.s	ft5,fs4,fs3,fs10,rdn
  1048ac:	d12a20d7          	0xd12a20d7
  1048b0:	d746                	sw	a7,172(sp)
  1048b2:	dade                	sw	s7,116(sp)
  1048b4:	ca36                	sw	a3,20(sp)
  1048b6:	c9ae                	sw	a1,208(sp)
  1048b8:	c926                	sw	s1,144(sp)
  1048ba:	c84e                	sw	s3,16(sp)
  1048bc:	cfc6                	sw	a7,220(sp)
  1048be:	cf7e                	sw	t6,156(sp)
  1048c0:	074a                	slli	a4,a4,0x12
  1048c2:	c95e                	sw	s7,144(sp)
  1048c4:	e365                	bnez	a4,1049a4 <(null)+0x31c>
  1048c6:	028a                	slli	t0,t0,0x2
  1048c8:	d582                	sw	zero,232(sp)
  1048ca:	d1d9005b          	0xd1d9005b
  1048ce:	0df1                	addi	s11,s11,28
  1048d0:	546e                	lw	s0,248(sp)
  1048d2:	009f d691 c9ff      	0xc9ffd691009f
  1048d8:	3ed6                	fld	ft9,368(sp)
  1048da:	04ba                	slli	s1,s1,0xe
  1048dc:	9187d0a7          	0x9187d0a7
  1048e0:	04be                	slli	s1,s1,0xf
  1048e2:	c699                	beqz	a3,1048f0 <(null)+0x268>
  1048e4:	c581                	beqz	a1,1048ec <(null)+0x264>
  1048e6:	d32610bf 91e70845 	0x91e70845d32610bf
  1048ee:	d1f6                	sw	t4,224(sp)
  1048f0:	685d                	lui	a6,0x17
  1048f2:	c455                	beqz	s0,10499e <(null)+0x316>
  1048f4:	c5c1                	beqz	a1,10497c <(null)+0x2f4>
  1048f6:	0c55                	addi	s8,s8,21
  1048f8:	d1148f97          	auipc	t6,0xd1148
  1048fc:	d1d92fb7          	lui	t6,0xd1d92
  104900:	8215                	srli	a2,a2,0x5
  104902:	d0d4a06f          	j	4f60e <(null)+0x2f606>
  104906:	8099                	srli	s1,s1,0x6
  104908:	2f37d887          	0x2f37d887
  10490c:	c231                	beqz	a2,104950 <(null)+0x2c8>
  10490e:	912607cf          	fnmadd.s	fa5,fa2,fs2,fs2,rne
  104912:	25e1                	jal	104fda <(null)+0x952>
  104914:	d1d72817          	auipc	a6,0xd1d72
  104918:	8275                	srli	a2,a2,0x1d
  10491a:	8369                	srli	a4,a4,0x1a
  10491c:	d0d56407          	0xd0d56407
  104920:	3249                	jal	1042a2 <(null)+0x728>
  104922:	d6e9                	beqz	a3,1048ec <(null)+0x264>
  104924:	d3b683e7          	jalr	t2,-709(a3)
  104928:	8528                	0x8528
  10492a:	128a                	slli	t0,t0,0x22
  10492c:	2fd627f7          	0x2fd627f7
  104930:	d3d10897          	auipc	a7,0xd3d10
  104934:	910908a7          	0x910908a7
  104938:	d0d61797          	auipc	a5,0xd0d61
  10493c:	09b9                	addi	s3,s3,14
  10493e:	c2e5                	beqz	a3,104a1e <(null)+0x396>
  104940:	123a                	slli	tp,tp,0x2e
  104942:	cc99                	beqz	s1,104960 <(null)+0x2d8>
  104944:	0b1d                	addi	s6,s6,7
  104946:	dd39c53f 06c7c229 	0x6c7c229dd39c53f
  10494e:	835a9127          	0x835a9127
  104952:	84c8                	0x84c8
  104954:	1372                	slli	t1,t1,0x3c
  104956:	d27a                	sw	t5,36(sp)
  104958:	d1075797          	auipc	a5,0xd1075
  10495c:	2f062117          	auipc	sp,0x2f062
  104960:	c281                	beqz	a3,104960 <(null)+0x2d8>
  104962:	0a85                	addi	s5,s5,1
  104964:	830a                	mv	t1,sp
  104966:	11b6                	slli	gp,gp,0x2d
  104968:	82ba                	mv	t0,a4
  10496a:	c139                	beqz	a0,1049b0 <(null)+0x328>
  10496c:	77ced11b          	0x77ced11b
  104970:	d3d2                	sw	s4,228(sp)
  104972:	d151363f 54ce0b11 	0x54ce0b11d151363f
  10497a:	d2fa                	sw	t5,100(sp)
  10497c:	d242                	sw	a6,36(sp)
  10497e:	12a2                	slli	t0,t0,0x28
  104980:	d0f73b77          	0xd0f73b77
  104984:	5f32                	lw	t5,44(sp)
  104986:	d11a                	sw	t1,160(sp)
  104988:	116e                	slli	sp,sp,0x3b
  10498a:	05df d0f7 bb4f      	0xbb4fd0f705df
  104990:	d0f6                	sw	t4,96(sp)
  104992:	d0a7343f d0f7642f 	0xd0f7642fd0a7343f
  10499a:	5d46                	lw	s10,112(sp)
  10499c:	d10b0587          	0xd10b0587
  1049a0:	d11685f7          	0xd11685f7
  1049a4:	5bba                	lw	s7,172(sp)
  1049a6:	d096b56f          	jal	a0,706ae <(null)+0x506a6>
  1049aa:	35df d116 0871      	0x871d11635df
  1049b0:	d0e2                	sw	s8,96(sp)
  1049b2:	1e62                	slli	t3,t3,0x38
  1049b4:	100e                	c.slli	zero,0x23
  1049b6:	59f6                	lw	s3,124(sp)
  1049b8:	d002                	sw	zero,32(sp)
  1049ba:	d1d9059b          	0xd1d9059b
  1049be:	0895                	addi	a7,a7,5
  1049c0:	33d605a7          	0x33d605a7
  1049c4:	2e290463          	beq	s2,sp,104cac <(null)+0x624>
  1049c8:	914d                	srli	a0,a0,0x33
  1049ca:	09c1                	addi	s3,s3,16
  1049cc:	581e                	lw	a6,228(sp)
  1049ce:	d1ea                	sw	s10,224(sp)
  1049d0:	82d5                	srli	a3,a3,0x15
  1049d2:	9e34                	0x9e34
  1049d4:	d0269407          	0xd0269407
  1049d8:	9e6c                	0x9e6c
  1049da:	c5ec                	sw	a1,76(a1)
  1049dc:	c5b0                	sw	a2,72(a1)
  1049de:	04ed                	addi	s1,s1,27
  1049e0:	80ee                	mv	ra,s11
  1049e2:	0849                	addi	a6,a6,18
  1049e4:	4514                	lw	a3,8(a0)
  1049e6:	8119                	srli	a0,a0,0x6
  1049e8:	2f249a07          	0x2f249a07
  1049ec:	d152                	sw	s4,160(sp)
  1049ee:	052d                	addi	a0,a0,11
  1049f0:	58ee                	lw	a7,248(sp)
  1049f2:	d131343f 0929d18a 	0x929d18ad131343f
  1049fa:	5ec6                	lw	t4,112(sp)
  1049fc:	e141                	bnez	a0,104a7c <(null)+0x3f4>
  1049fe:	9115                	srli	a0,a0,0x25
  104a00:	0f259aa7          	0xf259aa7
  104a04:	5702                	lw	a4,32(sp)
  104a06:	550a                	lw	a0,160(sp)
  104a08:	5332                	lw	t1,44(sp)
  104a0a:	513a                	lw	sp,172(sp)
  104a0c:	3ae5                	jal	104404 <(null)+0x88a>
  104a0e:	cb24                	sw	s1,80(a4)
  104a10:	d1972207          	flw	ft4,-743(a4)
  104a14:	d1b702a7          	0xd1b702a7
  104a18:	d104d997          	auipc	s3,0xd104d
  104a1c:	d0df1207          	0xd0df1207
  104a20:	d014e977          	0xd014e977
  104a24:	d16facf7          	0xd16facf7
  104a28:	8135                	srli	a0,a0,0xd
  104a2a:	8fa9                	xor	a5,a5,a0
  104a2c:	3689                	jal	10456e <(null)+0x9f4>
  104a2e:	d03a                	sw	a4,32(sp)
  104a30:	d3f2                	sw	t3,228(sp)
  104a32:	d26a                	sw	s10,36(sp)
  104a34:	cbd903f7          	0xcbd903f7
  104a38:	914d0917          	auipc	s2,0x914d0
  104a3c:	6545                	lui	a0,0x11
  104a3e:	ceba                	sw	a4,92(sp)
  104a40:	cff2                	sw	t3,220(sp)
  104a42:	cd6a                	sw	s10,152(sp)
  104a44:	d1266b67          	0xd1266b67
  104a48:	0679                	addi	a2,a2,30
  104a4a:	6b5f d0f7 6e31      	0x6e31d0f76b5f
  104a50:	5072                	0x5072
  104a52:	5216                	lw	tp,100(sp)
  104a54:	5412                	lw	s0,36(sp)
  104a56:	5616                	lw	a2,100(sp)
  104a58:	0cde                	slli	s9,s9,0x17
  104a5a:	3331                	jal	104766 <(null)+0xde>
  104a5c:	2e248b27          	0x2e248b27
  104a60:	669d                	lui	a3,0x7
  104a62:	11ba                	slli	gp,gp,0x2e
  104a64:	1fce                	slli	t6,t6,0x33
  104a66:	d15839ef          	jal	s3,8877a <(null)+0x68772>
  104a6a:	50f2                	lw	ra,60(sp)
  104a6c:	d15604c7          	fmsub.s	fs1,fa2,fs5,fs10,rne
  104a70:	d15839b7          	lui	s3,0xd1583
  104a74:	d0e63aa7          	fsd	fa4,-747(a2)
  104a78:	d1566417          	auipc	s0,0xd1566
  104a7c:	1f32                	slli	t5,t5,0x2c
  104a7e:	d0e68a8f          	0xd0e68a8f
  104a82:	37ff                	0x37ff
  104a84:	d0e6                	sw	s9,96(sp)
  104a86:	d096b9ef          	jal	s3,7078e <(null)+0x50786>
  104a8a:	e9df d0e6 1082      	0x1082d0e6e9df
  104a90:	10ee                	slli	ra,ra,0x3b
  104a92:	5112                	lw	sp,36(sp)
  104a94:	577a                	lw	a4,188(sp)
  104a96:	5516                	lw	a0,100(sp)
  104a98:	386d                	jal	104352 <(null)+0x7d8>
  104a9a:	ecd9                	bnez	s1,104b38 <(null)+0x4b0>
  104a9c:	9c9d                	0x9c9d
  104a9e:	87df 2b24 095f      	0x95f2b2487df
  104aa4:	d691                	beqz	a3,1049b0 <(null)+0x328>
  104aa6:	d316d5bf 47a245ba 	0x47a245bad316d5bf
  104aae:	41aa                	lw	gp,136(sp)
  104ab0:	cc55                	beqz	s0,104b6c <(null)+0x4e4>
  104ab2:	2329                	jal	104fbc <(null)+0x934>
  104ab4:	ec61                	bnez	s0,104b8c <(null)+0x504>
  104ab6:	9c35                	0x9c35
  104ab8:	d12d16c7          	fmsub.s	fa3,fs10,fs2,fs10,rtz
  104abc:	53c2                	lw	t2,48(sp)
  104abe:	51a6                	lw	gp,104(sp)
  104ac0:	5642                	lw	a2,48(sp)
  104ac2:	5446                	lw	s0,112(sp)
  104ac4:	0ee2                	slli	t4,t4,0x18
  104ac6:	3915                	jal	1046fa <(null)+0x72>
  104ac8:	cdc2                	sw	a6,216(sp)
  104aca:	d1d9085b          	0xd1d9085b
  104ace:	05f1                	addi	a1,a1,28
  104ad0:	446e                	lw	s0,216(sp)
  104ad2:	089f d691 c5ff      	0xc5ffd691089f
  104ad8:	2d66                	fld	fs10,88(sp)
  104ada:	0c56                	slli	s8,s8,0x15
  104adc:	d3d108a7          	0xd3d108a7
  104ae0:	d3274877          	0xd3274877
  104ae4:	0f36                	slli	t5,t5,0xd
  104ae6:	ce09                	beqz	a2,104b00 <(null)+0x478>
  104ae8:	cdb1                	beqz	a1,104b44 <(null)+0x4bc>
  104aea:	d326458f          	0xd326458f
  104aee:	0f16                	slli	t5,t5,0x5
  104af0:	d1d6dce7          	0xd1d6dce7
  104af4:	cf41                	beqz	a4,104b8c <(null)+0x504>
  104af6:	d0277a8f          	0xd0277a8f
  104afa:	d1f698bf c89d6fe5 	0xc89d6fe5d1f698bf
  104b02:	cb19                	beqz	a4,104b18 <(null)+0x490>
  104b04:	009d                	addi	ra,ra,7
  104b06:	d1378d6f          	jal	s10,7d818 <(null)+0x5d810>
  104b0a:	cc30                	sw	a2,88(s0)
  104b0c:	8b25                	andi	a4,a4,9
  104b0e:	4fa0                	lw	s0,88(a5)
  104b10:	8bc1                	andi	a5,a5,16
  104b12:	2f14d2ef          	jal	t0,152602 <(null)+0x1a5f2>
  104b16:	c859                	beqz	s0,104bac <(null)+0x524>
  104b18:	91240f97          	auipc	t6,0x91240
  104b1c:	25e1                	jal	1051e4 <(null)+0xb5c>
  104b1e:	cce0                	sw	s0,92(s1)
  104b20:	8a95                	andi	a3,a3,5
  104b22:	8809                	andi	s0,s0,2
  104b24:	0149                	addi	sp,sp,18
  104b26:	3a59                	jal	1044bc <(null)+0x942>
  104b28:	d3d10df7          	0xd3d10df7
  104b2c:	d3776ec7          	fmsub.d	ft9,fa4,fs7,fs10,unknown
  104b30:	dea1                	beqz	a3,104a88 <(null)+0x400>
  104b32:	8d4c                	0x8d4c
  104b34:	884a                	mv	a6,s2
  104b36:	187e                	slli	a6,a6,0x3f
  104b38:	2cd4ae27          	fsw	fa3,732(s1)
  104b3c:	c5e1                	beqz	a1,104c04 <(null)+0x57c>
  104b3e:	d3b68b8f          	0xd3b68b8f
  104b42:	0109                	addi	sp,sp,2
  104b44:	d1779fe7          	0xd1779fe7
  104b48:	00e5                	addi	ra,ra,25
  104b4a:	8fdf d139 cb25      	0xcb25d1398fdf
  104b50:	034d                	addi	t1,t1,19
  104b52:	d939496f          	jal	s2,998e4 <(null)+0x798dc>
  104b56:	8cdc                	0x8cdc
  104b58:	8b7a                	mv	s6,t5
  104b5a:	1b4e                	slli	s6,s6,0x33
  104b5c:	ca92                	sw	tp,84(sp)
  104b5e:	c979                	beqz	a0,104c34 <(null)+0x5ac>
  104b60:	91240e77          	0x91240e77
  104b64:	d117dfe7          	0xd117dfe7
  104b68:	2d1621c7          	0x2d1621c7
  104b6c:	cbb1                	beqz	a5,104bc0 <(null)+0x538>
  104b6e:	caa9                	beqz	a3,104bc0 <(null)+0x538>
  104b70:	d1264ce7          	0xd1264ce7
  104b74:	03dd                	addi	t2,t2,23
  104b76:	d1f61f8f          	0xd1f61f8f
  104b7a:	8b72                	mv	s6,t3
  104b7c:	d1298c87          	0xd1298c87
  104b80:	ca91                	beqz	a3,104b94 <(null)+0x50c>
  104b82:	556edaa3          	0x556edaa3
  104b86:	c84a                	sw	s2,16(sp)
  104b88:	d1413dd7          	0xd1413dd7
  104b8c:	00f9                	addi	ra,ra,30
  104b8e:	4716                	lw	a4,68(sp)
  104b90:	c892                	sw	tp,80(sp)
  104b92:	c80a                	sw	sp,16(sp)
  104b94:	0ba2                	slli	s7,s7,0x8
  104b96:	18ea                	slli	a7,a7,0x3a
  104b98:	183e                	slli	a6,a6,0x2f
  104b9a:	be1f d156 5756      	0x5756d156be1f
  104ba0:	d1560d77          	0xd1560d77
  104ba4:	d156bee7          	0xd156bee7
  104ba8:	558e                	lw	a1,224(sp)
  104baa:	c85a                	sw	s6,16(sp)
  104bac:	d0e63347          	fmsub.s	ft6,fa2,fa4,fs10,rup
  104bb0:	d158e337          	lui	t1,0xd158e
  104bb4:	1812                	slli	a6,a6,0x24
  104bb6:	d0e68daf          	0xd0e68daf
  104bba:	bd1f d096 c59a      	0xc59ad096bd1f
  104bc0:	d0e632f7          	0xd0e632f7
  104bc4:	d0e6ece7          	0xd0e6ece7
  104bc8:	15e2                	slli	a1,a1,0x38
  104bca:	1586                	slli	a1,a1,0x21
  104bcc:	521a                	lw	tp,164(sp)
  104bce:	5076                	0x5076
  104bd0:	3db5                	jal	104a4c <(null)+0x3c4>
  104bd2:	ccd4                	sw	a3,28(s1)
  104bd4:	d197a517          	auipc	a0,0xd197a
  104bd8:	d1b78597          	auipc	a1,0xd1b78
  104bdc:	d114de87          	0xd114de87
  104be0:	d17f15f7          	0xd17f15f7
  104be4:	d014ee67          	0xd014ee67
  104be8:	d16fabc7          	fmsub.s	fs7,ft11,fs6,fs10,rdn
  104bec:	86a5                	srai	a3,a3,0x9
  104bee:	8839                	andi	s0,s0,14
  104bf0:	395d                	jal	1048a6 <(null)+0x21e>
  104bf2:	e6f9                	bnez	a3,104cc0 <(null)+0x638>
  104bf4:	d1c58d07          	0xd1c58d07
  104bf8:	2e390337          	lui	t1,0x2e390
  104bfc:	d0c7f307          	0xd0c7f307
  104c00:	d642                	sw	a6,44(sp)
  104c02:	d47a                	sw	t5,40(sp)
  104c04:	d4f2                	sw	t3,104(sp)
  104c06:	8914                	0x8914
  104c08:	8940                	0x8940
  104c0a:	ddd9880f          	0xddd9880f
  104c0e:	d17672cf          	fnmadd.s	ft5,fa2,fs7,fs10
  104c12:	1f95                	addi	t6,t6,-27
  104c14:	d0f7f2a7          	0xd0f7f2a7
  104c18:	79cd                	lui	s3,0xffff3
  104c1a:	77e9                	lui	a5,0xffffa
  104c1c:	4942                	lw	s2,16(sp)
  104c1e:	4b26                	lw	s6,72(sp)
  104c20:	4dc2                	lw	s11,16(sp)
  104c22:	4fc6                	lw	t6,80(sp)
  104c24:	2761                	jal	1053ac <(null)+0xd24>
  104c26:	d098f36f          	jal	t1,9492e <(null)+0x74926>
  104c2a:	f35f d0a6 1e69      	0x1e69d0a6f35f
  104c30:	7641                	lui	a2,0xffff0
  104c32:	4992                	lw	s3,4(sp)
  104c34:	4bfa                	lw	s7,156(sp)
  104c36:	4de2                	lw	s11,24(sp)
  104c38:	4fde                	lw	t6,212(sp)
  104c3a:	2fb5                	jal	1053b6 <(null)+0xd2e>
  104c3c:	05aa                	slli	a1,a1,0xa
  104c3e:	d0f52d8f          	0xd0f52d8f
  104c42:	09a2                	slli	s3,s3,0x8
  104c44:	4822                	lw	a6,8(sp)
  104c46:	d0f8916f          	jal	sp,8e954 <(null)+0x6e94c>
  104c4a:	2c5f d0f5 accf      	0xaccfd0f52c5f
  104c50:	d138                	sw	a4,96(a0)
  104c52:	d0f8fcbf 12970a62 	0x12970a62d0f8fcbf
  104c5a:	ac87d0eb          	0xac87d0eb
  104c5e:	d0e6                	sw	s9,96(sp)
  104c60:	d17b2ff7          	0xd17b2ff7
  104c64:	d0eb7fe7          	0xd0eb7fe7
  104c68:	0b1e                	slli	s6,s6,0x7
  104c6a:	4c86                	lw	s9,64(sp)
  104c6c:	0afe                	slli	s5,s5,0x1f
  104c6e:	d1d9124b          	fnmsub.s	ft4,fs2,ft9,fs10,rtz
  104c72:	4afa                	lw	s5,156(sp)
  104c74:	d12b6227          	0xd12b6227
  104c78:	7369                	lui	t1,0xffffa
  104c7a:	4eaa                	lw	t4,136(sp)
  104c7c:	2e65                	jal	105034 <(null)+0x9ac>
  104c7e:	2e29120b          	0x2e29120b
  104c82:	84e5                	srai	s1,s1,0x19
  104c84:	d12b6c67          	0xd12b6c67
  104c88:	4d62                	lw	s10,24(sp)
  104c8a:	d7bd                	beqz	a5,104bf8 <(null)+0x570>
  104c8c:	25a5                	jal	1052f4 <(null)+0xc6c>
  104c8e:	79a9                	lui	s3,0xfffea
  104c90:	4b72                	lw	s6,28(sp)
  104c92:	4916                	lw	s2,68(sp)
  104c94:	4f12                	lw	t5,4(sp)
  104c96:	4d16                	lw	s10,68(sp)
  104c98:	2e2912b7          	lui	t0,0x2e291
  104c9c:	2de1                	jal	105374 <(null)+0xcec>
  104c9e:	d098fc0f          	0xd098fc0f
  104ca2:	7d7f                	0x7d7f
  104ca4:	f2efd0ab          	0xf2efd0ab
  104ca8:	d15a                	sw	s6,160(sp)
  104caa:	77a9                	lui	a5,0xfffea
  104cac:	4bea                	lw	s7,152(sp)
  104cae:	4992                	lw	s3,4(sp)
  104cb0:	4ffa                	lw	t6,156(sp)
  104cb2:	4df6                	lw	s11,92(sp)
  104cb4:	2415                	jal	104ed8 <(null)+0x850>
  104cb6:	4d8a                	lw	s11,128(sp)
  104cb8:	4ff2                	lw	t6,28(sp)
  104cba:	49fa                	lw	s3,156(sp)
  104cbc:	4be2                	lw	s7,24(sp)
  104cbe:	14da                	slli	s1,s1,0x36
  104cc0:	d104                	sw	s1,32(a0)
  104cc2:	2e16314f          	fnmadd.q	ft2,fa2,ft1,ft5,rup
  104cc6:	8579                	srai	a0,a0,0x1e
  104cc8:	94be                	add	s1,s1,a5
  104cca:	104d                	c.nop	-13
  104ccc:	1cf1                	addi	s9,s9,-4
  104cce:	517c                	lw	a5,100(a0)
  104cd0:	2f368fe7          	jalr	t6,755(a3) # 72f3 <(null)+0x52f3>
  104cd4:	c582                	sw	zero,200(sp)
  104cd6:	f6e9                	bnez	a3,104ca0 <(null)+0x618>
  104cd8:	d8f1                	beqz	s1,104cac <(null)+0x624>
  104cda:	95f6                	add	a1,a1,t4
  104cdc:	4a5e                	lw	s4,212(sp)
  104cde:	8695                	srai	a3,a3,0x5
  104ce0:	24a1                	jal	104f28 <(null)+0x8a0>
  104ce2:	06d2                	slli	a3,a3,0x14
  104ce4:	0b3a                	slli	s6,s6,0xe
  104ce6:	d0f52eef          	jal	t4,579f4 <(null)+0x379ec>
  104cea:	4a9a                	lw	s5,132(sp)
  104cec:	d0f893c7          	fmsub.s	ft7,fa7,fa5,fs10,rtz
  104cf0:	d0f52eb7          	lui	t4,0xd0f52
  104cf4:	d138ae27          	fsw	fs3,-740(a7) # d3e1464c <(null)+0xd3cdc63c>
  104cf8:	d0f8fe97          	auipc	t4,0xd0f8f
  104cfc:	d0941087          	0xd0941087
  104d00:	d0f61877          	0xd0f61877
  104d04:	d1762a67          	0xd1762a67
  104d08:	d0f92757          	0xd0f92757
  104d0c:	d13b7747          	fmsub.s	fa4,fs6,fs3,fs10
  104d10:	0efe                	slli	t4,t4,0x1f
  104d12:	0ee2                	slli	t4,t4,0x18
  104d14:	4f62                	lw	t5,24(sp)
  104d16:	490a                	lw	s2,128(sp)
  104d18:	4b2e                	lw	s6,200(sp)
  104d1a:	d6e0                	sw	s0,108(a3)
  104d1c:	d6ac                	sw	a1,104(a3)
  104d1e:	166d                	addi	a2,a2,-5
  104d20:	906e                	c.add	zero,s11
  104d22:	1ad5                	addi	s5,s5,-11
  104d24:	5618                	lw	a4,40(a2)
  104d26:	9219                	srli	a2,a2,0x26
  104d28:	2f270907          	0x2f270907
  104d2c:	f201                	bnez	a2,104c2c <(null)+0x5a4>
  104d2e:	8255                	srli	a2,a2,0x15
  104d30:	d12797e7          	0xd12797e7
  104d34:	c232                	sw	a2,4(sp)
  104d36:	164d                	addi	a2,a2,-13
  104d38:	4bce                	lw	s7,208(sp)
  104d3a:	114e                	slli	sp,sp,0x33
  104d3c:	29a5                	jal	1051b4 <(null)+0xb2c>
  104d3e:	4bea                	lw	s7,152(sp)
  104d40:	4812                	lw	a6,4(sp)
  104d42:	4e1a                	lw	t3,132(sp)
  104d44:	4c02                	lw	s8,0(sp)
  104d46:	2bdd                	jal	10533c <(null)+0xcb4>
  104d48:	ccd14e07          	flq	ft8,-819(sp) # 2f166629 <(null)+0x2f02e619>
  104d4c:	ddf2                	sw	t3,248(sp)
  104d4e:	de4a                	sw	s2,60(sp)
  104d50:	dfa2                	sw	s0,252(sp)
  104d52:	d9dd046f          	jal	s0,d5aee <(null)+0xb5ae6>
  104d56:	ccda                	sw	s6,88(sp)
  104d58:	c2d2                	sw	s4,68(sp)
  104d5a:	c3ca                	sw	s2,196(sp)
  104d5c:	d109f607          	0xd109f607
  104d60:	1bcd                	addi	s7,s7,-13
  104d62:	1bd9                	addi	s7,s7,-10
  104d64:	7391                	lui	t2,0xfffe4
  104d66:	4cc2                	lw	s9,16(sp)
  104d68:	4efe                	lw	t4,220(sp)
  104d6a:	48ea                	lw	a7,152(sp)
  104d6c:	4afe                	lw	s5,220(sp)
  104d6e:	28a1                	jal	104dc6 <(null)+0x73e>
  104d70:	2e291697          	auipc	a3,0x2e291
  104d74:	73f9                	lui	t2,0xffffe
  104d76:	915815af          	0x915815af
  104d7a:	941f 90c8 278f      	0x278f90c8941f
  104d80:	d158                	sw	a4,36(a0)
  104d82:	a77f                	0xa77f
  104d84:	d168                	sw	a0,100(a0)
  104d86:	1a99                	addi	s5,s5,-26
  104d88:	d131                	beqz	a0,104ccc <(null)+0x644>
  104d8a:	d158640f          	0xd158640f
  104d8e:	90e9944f          	fnmadd.s	fs0,fs3,fa4,fs2,rtz
  104d92:	241f d1c7 1901      	0x1901d1c7241f
  104d98:	910b1717          	auipc	a4,0x910b1
  104d9c:	d17b2a07          	flw	fs4,-745(s6) # 212a9d17 <(null)+0x21171d07>
  104da0:	1a81                	addi	s5,s5,-32
  104da2:	5191                	li	gp,-28
  104da4:	909795e7          	0x909795e7
  104da8:	d1c625f7          	0xd1c625f7
  104dac:	912a9547          	fmsub.s	fa0,fs5,fs2,fs2,rtz
  104db0:	d0d675b7          	lui	a1,0xd0d67
  104db4:	1859                	addi	a6,a6,-10
  104db6:	49f6                	lw	s3,92(sp)
  104db8:	4bda                	lw	s7,148(sp)
  104dba:	4dd6                	lw	s11,84(sp)
  104dbc:	4fc2                	lw	t6,16(sp)
  104dbe:	d36d                	beqz	a4,104da0 <(null)+0x718>
  104dc0:	3c15                	jal	1047f4 <(null)+0x16c>
  104dc2:	f1b9                	bnez	a1,104d08 <(null)+0x680>
  104dc4:	81fd                	srli	a1,a1,0x1f
  104dc6:	2b2913bf d69114ff 	0xd69114ff2b2913bf
  104dce:	c41f d336 405a      	0x405ad336c41f
  104dd4:	4242                	lw	tp,16(sp)
  104dd6:	444a                	lw	s0,144(sp)
  104dd8:	d1f5                	beqz	a1,104dbc <(null)+0x734>
  104dda:	36b9                	jal	104928 <(null)+0x2a0>
  104ddc:	f1c1                	bnez	a1,104d5c <(null)+0x6d4>
  104dde:	8195                	srli	a1,a1,0x5
  104de0:	d12587a7          	0xd12587a7
  104de4:	4eca                	lw	t4,144(sp)
  104de6:	2bad                	jal	105360 <(null)+0xcd8>
  104de8:	c102                	sw	zero,128(sp)
  104dea:	d1d914db          	0xd1d914db
  104dee:	1971                	addi	s2,s2,-4
  104df0:	40ee                	lw	ra,216(sp)
  104df2:	141f d691 dd7f      	0xdd7fd691141f
  104df8:	2cd6                	fld	fs9,336(sp)
  104dfa:	11ba                	slli	gp,gp,0x2e
  104dfc:	91864427          	fsq	fs8,-1784(a2) # fffef908 <(null)+0xffeb78f8>
  104e00:	1f3e                	slli	t5,t5,0x2f
  104e02:	dd19                	beqz	a0,104d20 <(null)+0x698>
  104e04:	df81                	beqz	a5,104d1c <(null)+0x694>
  104e06:	d327843f d0266a7f 	0xd0266a7fd327843f
  104e0e:	d1f68b6f          	jal	s6,6db2c <(null)+0x4db24>
  104e12:	7355                	lui	t1,0xffff5
  104e14:	df4d                	beqz	a4,104dce <(null)+0x746>
  104e16:	dfc9                	beqz	a5,104db0 <(null)+0x728>
  104e18:	176d                	addi	a4,a4,-5
  104e1a:	941f d134 343f      	0x343fd134941f
  104e20:	d1d9                	beqz	a1,104da6 <(null)+0x71e>
  104e22:	9f1d                	0x9f1d
  104e24:	d0d4bcf7          	0xd0d4bcf7
  104e28:	9c21                	0x9c21
  104e2a:	2f07440f          	0x2f07440f
  104e2e:	deb9                	beqz	a3,104d8c <(null)+0x704>
  104e30:	91261b37          	lui	s6,0x91261
  104e34:	3979                	jal	104ad2 <(null)+0x44a>
  104e36:	349f d1d7 9f7d      	0x9f7dd1d7349f
  104e3c:	9ff1                	0x9ff1
  104e3e:	d0d5788f          	0xd0d5788f
  104e42:	2fc9                	jal	105614 <(null)+0x12>
  104e44:	cb71                	beqz	a4,104f18 <(null)+0x890>
  104e46:	d3b69e6f          	jal	t3,6eb80 <(null)+0x4eb78>
  104e4a:	98ac                	0x98ac
  104e4c:	0e9a                	slli	t4,t4,0x6
  104e4e:	bbff                	0xbbff
  104e50:	151f2fd7          	0x151f2fd7
  104e54:	d3d1                	beqz	a5,104dd8 <(null)+0x750>
  104e56:	9119152f          	0x9119152f
  104e5a:	8b9f d0d7 143d      	0x143dd0d78b9f
  104e60:	de1d                	beqz	a2,104d9e <(null)+0x716>
  104e62:	0fb2                	slli	t6,t6,0xc
  104e64:	d001                	beqz	s0,104d64 <(null)+0x6dc>
  104e66:	1615                	addi	a2,a2,-27
  104e68:	d909d287          	0xd909d287
  104e6c:	dfb1                	beqz	a5,104dc8 <(null)+0x740>
  104e6e:	91261a4f          	fnmadd.s	fs4,fa2,fs2,fs2,rtz
  104e72:	9e52                	add	t3,t3,s4
  104e74:	9858                	0x9858
  104e76:	0e72                	slli	t3,t3,0x1c
  104e78:	cfc2                	sw	a6,220(sp)
  104e7a:	4a9f d116 bd9f      	0xbd9fd1164a9f
  104e80:	dd092f37          	lui	t5,0xdd092
  104e84:	151d                	addi	a0,a0,-25
  104e86:	9c82                	jalr	s9
  104e88:	0e0e                	slli	t3,t3,0x3
  104e8a:	9d32                	add	s10,s10,a2
  104e8c:	dea1                	beqz	a3,104de4 <(null)+0x75c>
  104e8e:	023ece93          	xori	t4,t4,35
  104e92:	cc5a                	sw	s6,24(sp)
  104e94:	d15129a7          	fsw	fs5,-749(sp)
  104e98:	14a9                	addi	s1,s1,-22
  104e9a:	4b46                	lw	s6,80(sp)
  104e9c:	cc62                	sw	s8,24(sp)
  104e9e:	cefa                	sw	t5,92(sp)
  104ea0:	dd11                	beqz	a0,104dbc <(null)+0x734>
  104ea2:	19ff                	0x19ff
  104ea4:	9138                	0x9138
  104ea6:	9168996f          	jal	s2,8dfbc <(null)+0x6dfb4>
  104eaa:	28df d138 abcf      	0xabcfd13828df
  104eb0:	d128                	sw	a0,96(a0)
  104eb2:	911698bf d13868ff 	0xd13868ff911698bf
  104eba:	981f 90e4 a82f      	0xa82f90e4981f
  104ec0:	c23ad1c7          	fmsub.d	ft3,fs5,ft3,fs8,unknown
  104ec4:	14c9                	addi	s1,s1,-14
  104ec6:	df09                	beqz	a4,104de0 <(null)+0x758>
  104ec8:	90db1ad7          	0x90db1ad7
  104ecc:	d16b27c7          	fmsub.s	fa5,fs6,fs6,fs10,rdn
  104ed0:	17c5                	addi	a5,a5,-15
  104ed2:	5cd1                	li	s9,-12
  104ed4:	90991727          	0x90991727
  104ed8:	d1c92a37          	lui	s4,0xd1c92
  104edc:	cdd2                	sw	s4,216(sp)
  104ede:	d0c47a0f          	0xd0c47a0f
  104ee2:	46b6                	lw	a3,76(sp)
  104ee4:	912a9867          	0x912a9867
  104ee8:	1539                	addi	a0,a0,-18
  104eea:	4486                	lw	s1,64(sp)
  104eec:	4092                	lw	ra,4(sp)
  104eee:	4292                	lw	t0,4(sp)
  104ef0:	cd22                	sw	s0,152(sp)
  104ef2:	d1d918bb          	0xd1d918bb
  104ef6:	d136e92f          	0xd136e92f
  104efa:	5fd7964f          	fnmadd.q	fa2,fa5,ft9,fa1,rtz
  104efe:	8d95                	sub	a1,a1,a3
  104f00:	12e9                	addi	t0,t0,-6
  104f02:	4326                	lw	t1,72(sp)
  104f04:	3429                	jal	10490e <(null)+0x286>
  104f06:	de04                	sw	s1,56(a2)
  104f08:	d1963667          	0xd1963667
  104f0c:	d1b616c7          	fmsub.s	fa3,fa2,fs11,fs10,rtz
  104f10:	d114cdb7          	lui	s11,0xd114c
  104f14:	d0df0627          	0xd0df0627
  104f18:	d014fd97          	auipc	s11,0xd014f
  104f1c:	d16fb817          	auipc	a6,0xd16fb
  104f20:	9515                	srai	a0,a0,0x25
  104f22:	9a89                	andi	a3,a3,-30
  104f24:	2a11                	jal	105038 <(null)+0x9b0>
  104f26:	c41a                	sw	t1,8(sp)
  104f28:	c792                	sw	tp,204(sp)
  104f2a:	c10a                	sw	sp,128(sp)
  104f2c:	cfd91297          	auipc	t0,0xcfd91
  104f30:	914d1d37          	lui	s10,0x914d1
  104f34:	7911                	lui	s2,0xfffe4
  104f36:	d89a                	sw	t1,112(sp)
  104f38:	da92                	sw	tp,116(sp)
  104f3a:	db8a                	sw	sp,244(sp)
  104f3c:	d1347f07          	0xd1347f07
  104f40:	13c1                	addi	t2,t2,-16
  104f42:	feff                	0xfeff
  104f44:	d0f6                	sw	t4,96(sp)
  104f46:	7789                	lui	a5,0xfffe2
  104f48:	4412                	lw	s0,4(sp)
  104f4a:	4676                	lw	a2,92(sp)
  104f4c:	4072                	0x4072
  104f4e:	424e                	lw	tp,208(sp)
  104f50:	18fe                	slli	a7,a7,0x3f
  104f52:	1686                	slli	a3,a3,0x21
  104f54:	2421                	jal	10515c <(null)+0xad4>
  104f56:	2e249e8f          	0x2e249e8f
  104f5a:	77d1                	lui	a5,0xffff4
  104f5c:	90f51007          	0x90f51007
  104f60:	91789c77          	0x91789c77
  104f64:	d0f52f67          	0xd0f52f67
  104f68:	d168a1d7          	0xd168a1d7
  104f6c:	1135                	addi	sp,sp,-19
  104f6e:	da29                	beqz	a2,104ec0 <(null)+0x838>
  104f70:	d0f56fe7          	0xd0f56fe7
  104f74:	90e41f27          	0x90e41f27
  104f78:	d1c7af37          	lui	t5,0xd1c7a
  104f7c:	d0d7ff07          	0xd0d7ff07
  104f80:	913b1f77          	0x913b1f77
  104f84:	d17b2267          	0xd17b2267
  104f88:	1225                	addi	tp,tp,-23
  104f8a:	59b1                	li	s3,-20
  104f8c:	90961dc7          	fmsub.s	fs11,fa2,fs1,fs2,rtz
  104f90:	d1c6ad97          	auipc	s11,0xd1c6a
  104f94:	911d96a7          	0x911d96a7
  104f98:	d0d6fd97          	auipc	s11,0xd0d6f
  104f9c:	912d9687          	0x912d9687
  104fa0:	41f6                	lw	gp,92(sp)
  104fa2:	43b2                	lw	t2,12(sp)
  104fa4:	45ae                	lw	a1,200(sp)
  104fa6:	47c2                	lw	a5,16(sp)
  104fa8:	156e                	slli	a0,a0,0x3b
  104faa:	22a9                	jal	1050f4 <(null)+0xa6c>
  104fac:	f881                	bnez	s1,104ebc <(null)+0x834>
  104fae:	88d5                	andi	s1,s1,21
  104fb0:	29349667          	0x29349667
  104fb4:	d6911d87          	0xd6911d87
  104fb8:	c52655c7          	0xc52655c7
  104fbc:	1a5e                	slli	s4,s4,0x37
  104fbe:	3fcd                	jal	104fb0 <(null)+0x928>
  104fc0:	f9b1                	bnez	a1,104f14 <(null)+0x88c>
  104fc2:	89e5                	andi	a1,a1,25
  104fc4:	d12d0337          	lui	t1,0xd12d0
  104fc8:	4612                	lw	a2,4(sp)
  104fca:	4476                	lw	s0,92(sp)
  104fcc:	4272                	lw	tp,28(sp)
  104fce:	404e                	0x404e
  104fd0:	1ab2                	slli	s5,s5,0x2c
  104fd2:	2919                	jal	1053e8 <(null)+0xd60>
  104fd4:	d9b2                	sw	a2,240(sp)
  104fd6:	d1d91c2b          	0xd1d91c2b
  104fda:	11a1                	addi	gp,gp,-24
  104fdc:	505e                	0x505e
  104fde:	d6911caf          	0xd6911caf
  104fe2:	c366d1af          	0xc366d1af
  104fe6:	d3d11ccf          	fnmadd.d	fs9,ft2,ft9,fs10,rtz
  104fea:	dcdf d334 189e      	0x189ed334dcdf
  104ff0:	da51                	beqz	a2,104f84 <(null)+0x8fc>
  104ff2:	d959                	beqz	a0,104f88 <(null)+0x900>
  104ff4:	d336d1f7          	0xd336d1f7
  104ff8:	18ca                	slli	a7,a7,0x32
  104ffa:	d1d648cf          	fnmadd.s	fa7,fa2,ft9,fs10,rmm
  104ffe:	d8e9                	beqz	s1,104fd0 <(null)+0x948>
  105000:	d0249157          	0xd0249157
  105004:	d1f673c7          	fmsub.s	ft7,fa2,ft11,fs10
  105008:	043d                	addi	s0,s0,15
  10500a:	a4b5                	j	105276 <(null)+0xbee>
  10500c:	a721                	j	105714 <(null)+0x112>
  10500e:	6cb1                	lui	s9,0xc
  105010:	d127e137          	lui	sp,0xd127e
  105014:	a048                	fsd	fa0,128(s0)
  105016:	e74d                	bnez	a4,1050c0 <(null)+0xa38>
  105018:	23f8                	fld	fa4,192(a5)
  10501a:	e7e9                	bnez	a5,1050e4 <(null)+0xa5c>
  10501c:	2f14bed7          	0x2f14bed7
  105020:	a481                	j	105260 <(null)+0xbd8>
  105022:	63ff                	0x63ff
  105024:	9134                	0x9134
  105026:	4909                	li	s2,2
  105028:	a3b8                	fsd	fa4,64(a5)
  10502a:	e63d                	bnez	a2,105098 <(null)+0xa10>
  10502c:	e7b1                	bnez	a5,105078 <(null)+0x9f0>
  10502e:	6d61                	lui	s10,0x18
  105030:	5601                	li	a2,-32
  105032:	619f d3d1 812f      	0x812fd3d1619f
  105038:	d374                	sw	a3,100(a4)
  10503a:	b289                	j	10497c <(null)+0x2f4>
  10503c:	e174                	fsw	fa3,68(a0)
  10503e:	e7e2                	fsw	fs8,204(sp)
  105040:	7626                	flw	fa2,104(sp)
  105042:	2cd743cf          	0x2cd743cf
  105046:	a809                	j	105058 <(null)+0x9d0>
  105048:	d3b66657          	0xd3b66657
  10504c:	6d2d                	lui	s10,0xb
  10504e:	d177f3cf          	fnmadd.s	ft7,fa5,fs7,fs10
  105052:	6c8d                	lui	s9,0x3
  105054:	d129e3a7          	0xd129e3a7
  105058:	a7fd                	j	105846 <(null)+0x126>
  10505a:	6fe1                	lui	t6,0x18
  10505c:	d9292857          	0xd9292857
  105060:	e004                	fsw	fs1,0(s0)
  105062:	e712                	fsw	ft4,140(sp)
  105064:	7736                	flw	fa4,108(sp)
  105066:	a67a                	fsd	ft10,264(sp)
  105068:	a5a1                	j	1056b0 <(null)+0xae>
  10506a:	62df 9134 b04f      	0xb04f913462df
  105070:	cdafd167          	0xcdafd167
  105074:	2d66                	fld	fs10,88(sp)
  105076:	a759                	j	1057fc <(null)+0xdc>
  105078:	a6f1                	j	105444 <(null)+0xdbc>
  10507a:	d136a0cf          	fnmadd.s	ft1,fa3,fs3,fs10,rdn
  10507e:	6f71                	lui	t5,0x1c
  105080:	d1f6f057          	0xd1f6f057
  105084:	e40a                	fsw	ft2,8(sp)
  105086:	d139e36f          	jal	t1,a3d98 <(null)+0x83d90>
  10508a:	a6b9                	j	1053d8 <(null)+0xd50>
  10508c:	65deb69b          	0x65deb69b
  105090:	a412                	fsd	ft4,8(sp)
  105092:	d14151bf 2b4e6c91 	0x2b4e6c91d14151bf
  10509a:	a43a                	fsd	fa4,8(sp)
  10509c:	a532                	fsd	fa2,136(sp)
  10509e:	9135610f          	0x9135610f
  1050a2:	e17f                	0xe17f
  1050a4:	9118                	0x9118
  1050a6:	d135506f          	j	5adb8 <(null)+0x3adb0>
  1050aa:	d35f d128 6c3d      	0x6c3dd128d35f
  1050b0:	a551                	j	105734 <(null)+0x14>
  1050b2:	d13510ef          	jal	ra,56dc4 <(null)+0x36dbc>
  1050b6:	90e7602f          	0x90e7602f
  1050ba:	d1c7d03f 6cddab8a 	0x6cddab8ad1c7d03f
  1050c2:	a719                	j	1057c8 <(null)+0xa8>
  1050c4:	90db6167          	0x90db6167
  1050c8:	d11b5fd7          	0xd11b5fd7
  1050cc:	910762c7          	fmsub.s	ft5,fa4,fa6,fs2,unknown
  1050d0:	24d9                	jal	105396 <(null)+0xd0e>
  1050d2:	90996f3f d1c9520f 	0xd1c9520f90996f3f
  1050da:	a40a                	fsd	ft2,8(sp)
  1050dc:	d0c40207          	0xd0c40207
  1050e0:	3ebe                	fld	ft9,488(sp)
  1050e2:	eb7f                	0xeb7f
  1050e4:	911d                	srli	a0,a0,0x27
  1050e6:	917deb6f          	jal	s6,e39fc <(null)+0xc39f4>
  1050ea:	3cde                	fld	fs9,496(sp)
  1050ec:	389e                	fld	fa7,480(sp)
  1050ee:	3a92                	fld	fs5,288(sp)
  1050f0:	6632                	flw	fa2,12(sp)
  1050f2:	6806                	flw	fa6,64(sp)
  1050f4:	5935                	li	s2,-19
  1050f6:	a058                	fsd	fa4,128(s0)
  1050f8:	d197c9a7          	fsq	fs9,-749(a5) # ffff3d13 <(null)+0xffebbd03>
  1050fc:	d1b7e907          	0xd1b7e907
  105100:	d1673677          	0xd1673677
  105104:	d17f7e67          	0xd17f7e67
  105108:	d0170657          	0xd0170657
  10510c:	d11fc057          	0xd11fc057
  105110:	ed55                	bnez	a0,1051cc <(null)+0xb44>
  105112:	e3c9                	bnez	a5,105194 <(null)+0xb0c>
  105114:	52e1                	li	t0,-8
  105116:	2b4a                	fld	fs6,144(sp)
  105118:	2972                	fld	fs2,280(sp)
  10511a:	2f7a                	fld	ft10,408(sp)
  10511c:	a2e5                	j	105304 <(null)+0xc7c>
  10511e:	5ac5                	li	s5,-15
  105120:	80b1                	srli	s1,s1,0xc
  105122:	67df 2e34 e74f      	0xe74f2e3467df
  105128:	d1c5                	beqz	a1,1050c8 <(null)+0xa40>
  10512a:	6a41                	lui	s4,0x10
  10512c:	a342                	fsd	fa6,384(sp)
  10512e:	a2fa                	fsd	ft10,320(sp)
  105130:	a3a2                	fsd	fs0,448(sp)
  105132:	c5d6f9ef          	jal	s3,74d8e <(null)+0x54d86>
  105136:	d098872f          	0xd098872f
  10513a:	051f d106 870f      	0x870fd106051f
  105140:	d046                	sw	a7,32(sp)
  105142:	69c9                	lui	s3,0x12
  105144:	6bc1                	lui	s7,0x10
  105146:	d0f484ef          	jal	s1,4de54 <(null)+0x2de4c>
  10514a:	0cc9                	addi	s9,s9,18
  10514c:	09a1                	addi	s3,s3,8
  10514e:	3c0a                	fld	fs8,160(sp)
  105150:	3e1e                	fld	ft8,480(sp)
  105152:	380a                	fld	fa6,160(sp)
  105154:	3a26                	fld	fs4,104(sp)
  105156:	6e96                	flw	ft9,68(sp)
  105158:	39d6fb47          	fmsub.s	fs6,fa3,ft9,ft7
  10515c:	a0e1                	j	105224 <(null)+0xb9c>
  10515e:	aee9                	j	105538 <(null)+0x4a>
  105160:	391e91ab          	0x391e91ab
  105164:	0319                	addi	t1,t1,6
  105166:	3cc2                	fld	fs9,48(sp)
  105168:	3e8a                	fld	ft9,160(sp)
  10516a:	388e                	fld	fa7,224(sp)
  10516c:	3a92                	fld	fs5,288(sp)
  10516e:	363e9193          	0x363e9193
  105172:	9158643f 90e662af 	0x90e662af9158643f
  10517a:	599f d168 560f      	0x560fd168599f
  105180:	d1b6                	sw	a3,224(sp)
  105182:	6a7f                	0x6a7f
  105184:	90d2                	add	ra,ra,s4
  105186:	a209                	j	105288 <(null)+0xc00>
  105188:	d1681607          	0xd1681607
  10518c:	d1c25767          	0xd1c25767
  105190:	9097eab7          	lui	s5,0x9097e
  105194:	6a1d                	lui	s4,0x7
  105196:	d0c7dd2f          	0xd0c7dd2f
  10519a:	ec9f 9179 a969      	0xa9699179ec9f
  1051a0:	2689                	jal	1054e2 <(null)+0xe5a>
  1051a2:	dcdf d1c9 656f      	0x656fd1c9dcdf
  1051a8:	0cdf9047          	0xcdf9047
  1051ac:	e54fd03f 67bb9016 	0x67bb9016e54fd03f
  1051b4:	d1d9                	beqz	a1,10513a <(null)+0xab2>
  1051b6:	39f6                	fld	fs3,376(sp)
  1051b8:	3b86                	fld	fs7,96(sp)
  1051ba:	3dba                	fld	fs11,424(sp)
  1051bc:	3fce                	fld	ft11,240(sp)
  1051be:	6a95                	lui	s5,0x5
  1051c0:	2329                	jal	1056ca <(null)+0xc8>
  1051c2:	6a7f                	0x6a7f
  1051c4:	90f5                	srli	s1,s1,0x3d
  1051c6:	9138e46f          	jal	s0,93ad8 <(null)+0x73ad0>
  1051ca:	54df d0f5 dacf      	0xdacfd0f554df
  1051d0:	d138                	sw	a4,96(a0)
  1051d2:	6945                	lui	s2,0x11
  1051d4:	a1c1                	j	105694 <(null)+0x92>
  1051d6:	177f                	0x177f
  1051d8:	d0f5                	beqz	s1,1051bc <(null)+0xb34>
  1051da:	d1c254bf 910b658f 	0x910b658fd1c254bf
  1051e2:	8a7f                	0x8a7f
  1051e4:	d0e6                	sw	s9,96(sp)
  1051e6:	d10b59ef          	jal	s3,ba6f6 <(null)+0x9a6ee>
  1051ea:	a339                	j	1056f8 <(null)+0xf6>
  1051ec:	90e7e547          	fmsub.s	fa0,fa5,fa4,fs2,unknown
  1051f0:	d1d8e7e7          	0xd1d8e7e7
  1051f4:	d1c9d607          	0xd1c9d607
  1051f8:	911de597          	auipc	a1,0x911de
  1051fc:	d0948607          	0xd0948607
  105200:	916769f7          	0x916769f7
  105204:	372e                	fld	fa4,232(sp)
  105206:	353e                	fld	fa0,488(sp)
  105208:	330a                	fld	ft6,160(sp)
  10520a:	3172                	fld	ft2,312(sp)
  10520c:	5ab9                	li	s5,-18
  10520e:	d0d489cf          	fnmadd.s	fs3,fs1,fa3,fs10,rne
  105212:	d00489bf 38c16495 	0x38c16495d00489bf
  10521a:	0cfe9c43          	0xcfe9c43
  10521e:	d2d0642f          	0xd2d0642f
  105222:	0005                	c.nop	1
  105224:	0a0d                	addi	s4,s4,3
  105226:	37a2                	fld	fa5,40(sp)
  105228:	35b2                	fld	fa1,296(sp)
  10522a:	33ba                	fld	ft7,424(sp)
  10522c:	31a2                	fld	ft3,40(sp)
  10522e:	f1d4                	fsw	fa3,36(a1)
  105230:	aa48                	fsd	fa0,144(a2)
  105232:	2e16ca0f          	0x2e16ca0f
  105236:	fe39                	bnez	a2,105194 <(null)+0xb0c>
  105238:	eefe                	fsw	ft11,92(sp)
  10523a:	6b0d                	lui	s6,0x3
  10523c:	66b5                	lui	a3,0xd
  10523e:	2a30                	fld	fa2,80(a2)
  105240:	2f2975a7          	0x2f2975a7
  105244:	5441                	li	s0,-16
  105246:	302a                	fld	ft0,168(sp)
  105248:	327e                	fld	ft4,504(sp)
  10524a:	346a                	fld	fs0,184(sp)
  10524c:	3646                	fld	fa2,112(sp)
  10524e:	62f6                	flw	ft5,92(sp)
  105250:	2e246997          	auipc	s3,0x2e246
  105254:	085e9d7b          	0x85e9d7b
  105258:	0fe1                	addi	t6,t6,24
  10525a:	3032                	fld	ft0,296(sp)
  10525c:	325a                	fld	ft4,432(sp)
  10525e:	345e                	fld	fs0,496(sp)
  105260:	36a2                	fld	fa3,40(sp)
  105262:	5f65                	li	t5,-7
  105264:	36aa                	fld	fa3,168(sp)
  105266:	348a                	fld	fs1,160(sp)
  105268:	32b2                	fld	ft5,296(sp)
  10526a:	30ba                	fld	ft1,424(sp)
  10526c:	f0dc                	fsw	fa5,36(s1)
  10526e:	ab30                	fsd	fa2,80(a4)
  105270:	2e16cb07          	flq	fs6,737(a3) # d2e1 <(null)+0x52e1>
  105274:	ff31                	bnez	a4,1051d0 <(null)+0xb48>
  105276:	efc6                	fsw	fa7,220(sp)
  105278:	6a05                	lui	s4,0x1
  10527a:	67ad                	lui	a5,0xb
  10527c:	2b38                	fld	fa4,80(a4)
  10527e:	755f 2f29 5791      	0x57912f29755f
  105284:	91586be7          	0x91586be7
  105288:	90e66057          	0x90e66057
  10528c:	d16856c7          	fmsub.s	fa3,fa6,fs6,fs10,unknown
  105290:	d01659b7          	lui	s3,0xd0165
  105294:	90cf66a7          	0x90cf66a7
  105298:	ae71                	j	105634 <(null)+0x32>
  10529a:	d1681a4f          	fnmadd.s	fs4,fa6,fs6,fs10,rtz
  10529e:	d1cf5b2f          	0xd1cf5b2f
  1052a2:	edff                	0xedff
  1052a4:	66d59097          	auipc	ra,0x66d59
  1052a8:	d1b7d157          	0xd1b7d157
  1052ac:	917261c7          	fmsub.s	ft3,ft4,fs7,fs2,unknown
  1052b0:	a551                	j	105934 <(null)+0x214>
  1052b2:	2ac1                	jal	105482 <(null)+0xdfa>
  1052b4:	d1c25007          	0xd1c25007
  1052b8:	90476917          	auipc	s2,0x90476
  1052bc:	d02f8007          	0xd02f8007
  1052c0:	9006e8f7          	0x9006e8f7
  1052c4:	d1d96a63          	bltu	s2,t4,1047d8 <(null)+0x150>
  1052c8:	340e                	fld	fs0,224(sp)
  1052ca:	3642                	fld	fa2,48(sp)
  1052cc:	3066                	fld	ft0,120(sp)
  1052ce:	3206                	fld	ft4,96(sp)
  1052d0:	672d                	lui	a4,0xb
  1052d2:	2f2d                	jal	105a0c <(null)+0xca>
  1052d4:	90f56627          	0x90f56627
  1052d8:	9138e817          	auipc	a6,0x9138e
  1052dc:	d0f55887          	0xd0f55887
  1052e0:	d138d677          	0xd138d677
  1052e4:	659d                	lui	a1,0x7
  1052e6:	ad09                	j	1058f8 <(null)+0x1d8>
  1052e8:	d0f51b87          	0xd0f51b87
  1052ec:	d1cf5867          	0xd1cf5867
  1052f0:	d0e68637          	lui	a2,0xd0e68
  1052f4:	910b6927          	0x910b6927
  1052f8:	d10b5817          	auipc	a6,0xd10b5
  1052fc:	90e7e907          	0x90e7e907
  105300:	d1d8ec27          	0xd1d8ec27
  105304:	d1c25047          	fmsub.s	ft0,ft4,ft8,fs10,unknown
  105308:	911dee57          	0x911dee57
  10530c:	d1290fc7          	fmsub.s	ft11,fs2,fs2,fs10,rne
  105310:	91276fb7          	lui	t6,0x91276
  105314:	337e                	fld	ft6,504(sp)
  105316:	317e                	fld	ft2,504(sp)
  105318:	374a                	fld	fa4,176(sp)
  10531a:	3532                	fld	fa0,296(sp)
  10531c:	67be                	flw	fa5,204(sp)
  10531e:	b81a                	fsd	ft6,48(sp)
  105320:	28cd                	jal	105412 <(null)+0xd8a>
  105322:	b3416823          	0xb3416823
  105326:	2e946ccf          	fnmadd.q	fs9,fs0,fs1,ft5,unknown
  10532a:	6f7f                	0x6f7f
  10532c:	d3d1                	beqz	a5,1052b0 <(null)+0xc28>
  10532e:	d0251fef          	jal	t6,56830 <(null)+0x36828>
  105332:	d3252ebf 60372ea9 	0x60372ea9d3252ebf
  10533a:	d2d0                	sw	a2,36(a3)
  10533c:	d1f77d27          	0xd1f77d27
  105340:	d3250c77          	0xd3250c77
  105344:	9176ee67          	0x9176ee67
  105348:	bbc1                	j	105118 <(null)+0xa90>
  10534a:	6edf d327 eb99      	0xeb99d3276edf
  105350:	7b96                	flw	fs7,100(sp)
  105352:	dd29f86f          	jal	a6,a4924 <(null)+0x8491c>
  105356:	ecd4                	fsw	fa3,28(s1)
  105358:	79ce                	flw	fs3,240(sp)
  10535a:	bbba                	fsd	fa4,496(sp)
  10535c:	fa1d                	bnez	a2,105292 <(null)+0xc0a>
  10535e:	d176fe8f          	0xd176fe8f
  105362:	2f24c1ef          	jal	gp,151654 <(null)+0x19644>
  105366:	ea8d                	bnez	a3,105398 <(null)+0xd10>
  105368:	eaba                	fsw	fa4,84(sp)
  10536a:	a939                	j	105788 <(null)+0x68>
  10536c:	f4a8                	fsw	fa0,104(s1)
  10536e:	543eb913          	sltiu	s2,t4,1347
  105372:	c54526ef          	jal	a3,577c6 <(null)+0x377be>
  105376:	60cd                	lui	ra,0x13
  105378:	e8f5                	bnez	s1,10546c <(null)+0xde4>
  10537a:	d3d16e3f d3252e0f 	0xd3252e0fd3d16e3f
  105382:	f708                	fsw	fa0,40(a4)
  105384:	69b2                	flw	fs3,12(sp)
  105386:	a609                	j	105688 <(null)+0x86>
  105388:	a831                	j	1053a4 <(null)+0xd1c>
  10538a:	db262e0f          	0xdb262e0f
  10538e:	6816                	flw	fa6,68(sp)
  105390:	d1d6b967          	0xd1d6b967
  105394:	a841                	j	105424 <(null)+0xd9c>
  105396:	d0251f8f          	0xd0251f8f
  10539a:	d1f6fcbf aa1d0ead 	0xaa1d0eadd1f6fcbf
  1053a2:	a899                	j	1053f8 <(null)+0xd70>
  1053a4:	621d                	lui	tp,0x7
  1053a6:	d1076fef          	jal	t6,7b8b6 <(null)+0x5b8ae>
  1053aa:	aeb0                	fsd	fa2,88(a3)
  1053ac:	e8a5                	bnez	s1,10541c <(null)+0xd94>
  1053ae:	2da0                	fld	fs0,88(a1)
  1053b0:	e9c1                	bnez	a1,105440 <(null)+0xdb8>
  1053b2:	2f34b06f          	j	150ea4 <(null)+0x18e94>
  1053b6:	aad9                	j	10558c <(null)+0x9e>
  1053b8:	91246d17          	auipc	s10,0x91246
  1053bc:	4f01                	li	t5,0
  1053be:	d0c48f0f          	0xd0c48f0f
  1053c2:	8eff                	0x8eff
  1053c4:	d034                	sw	a3,96(s0)
  1053c6:	63d5                	lui	t2,0x15
  1053c8:	09d4e187          	0x9d4e187
  1053cc:	51a9                	li	gp,-22
  1053ce:	bb4a                	fsd	fs2,432(sp)
  1053d0:	2b41                	jal	105960 <(null)+0x1e>
  1053d2:	86416be3          	bltu	sp,tp,104c48 <(null)+0x5c0>
  1053d6:	d3d46e0f          	0xd3d46e0f
  1053da:	59c9                	li	s3,-14
  1053dc:	bb32                	fsd	fa2,432(sp)
  1053de:	2b79                	jal	10597c <(null)+0x3a>
  1053e0:	87616b2b          	0x87616b2b
  1053e4:	d5d46ec7          	0xd5d46ec7
  1053e8:	518d                	li	gp,-29
  1053ea:	bbfa                	fsd	ft10,496(sp)
  1053ec:	84216b1b          	0x84216b1b
  1053f0:	d7d46e97          	auipc	t4,0xd7d46
  1053f4:	51cd                	li	gp,-13
  1053f6:	b839                	j	104c14 <(null)+0x58c>
  1053f8:	d3076d17          	auipc	s10,0xd3076
  1053fc:	f69c                	fsw	fa5,40(a3)
  1053fe:	a9e5                	j	1058f6 <(null)+0x1d6>
  105400:	d106f1f7          	0xd106f1f7
  105404:	b08c                	fsd	fa1,32(s1)
  105406:	e675                	bnez	a2,1054f2 <(null)+0x4>
  105408:	e6c1                	bnez	a3,105490 <(null)+0xe08>
  10540a:	32f4                	fld	fa3,224(a3)
  10540c:	2f162e97          	auipc	t4,0x2f162
  105410:	e72d                	bnez	a4,10547a <(null)+0xdf2>
  105412:	4ec9                	li	t4,18
  105414:	b2d4                	fsd	fa3,160(a3)
  105416:	dc1f 2e16 f71f      	0xf71f2e16dc1f
  10541c:	d166                	sw	s9,160(sp)
  10541e:	d177e28f          	0xd177e28f
  105422:	2cff                	0x2cff
  105424:	d139                	beqz	a0,10536a <(null)+0xce2>
  105426:	d0d7926f          	jal	tp,7f132 <(null)+0x5f12a>
  10542a:	d10254cf          	fnmadd.s	fs1,ft4,fa6,fs10,unknown
  10542e:	e659                	bnez	a2,1054bc <(null)+0xe34>
  105430:	46dd                	li	a3,23
  105432:	b354                	fsd	fa3,160(a4)
  105434:	f6c5                	bnez	a3,1053dc <(null)+0xd54>
  105436:	f759                	bnez	a4,1053c4 <(null)+0xd3c>
  105438:	d1681d97          	auipc	s11,0xd1681
  10543c:	4659                	li	a2,22
  10543e:	d3d172af          	0xd3d172af
  105442:	117f                	0x117f
  105444:	d315                	beqz	a4,105368 <(null)+0xce0>
  105446:	a879                	j	1054e4 <(null)+0xe5c>
  105448:	f73a                	fsw	fa4,172(sp)
  10544a:	f0b4                	fsw	fa3,96(s1)
  10544c:	670e                	flw	fa4,192(sp)
  10544e:	527f                	0x527f
  105450:	2ed6                	fld	ft9,336(sp)
  105452:	b559                	j	1052d8 <(null)+0xc50>
  105454:	d2d6fd27          	0xd2d6fd27
  105458:	7e71                	lui	t3,0xffffc
  10545a:	621f d116 1c0f      	0x1c0fd116621f
  105460:	d138                	sw	a4,96(a0)
  105462:	e880                	fsw	fs0,16(s1)
  105464:	663a                	flw	fa2,140(sp)
  105466:	b785                	j	1053c6 <(null)+0xd3e>
  105468:	7fad                	lui	t6,0xfffeb
  10546a:	d534368f          	0xd534368f
  10546e:	a45a                	fsd	fs6,8(sp)
  105470:	f7da                	fsw	fs6,236(sp)
  105472:	f04c                	fsw	fa1,36(s0)
  105474:	b5d1                	j	105338 <(null)+0xcb0>
  105476:	67fe                	flw	fa5,220(sp)
  105478:	d155a197          	auipc	gp,0xd155a
  10547c:	91247207          	0x91247207
  105480:	2f565e67          	0x2f565e67
  105484:	b411                	j	104e88 <(null)+0x800>
  105486:	b509                	j	105288 <(null)+0xc00>
  105488:	d1263307          	fld	ft6,-750(a2) # d0e67d12 <(null)+0xd0d2fd02>
  10548c:	7c3d                	lui	s8,0xfffef
  10548e:	d1f6606f          	j	6c1ac <(null)+0x4c1a4>
  105492:	e31f d1f6 eb54      	0xeb54d1f6e31f
  105498:	664e                	flw	fa2,208(sp)
  10549a:	b6f9                	j	105068 <(null)+0x9e0>
  10549c:	22ceb6db          	0x22ceb6db
  1054a0:	a4d2                	fsd	fs4,72(sp)
  1054a2:	417f                	0x417f
  1054a4:	d0f1                	beqz	s1,105468 <(null)+0xde0>
  1054a6:	b709                	j	1053a8 <(null)+0xd20>
  1054a8:	7c69                	lui	s8,0xffffa
  1054aa:	2b86                	fld	fs7,64(sp)
  1054ac:	65de869b          	0x65de869b
  1054b0:	b15c                	fsd	fa5,160(a0)
  1054b2:	d197de0f          	0xd197de0f
  1054b6:	d0d7f5af          	0xd0d7f5af
  1054ba:	a31f d154 ee0f      	0xee0fd154a31f
  1054c0:	d119                	beqz	a0,1053c6 <(null)+0xd3e>
  1054c2:	92ff                	0x92ff
  1054c4:	d0c4                	sw	s1,36(s1)
  1054c6:	577f                	0x577f
  1054c8:	d162                	sw	s8,160(sp)
  1054ca:	f73d                	bnez	a4,105438 <(null)+0xdb0>
  1054cc:	f4b1                	bnez	s1,105418 <(null)+0xd90>
  1054ce:	4d59                	li	s10,22
  1054d0:	a5a2                	fsd	fs0,200(sp)
  1054d2:	2e29703b          	0x2e29703b
  1054d6:	e535                	bnez	a0,105542 <(null)+0x54>
  1054d8:	7d89                	lui	s11,0xfffe2
  1054da:	7ef9                	lui	t4,0xffffe
  1054dc:	2c5e                	fld	fs8,464(sp)
  1054de:	613e8753          	0x613e8753
  1054e2:	2c9a                	fld	fs9,384(sp)
  1054e4:	2e82                	fld	ft9,0(sp)
  1054e6:	288a                	fld	fa7,128(sp)
  1054e8:	2ab2                	fld	fs5,264(sp)
  1054ea:	64be8783          	lb	a5,1611(t4) # ffffe64b <(null)+0xffec663b>
  1054ee:	b3f0                	fsd	fa2,224(a5)
  1054f0:	b7cc                	fsd	fa1,168(a5)
  1054f2:	b78c                	fsd	fa1,40(a5)
  1054f4:	b3d0                	fsd	fa2,160(a5)
  1054f6:	83b1                	srli	a5,a5,0xc
  1054f8:	30ca                	fld	ft1,176(sp)
  1054fa:	36c6                	fld	fa3,112(sp)
  1054fc:	38da                	fld	fa7,432(sp)
  1054fe:	3ed6                	fld	ft9,368(sp)
  105500:	9201                	srli	a2,a2,0x20
  105502:	e7df d1c7 353a      	0x353ad1c7e7df
  105508:	3d02                	fld	fs10,32(sp)
  10550a:	233e                	fld	ft6,456(sp)
  10550c:	d0c6a667          	0xd0c6a667
  105510:	2172                	fld	ft2,280(sp)
  105512:	336e                	fld	ft6,248(sp)
  105514:	2e367787          	0x2e367787
  105518:	df16a247          	fmsub.q	ft4,fa3,fa7,fs11,rdn
  10551c:	d20677a7          	0xd20677a7
  105520:	d027a4d7          	0xd027a4d7
  105524:	d316a2b7          	lui	t0,0xd316a
  105528:	b0b5                	j	104d94 <(null)+0x70c>
  10552a:	78b9                	lui	a7,0xfffee
  10552c:	902427e7          	0x902427e7
  105530:	51d17533          	0x51d17533
  105534:	d1714727          	fsq	fs7,-754(sp) # d127dd0e <(null)+0xd1145cfe>
  105538:	7869                	lui	a6,0xffffa
  10553a:	759f 9171 7875      	0x78759171759f
  105540:	a4a2                	fsd	fs0,72(sp)
  105542:	a03a                	fsd	fa4,0(sp)
  105544:	9545                	srai	a0,a0,0x31
  105546:	748a                	flw	fs1,160(sp)
  105548:	f2f2                	fsw	ft8,100(sp)
  10554a:	93f9                	srli	a5,a5,0x3e
  10554c:	76e1                	lui	a3,0xffff8
  10554e:	7af5                	lui	s5,0xffffd
  105550:	d7267697          	auipc	a3,0xd7267
  105554:	7bd1                	lui	s7,0xffff4
  105556:	9186a40f          	0x9186a40f
  10555a:	3a4e                	fld	fs4,240(sp)
  10555c:	7f9d                	lui	t6,0xfffe7
  10555e:	d1f4672f          	0xd1f4672f
  105562:	3f0d                	jal	105494 <(null)+0xe0c>
  105564:	a7f1                	j	105d30 <(null)+0x5c>
  105566:	d3b472ef          	jal	t0,4d2a0 <(null)+0x2d298>
  10556a:	fca0                	fsw	fs0,120(s1)
  10556c:	d3d17967          	0xd3d17967
  105570:	62ea                	flw	ft5,152(sp)
  105572:	b3d5                	j	105356 <(null)+0xcce>
  105574:	9129f927          	0x9129f927
  105578:	bcf1                	j	105054 <(null)+0x9cc>
  10557a:	7bf1                	lui	s7,0xffffc
  10557c:	d73931d7          	0xd73931d7
  105580:	b101                	j	105180 <(null)+0xaf8>
  105582:	777f                	0x777f
  105584:	f0029177          	0xf0029177
  105588:	e720                	fsw	fs0,72(a4)
  10558a:	600a                	flw	ft0,128(sp)
  10558c:	d127a4c7          	fmsub.s	fs1,fa5,fs2,fs10,rdn
  105590:	2f065a27          	0x2f065a27
  105594:	5745                	li	a4,-15
  105596:	b1c5                	j	105276 <(null)+0xbee>
  105598:	ff6c                	fsw	fa1,124(a4)
  10559a:	b079                	j	104e28 <(null)+0x7a0>
  10559c:	79e9                	lui	s3,0xffffa
  10559e:	d116f78f          	0xd116f78f
  1055a2:	b614                	fsd	fa3,40(a2)
  1055a4:	f085                	bnez	s1,1054c4 <(null)+0xe3c>
  1055a6:	3404                	fld	fs1,40(s0)
  1055a8:	f021                	bnez	s0,1054e8 <(null)+0xe60>
  1055aa:	2f37a80f          	0x2f37a80f
  1055ae:	b039                	j	104dbc <(null)+0x734>
  1055b0:	9176f7b7          	lui	a5,0x9176f
  1055b4:	b1d1                	j	105278 <(null)+0xbf0>
  1055b6:	79c1                	lui	s3,0xffff0
  1055b8:	ffec                	fsw	fa1,124(a5)
  1055ba:	f2f2                	fsw	ft8,100(sp)
  1055bc:	b261                	j	104f44 <(null)+0x8bc>
  1055be:	f1e2                	fsw	fs8,224(sp)
  1055c0:	632e                	flw	ft6,200(sp)
  1055c2:	316eb3a3          	0x316eb3a3
  1055c6:	b34a                	fsd	fs2,416(sp)
  1055c8:	b3e2                	fsd	fs8,480(sp)
  1055ca:	2e05                	jal	1058fa <(null)+0x1da>
  1055cc:	d17144c7          	fmsub.s	fs1,ft2,fs7,fs10,rmm
  1055d0:	916176b7          	lui	a3,0x91617
  1055d4:	7bdd                	lui	s7,0xffff7
  1055d6:	9171762f          	0x9171762f
  1055da:	41e5                	li	gp,25
  1055dc:	b46c                	fsd	fa1,232(s0)
  1055de:	d1975d3f d1b77d7f 	0xd1b77d7fd1975d3f
  1055e6:	d124a66f          	jal	a2,4faf8 <(null)+0x2faf0>
  1055ea:	6ddf d0cf 964f      	0x964fd0cf6ddf
  1055f0:	d014                	sw	a3,32(s0)
  1055f2:	d16fd3af          	0xd16fd3af
  1055f6:	fecd                	bnez	a3,1055b0 <(null)+0xc2>
  1055f8:	f0e1                	bnez	s1,1055b8 <(null)+0xca>
  1055fa:	41b1                	li	gp,12
  1055fc:	b3e1                	j	1053c4 <(null)+0xd3c>
  1055fe:	b369                	j	105388 <(null)+0xd00>
  105600:	4e91                	li	t4,4
  105602:	8821                	andi	s0,s0,8
  105604:	2f4e                	fld	ft10,208(sp)
  105606:	270e                	fld	fa4,192(sp)
  105608:	2512                	fld	fa0,256(sp)
  10560a:	231e                	fld	ft6,448(sp)
  10560c:	216a                	fld	ft2,152(sp)
  10560e:	2d7a                	fld	fs10,408(sp)
  105610:	d1149bb7          	lui	s7,0xd1149
  105614:	70ea                	flw	ft1,184(sp)
  105616:	f27f                	0xf27f
  105618:	dfd6                	sw	s5,252(sp)
  10561a:	7dd6                	flw	fs11,116(sp)
  10561c:	7d52                	flw	fs10,52(sp)
  10561e:	d027252f          	0xd027252f
  105622:	d1d725af          	0xd1d725af
  105626:	d1614aef          	jal	s5,19b3c <(null)+0x11b3c>
  10562a:	78df 9151 75b9      	0x75b9915178df
  105630:	91617837          	lui	a6,0x91617
  105634:	31e9                	jal	1052fe <(null)+0xc76>
  105636:	7cea                	flw	fs9,184(sp)
  105638:	e0e17c4b          	fnmsub.s	fs8,ft2,fa4,ft8
  10563c:	d2c47b27          	0xd2c47b27
  105640:	9201                	srli	a2,a2,0x20
  105642:	775f d23b ab4f      	0xab4fd23b775f
  105648:	9186                	add	gp,gp,ra
  10564a:	301e                	fld	ft0,480(sp)
  10564c:	3202                	fld	ft4,32(sp)
  10564e:	342a                	fld	fs0,168(sp)
  105650:	3652                	fld	fa2,304(sp)
  105652:	73a5                	lui	t2,0xfffe9
  105654:	917b7727          	0x917b7727
  105658:	37fd                	jal	105646 <(null)+0x44>
  10565a:	af09                	j	105d6c <(null)+0x2>
  10565c:	d3377a07          	0xd3377a07
  105660:	d3d178d7          	0xd3d178d7
  105664:	d0d07547          	fmsub.s	fa0,ft0,fa3,fs10
  105668:	75ad                	lui	a1,0xfffeb
  10566a:	687f                	0x687f
  10566c:	ff99d1f7          	0xff99d1f7
  105670:	6f96                	flw	ft11,68(sp)
  105672:	d939ecef          	jal	s9,a4404 <(null)+0x843fc>
  105676:	e8d0                	fsw	fa2,20(s1)
  105678:	6d4a                	flw	fs10,144(sp)
  10567a:	ea1f d125 ee95      	0xee95d125ea1f
  105680:	2f24d667          	0x2f24d667
  105684:	5b2d                	li	s6,-21
  105686:	7e2e                	flw	ft8,232(sp)
  105688:	fde17e8b          	0xfde17e8b
  10568c:	d3d47b67          	0xd3d47b67
  105690:	4c25                	li	s8,9
  105692:	ada9                	j	105cec <(null)+0x18>
  105694:	d30778a7          	0xd30778a7
  105698:	f30c                	fsw	fa1,32(a4)
  10569a:	bc75                	j	105156 <(null)+0xace>
  10569c:	d106fb87          	0xd106fb87
  1056a0:	ba1c                	fsd	fa5,48(a2)
  1056a2:	ece5                	bnez	s1,10579a <(null)+0x7a>
  1056a4:	ec71                	bnez	s0,105780 <(null)+0x60>
  1056a6:	3844                	fld	fs1,176(s0)
  1056a8:	2f162407          	flw	fs0,753(a2)
  1056ac:	eddd                	bnez	a1,10576a <(null)+0x4a>
  1056ae:	fdad                	bnez	a1,105628 <(null)+0x26>
  1056b0:	fdda                	fsw	fs6,248(sp)
  1056b2:	be59                	j	105248 <(null)+0xbc0>
  1056b4:	f3c8                	fsw	fa0,36(a5)
  1056b6:	00aebe73          	csrrc	t3,0xa,t4
  1056ba:	bc0a                	fsd	ft2,56(sp)
  1056bc:	f2de                	fsw	fs7,100(sp)
  1056be:	d098178f          	0xd098178f
  1056c2:	d0f0686f          	jal	a6,c3d0 <(null)+0x43d0>
  1056c6:	697f                	0x697f
  1056c8:	d120                	sw	s0,96(a0)
  1056ca:	bc7a                	fsd	ft10,56(sp)
  1056cc:	bcf2                	fsd	ft8,120(sp)
  1056ce:	bd4a                	fsd	fs2,184(sp)
  1056d0:	bde2                	fsd	fs8,248(sp)
  1056d2:	aaaa                	fsd	fa0,336(sp)
  1056d4:	ae22                	fsd	fs0,280(sp)
  1056d6:	d118df3f d108dd0f 	0xd108dd0fd118df3f
  1056de:	db1f d138 d9ef      	0xd9efd138db1f
  1056e4:	d128                	sw	a0,96(a0)
  1056e6:	ae5a                	fsd	fs6,280(sp)
  1056e8:	a3f2                	fsd	ft8,448(sp)
  1056ea:	a09a                	fsd	ft6,64(sp)
  1056ec:	7fee                	flw	ft11,248(sp)
  1056ee:	a31a                	fsd	ft6,384(sp)
  1056f0:	9bf1                	andi	a5,a5,-4
  1056f2:	7a5a                	flw	fs4,180(sp)
  1056f4:	b9d4                	fsd	fa3,176(a1)
  1056f6:	579f 2e16 7c9f      	0x7c9f2e16579f
  1056fc:	d166                	sw	s9,160(sp)
  1056fe:	d127e90f          	0xd127e90f
  105702:	207f                	0x207f
  105704:	d179                	beqz	a0,1056ca <(null)+0xc8>
  105706:	d0d79eef          	jal	t4,7f412 <(null)+0x5f40a>
  10570a:	d102584f          	fnmadd.s	fa6,ft4,fa6,fs10,unknown
  10570e:	ea59                	bnez	a2,1057a4 <(null)+0x84>
  105710:	4add                	li	s5,23
  105712:	335a                	fld	ft6,432(sp)
  105714:	3142                	fld	ft2,48(sp)
  105716:	374a                	fld	fa4,176(sp)
  105718:	3572                	fld	fa0,312(sp)
  10571a:	b779                	j	1056a8 <(null)+0xa6>
  10571c:	b461                	j	1051a4 <(null)+0xb1c>
  10571e:	4219                	li	tp,6
  105720:	ec91                	bnez	s1,10573c <(null)+0x1c>
  105722:	35d2                	fld	fa1,304(sp)
  105724:	d0a421c7          	fmsub.s	ft3,fs0,fa0,fs10,rdn
  105728:	3796                	fld	fa5,352(sp)
  10572a:	3bf6                	fld	fs7,376(sp)
  10572c:	39f2                	fld	fs3,312(sp)
  10572e:	d1446c6f          	jal	s8,4bc42 <(null)+0x2bc3a>
  105732:	33de                	fld	ft7,496(sp)
  105734:	31e2                	fld	ft3,56(sp)
  105736:	3f9e                	fld	ft11,480(sp)
  105738:	de2801b7          	lui	gp,0xde280
  10573c:	77ce                	flw	fa5,240(sp)
  10573e:	7d4d                	lui	s10,0xffff3
  105740:	d02420d7          	0xd02420d7
  105744:	d7d87f37          	lui	t5,0xd7d87
  105748:	de217ef7          	0xde217ef7
  10574c:	d7287617          	auipc	a2,0xd7287
  105750:	f8de                	fsw	fs7,112(sp)
  105752:	d5d17ebb          	0xd5d17ebb
  105756:	7095                	lui	ra,0xfffe5
  105758:	29c87037          	lui	zero,0x29c87
  10575c:	b6e1                	j	105324 <(null)+0xc9c>
  10575e:	d0ab2c2f          	0xd0ab2c2f
  105762:	6ddf d14b 0ccf      	0xccfd14b6ddf
  105768:	de24                	sw	s1,120(a2)
  10576a:	7c9d                	lui	s9,0xfffe7
  10576c:	d02b23e7          	0xd02b23e7
  105770:	39e5                	jal	105468 <(null)+0xde0>
  105772:	7e1f de21 79ff      	0x79ffde217e1f
  105778:	d924                	sw	s1,112(a0)
  10577a:	f8f6                	fsw	ft9,112(sp)
  10577c:	d5d17e03          	0xd5d17e03
  105780:	734d                	lui	t1,0xffff3
  105782:	7f5f 29c4 b889      	0xb88929c47f5f
  105788:	d1fbed77          	0xd1fbed77
  10578c:	707d                	c.lui	zero,0xfffff
  10578e:	6a62                	flw	fs4,24(sp)
  105790:	e82d                	bnez	s0,105802 <(null)+0xe2>
  105792:	bae1                	j	10516a <(null)+0xae2>
  105794:	d098bca7          	fsd	fs1,-743(a7) # fffedd19 <(null)+0xffeb5d09>
  105798:	d1c47c37          	lui	s8,0xd1c47
  10579c:	d7349c57          	0xd7349c57
  1057a0:	d1c11f73          	csrrw	t5,0xd1c,sp
  1057a4:	f88a                	fsw	ft2,112(sp)
  1057a6:	9dd4ff4f          	0x9dd4ff4f
  1057aa:	6896                	flw	fa7,68(sp)
  1057ac:	bcb8                	fsd	fa4,120(s1)
  1057ae:	78aa                	flw	fa7,168(sp)
  1057b0:	3f4d                	jal	105762 <(null)+0x42>
  1057b2:	7afe                	flw	fs5,252(sp)
  1057b4:	c8a17a7b          	0xc8a17a7b
  1057b8:	2e647d37          	lui	s10,0x2e647
  1057bc:	297173a7          	0x297173a7
  1057c0:	d125eff7          	0xd125eff7
  1057c4:	91787267          	0x91787267
  1057c8:	4161                	li	sp,24
  1057ca:	727f                	0x727f
  1057cc:	de21                	beqz	a2,105724 <(null)+0x4>
  1057ce:	b4a1                	j	105216 <(null)+0xb8e>
  1057d0:	2a89                	jal	105922 <(null)+0x202>
  1057d2:	b4d5                	j	1052b6 <(null)+0xc2e>
  1057d4:	4929                	li	s2,10
  1057d6:	b749                	j	105758 <(null)+0x38>
  1057d8:	b4f5                	j	1052c4 <(null)+0xc3c>
  1057da:	4929                	li	s2,10
  1057dc:	3e7d                	jal	10539a <(null)+0xd12>
  1057de:	7b4a                	flw	fs6,176(sp)
  1057e0:	c7617b2b          	0xc7617b2b
  1057e4:	2e647c47          	fmsub.q	fs8,fs0,ft6,ft5
  1057e8:	d1256fd7          	0xd1256fd7
  1057ec:	29717c67          	0x29717c67
  1057f0:	9176feb7          	lui	t4,0x9176f
  1057f4:	4189                	li	gp,2
  1057f6:	de217e8f          	0xde217e8f
  1057fa:	b971                	j	105496 <(null)+0xe0e>
  1057fc:	2ab1                	jal	105958 <(null)+0x16>
  1057fe:	b965                	j	1054b6 <(null)+0xe2e>
  105800:	7671                	lui	a2,0xffffc
  105802:	8419                	srai	s0,s0,0x6
  105804:	8685                	srai	a3,a3,0x1
  105806:	7641                	lui	a2,0xffff0
  105808:	a6f1                	j	105bd4 <(null)+0x292>
  10580a:	c77f                	0xc77f
  10580c:	2e26                	fld	ft8,72(sp)
  10580e:	d0d5936f          	jal	t1,5f51a <(null)+0x3f512>
  105812:	119f d0d5 b0af      	0xb0afd0d5119f
  105818:	d1b5                	beqz	a1,10577c <(null)+0x5c>
  10581a:	301f d1b5 4c8f      	0x4c8fd1b5301f
  105820:	d345                	beqz	a4,1057c0 <(null)+0xa0>
  105822:	4cff                	0x4cff
  105824:	d356                	sw	s5,164(sp)
  105826:	d36640ef          	jal	ra,69d5c <(null)+0x49d54>
  10582a:	c15f d344 906f      	0x906fd344c15f
  105830:	d0d9                	beqz	s1,1057b6 <(null)+0x96>
  105832:	541a                	lw	s0,164(sp)
  105834:	556e                	lw	a0,248(sp)
  105836:	b7ff                	0xb7ff
  105838:	d0d5                	beqz	s1,1057dc <(null)+0xbc>
  10583a:	55c6                	lw	a1,112(sp)
  10583c:	d1b5b307          	fld	ft6,-741(a1) # fffead1b <(null)+0xffeb2d0b>
  105840:	c7d2                	sw	s4,204(sp)
  105842:	bdff                	0xbdff
  105844:	d1b9                	beqz	a1,10578a <(null)+0x6a>
  105846:	57ce                	lw	a5,240(sp)
  105848:	d1b6d277          	0xd1b6d277
  10584c:	40e1                	li	ra,24
  10584e:	d131724f          	fnmadd.s	ft4,ft2,fs3,fs10
  105852:	43b1                	li	t2,12
  105854:	5466                	lw	s0,120(sp)
  105856:	4f91                	li	t6,4
  105858:	c46a                	sw	s10,8(sp)
  10585a:	4c25                	li	s8,9
  10585c:	d9d14283          	lbu	t0,-611(sp)
  105860:	4f71                	li	t5,28
  105862:	072d                	addi	a4,a4,11
  105864:	d1c51247          	fmsub.s	ft4,fa0,ft8,fs10,rtz
  105868:	48b5                	li	a7,13
  10586a:	4ce5                	li	s9,25
  10586c:	d62742e7          	0xd62742e7
  105870:	d73114e7          	0xd73114e7
  105874:	d1a53207          	fld	ft4,-742(a0) # d1a7e8ee <(null)+0xd19468de>
  105878:	0769                	addi	a4,a4,26
  10587a:	d125323f c5278579 	0xc5278579d125323f
  105882:	d166                	sw	s9,160(sp)
  105884:	c711                	beqz	a4,105890 <(null)+0x170>
  105886:	d9d141eb          	0xd9d141eb
  10588a:	4cd9                	li	s9,22
  10588c:	04b9                	addi	s1,s1,14
  10588e:	29d141cb          	fnmsub.s	ft3,ft2,ft9,ft5,rmm
  105892:	d4a5                	beqz	s1,1057fa <(null)+0xda>
  105894:	4f3d                	li	t5,15
  105896:	d9d7410f          	0xd9d7410f
  10589a:	de3141bf 9ba74365 	0x9ba74365de3141bf
  1058a2:	d736                	sw	a3,172(sp)
  1058a4:	8781                	c.srai64	a5
  1058a6:	de2141cf          	fnmadd.q	ft3,ft2,ft2,fs11,rmm
  1058aa:	6b3d                	lui	s6,0xf
  1058ac:	456e                	lw	a0,216(sp)
  1058ae:	478e                	lw	a5,192(sp)
  1058b0:	4406                	lw	s0,64(sp)
  1058b2:	84d1                	srai	s1,s1,0x14
  1058b4:	2f36ce77          	0x2f36ce77
  1058b8:	84fd                	srai	s1,s1,0x1f
  1058ba:	d536cdcf          	0xd536cdcf
  1058be:	84ed                	srai	s1,s1,0x1b
  1058c0:	2b36d1a7          	0x2b36d1a7
  1058c4:	8601                	c.srai64	a2
  1058c6:	8509                	srai	a0,a0,0x2
  1058c8:	6ab9                	lui	s5,0xe
  1058ca:	44ea                	lw	s1,152(sp)
  1058cc:	75fd                	lui	a1,0xfffff
  1058ce:	4402                	lw	s0,0(sp)
  1058d0:	7d21                	lui	s10,0xfffe8
  1058d2:	85dd                	srai	a1,a1,0x17
  1058d4:	4dd9                	li	s11,22
  1058d6:	8525                	srai	a0,a0,0x9
  1058d8:	2f2601c7          	fmsub.q	ft3,fa2,fs2,ft5,rne
  1058dc:	d8374127          	fsq	ft3,-638(a4) # ad82 <(null)+0x2d82>
  1058e0:	d1251077          	0xd1251077
  1058e4:	d11553e7          	0xd11553e7
  1058e8:	d15173d7          	0xd15173d7
  1058ec:	4efd                	li	t4,31
  1058ee:	d1a5306f          	j	58e08 <(null)+0x38e00>
  1058f2:	0541                	addi	a0,a0,16
  1058f4:	d1253007          	fld	ft0,-750(a0)
  1058f8:	85e1                	srai	a1,a1,0x18
  1058fa:	d136c4cf          	fnmadd.s	fs1,fa3,fs3,fs10,rmm
  1058fe:	c6f9                	beqz	a3,1059cc <(null)+0x8a>
  105900:	d5d147f3          	0xd5d147f3
  105904:	4ae1                	li	s5,24
  105906:	4505                	li	a0,1
  105908:	1aed                	addi	s5,s5,-5
  10590a:	8139                	srli	a0,a0,0xe
  10590c:	8225                	srli	a2,a2,0x9
  10590e:	6519                	lui	a0,0x6
  105910:	d1914433          	0xd1914433
  105914:	de214707          	flq	fa4,-542(sp)
  105918:	83f1                	srli	a5,a5,0x1c
  10591a:	d0a657bf 47f3c14e 	0x47f3c14ed0a657bf
  105922:	ae51                	j	105cb6 <(null)+0x42>
  105924:	4a79                	li	s4,30
  105926:	45ad                	li	a1,11
  105928:	49ed                	li	s3,27
  10592a:	d5ff                	0xd5ff
  10592c:	855ad027          	0x855ad027
  105930:	4891                	li	a7,4
  105932:	81ba                	mv	gp,a4
  105934:	8112                	mv	sp,tp
  105936:	8c8a                	mv	s9,sp
  105938:	8c42                	mv	s8,a6
  10593a:	8fda                	mv	t6,s6
  10593c:	8f72                	mv	t5,t3
  10593e:	a4ed                	j	105c28 <(null)+0x2e6>
  105940:	4492                	lw	s1,4(sp)
  105942:	d151467b          	0xd151467b
  105946:	d549                	beqz	a0,1058d0 <(null)+0x1b0>
  105948:	d34d                	beqz	a4,1058ea <(null)+0x1ca>
  10594a:	977f                	0x977f
  10594c:	d0a4                	sw	s1,96(s1)
  10594e:	d17636cf          	fnmadd.s	fa3,fa2,fs7,fs10,rup
  105952:	007a                	c.slli	zero,0x1e
  105954:	4b2d                	li	s6,11
  105956:	066e                	slli	a2,a2,0x1b
  105958:	d0a41537          	lui	a0,0xd0a41
  10595c:	0266                	slli	tp,tp,0x19
  10595e:	0422                	slli	s0,s0,0x8
  105960:	de2737d7          	0xde2737d7
  105964:	de214747          	fmsub.q	fa4,ft2,ft2,fs11,rmm
  105968:	de2535f7          	0xde2535f7
  10596c:	d0241567          	0xd0241567
  105970:	c35e                	sw	s7,132(sp)
  105972:	4525                	li	a0,9
  105974:	c3ce                	sw	s3,196(sp)
  105976:	52ff                	0x52ff
  105978:	27e1d107          	0x27e1d107
  10597c:	d1c48427          	0xd1c48427
  105980:	911544f7          	0x911544f7
  105984:	c344d437          	lui	s0,0xc344d
  105988:	d7011e07          	0xd7011e07
  10598c:	2525                	jal	105fb4 <(null)+0xfa>
  10598e:	4d1f c1d6 c41f      	0xc41fc1d64d1f
  105994:	21492e27          	fsw	fs4,540(s2) # 9057b4d4 <(null)+0x904434c4>
  105998:	50ca                	lw	ra,176(sp)
  10599a:	837d                	srli	a4,a4,0x1f
  10599c:	67e1                	lui	a5,0x18
  10599e:	de2147af          	0xde2147af
  1059a2:	d167dfaf          	0xd167dfaf
  1059a6:	de2146cf          	fnmadd.q	fa3,ft2,ft2,fs11,rmm
  1059aa:	6f79                	lui	t5,0x1e
  1059ac:	de2144e7          	0xde2144e7
  1059b0:	dd1547e7          	0xdd1547e7
  1059b4:	d5d144a3          	0xd5d144a3
  1059b8:	48a1                	li	a7,8
  1059ba:	41ce                	lw	gp,208(sp)
  1059bc:	820d                	srli	a2,a2,0x3
  1059be:	816d                	srli	a0,a0,0x1b
  1059c0:	d1148e27          	0xd1148e27
  1059c4:	d3d145c7          	fmsub.d	fa1,ft2,ft9,fs10,rmm
  1059c8:	48a1                	li	a7,8
  1059ca:	16df d116 544f      	0x544fd11616df
  1059d0:	d106                	sw	ra,160(sp)
  1059d2:	d131743f d134a5af 	0xd134a5afd131743f
  1059da:	51ce                	lw	gp,240(sp)
  1059dc:	d5d14403          	lbu	s0,-675(sp)
  1059e0:	49ed                	li	s3,27
  1059e2:	09d9                	addi	s3,s3,22
  1059e4:	c285                	beqz	a3,105a04 <(null)+0xc2>
  1059e6:	de2144cf          	fnmadd.q	fs1,ft2,ft2,fs11,rmm
  1059ea:	f3354a8f          	0xf3354a8f
  1059ee:	afd144cb          	fnmsub.q	fs1,ft2,ft9,fs5,rmm
  1059f2:	b51f d1c6 d1b5      	0xd1b5d1c6b51f
  1059f8:	4575                	li	a0,29
  1059fa:	4901                	li	s2,0
  1059fc:	4935                	li	s2,13
  1059fe:	6e5d                	lui	t3,0x17
  105a00:	03a1                	addi	t2,t2,8
  105a02:	4aff                	0x4aff
  105a04:	25099157          	0x25099157
  105a08:	f1d6c807          	flq	fa6,-227(a3) # 91616f1d <(null)+0x914def0d>
  105a0c:	2e27c9e7          	0x2e27c9e7
  105a10:	1c91                	addi	s9,s9,-28
  105a12:	491f de21 d07f      	0xd07fde21491f
  105a18:	4ec2d177          	0x4ec2d177
  105a1c:	7e09                	lui	t3,0xfffe2
  105a1e:	de2149af          	0xde2149af
  105a22:	2f67402f          	0x2f67402f
  105a26:	d5d1496b          	0xd5d1496b
  105a2a:	4675                	li	a2,29
  105a2c:	4c16                	lw	s8,68(sp)
  105a2e:	8cc5                	or	s1,s1,s1
  105a30:	8f55                	or	a4,a4,a3
  105a32:	d16401ef          	jal	gp,45f48 <(null)+0x25f40>
  105a36:	d3d14a0f          	0xd3d14a0f
  105a3a:	4775                	li	a4,29
  105a3c:	d1669987          	0xd1669987
  105a40:	d106daf7          	0xd106daf7
  105a44:	d1217ae7          	0xd1217ae7
  105a48:	d1242bd7          	0xd1242bd7
  105a4c:	d137cac7          	fmsub.s	fs5,fa5,fs3,fs10,rmm
  105a50:	4c62                	lw	s8,24(sp)
  105a52:	7f31                	lui	t5,0xfffec
  105a54:	d1c54b87          	flq	fs7,-740(a0) # d0a40d1c <(null)+0xd0908d0c>
  105a58:	de37bb37          	lui	s6,0xde37b
  105a5c:	2a51                	jal	105bf0 <(null)+0x2ae>
  105a5e:	2065                	jal	105b06 <(null)+0x1c4>
  105a60:	cbd6c7a7          	fsq	ft9,-849(a3)
  105a64:	0399                	addi	t2,t2,6
  105a66:	5f32                	lw	t5,44(sp)
  105a68:	d5d14ad3          	0xd5d14ad3
  105a6c:	47dd                	li	a5,23
  105a6e:	0fb9                	addi	t6,t6,14
  105a70:	2dd14ab3          	0x2dd14ab3
  105a74:	dfbd                	beqz	a5,1059f2 <(null)+0xb0>
  105a76:	4731                	li	a4,12
  105a78:	8cf5                	and	s1,s1,a3
  105a7a:	d1a6babf cbd64ddf 	0xcbd64ddfd1a6babf
  105a82:	b95f d126 8d99      	0x8d99d126b95f
  105a88:	c9064507          	flq	fa0,-880(a2) # fffefc90 <(null)+0xffeb7c80>
  105a8c:	ccb1                	beqz	s1,105ae8 <(null)+0x1a6>
  105a8e:	6169                	addi	sp,sp,208
  105a90:	1c99                	addi	s9,s9,-26
  105a92:	1049                	c.nop	-14
  105a94:	8fc1                	or	a5,a5,s0
  105a96:	d3d149ab          	0xd3d149ab
  105a9a:	de214a3f 48d76929 	0x48d76929de214a3f
  105aa2:	de21                	beqz	a2,1059fa <(null)+0xb8>
  105aa4:	c717c4b7          	lui	s1,0xc717c
  105aa8:	5c0a                	lw	s8,160(sp)
  105aaa:	483d                	li	a6,15
  105aac:	4f96                	lw	t6,68(sp)
  105aae:	7c59                	lui	s8,0xffff6
  105ab0:	d7011ee7          	0xd7011ee7
  105ab4:	2de9                	jal	10618e <(null)+0x8>
  105ab6:	10b5                	addi	ra,ra,-19
  105ab8:	2e27c8b7          	lui	a7,0x2e27c
  105abc:	2de1                	jal	106194 <(null)+0xe>
  105abe:	4471                	li	s0,28
  105ac0:	8e15                	sub	a2,a2,a3
  105ac2:	6a35                	lui	s4,0xd
  105ac4:	de214ac7          	fmsub.q	fs5,ft2,ft2,fs11,rmm
  105ac8:	3d67c087          	flq	ft1,982(a5) # 183d6 <(null)+0x103d6>
  105acc:	8fcd                	or	a5,a5,a1
  105ace:	8cad                	xor	s1,s1,a1
  105ad0:	d1148267          	jalr	tp,-751(s1) # c717bd11 <(null)+0xc7043d01>
  105ad4:	d3d14987          	flq	fs3,-707(sp)
  105ad8:	44e1                	li	s1,24
  105ada:	1a9f d116 580f      	0x580fd1161a9f
  105ae0:	d106                	sw	ra,160(sp)
  105ae2:	78ff                	0x78ff
  105ae4:	d131                	beqz	a0,105a28 <(null)+0xe6>
  105ae6:	d134a96f          	jal	s2,507f8 <(null)+0x307f0>
  105aea:	452d                	li	a0,11
  105aec:	d5d146c3          	0xd5d146c3
  105af0:	d0f6b8b7          	lui	a7,0xd0f6b
  105af4:	1999                	addi	s3,s3,-26
  105af6:	d3b5                	beqz	a5,105a5a <(null)+0x118>
  105af8:	d0f6b697          	auipc	a3,0xd0f6b
  105afc:	6a11                	lui	s4,0x4
  105afe:	de2149af          	0xde2149af
  105b02:	271544af          	0x271544af
  105b06:	d5d14e6b          	0xd5d14e6b
  105b0a:	4269                	li	tp,26
  105b0c:	4b16                	lw	s6,68(sp)
  105b0e:	7255                	lui	tp,0xffff5
  105b10:	0ffd                	addi	t6,t6,31
  105b12:	91574ebf c1472d5d 	0xc1472d5d91574ebf
  105b1a:	c5d6                	sw	s5,200(sp)
  105b1c:	2e27cd27          	fsq	ft2,762(a5)
  105b20:	2899                	jal	105b76 <(null)+0x234>
  105b22:	4f7f                	0x4f7f
  105b24:	9126                	add	sp,sp,s1
  105b26:	4926                	lw	s2,72(sp)
  105b28:	72d1                	lui	t0,0xffff4
  105b2a:	40ff                	0x40ff
  105b2c:	de21                	beqz	a2,105a84 <(null)+0x142>
  105b2e:	d69f d0d7 4a62      	0x4a62d0d7d69f
  105b34:	de214c87          	flq	fs9,-542(sp)
  105b38:	6d49                	lui	s10,0x12
  105b3a:	de214dbf 2f77425f 	0x2f77425fde214dbf
  105b42:	d5d14c7b          	0xd5d14c7b
  105b46:	43c1                	li	t2,16
  105b48:	4906                	lw	s2,64(sp)
  105b4a:	8455                	srai	s0,s0,0x15
  105b4c:	8aa5                	andi	a3,a3,9
  105b4e:	041f d179 4f9f      	0x4f9fd179041f
  105b54:	d3d1                	beqz	a5,105ad8 <(null)+0x196>
  105b56:	42c1                	li	t0,16
  105b58:	d1769117          	auipc	sp,0xd1769
  105b5c:	d106de87          	0xd106de87
  105b60:	d1217e77          	0xd1217e77
  105b64:	d1292f67          	0xd1292f67
  105b68:	91064e57          	0x91064e57
  105b6c:	4892                	lw	a7,4(sp)
  105b6e:	4806                	lw	a6,64(sp)
  105b70:	7365                	lui	t1,0xffff9
  105b72:	4f1f d1c5 bf0f      	0xbf0fd1c54f1f
  105b78:	2275de37          	lui	t3,0x2275d
  105b7c:	28ed                	jal	105c76 <(null)+0x2>
  105b7e:	2b79                	jal	10611c <(null)+0x26>
  105b80:	8b91                	andi	a5,a5,4
  105b82:	0049                	c.nop	18
  105b84:	48ba                	lw	a7,140(sp)
  105b86:	4ba6                	lw	s7,72(sp)
  105b88:	72fd                	lui	t0,0xfffff
  105b8a:	3fd6428f          	0x3fd6428f
  105b8e:	9136cccf          	fnmadd.s	fs9,fa3,fs3,fs2,rmm
  105b92:	d5d14c3b          	0xd5d14c3b
  105b96:	413d                	li	sp,15
  105b98:	91264d97          	auipc	s11,0x91264
  105b9c:	390d                	jal	1057ce <(null)+0xae>
  105b9e:	88e9                	andi	s1,s1,26
  105ba0:	0129                	addi	sp,sp,10
  105ba2:	482e                	lw	a6,200(sp)
  105ba4:	7259                	lui	tp,0xffff6
  105ba6:	3fd6dc3f 3fd64f0f 	0x3fd64f0f3fd6dc3f
  105bae:	4812                	lw	a6,4(sp)
  105bb0:	4b7e                	lw	s6,220(sp)
  105bb2:	740d                	lui	s0,0xfffe3
  105bb4:	9136c3a7          	fsq	fs3,-1785(a3) # d10703ff <(null)+0xd0f383ef>
  105bb8:	d5d14c13          	xori	s8,sp,-675
  105bbc:	d1083c07          	fld	fs8,-752(a6) # 91616d10 <(null)+0x914ded00>
  105bc0:	048d                	addi	s1,s1,3
  105bc2:	427f                	0x427f
  105bc4:	9126                	add	sp,sp,s1
  105bc6:	4aa6                	lw	s5,72(sp)
  105bc8:	4b7a                	lw	s6,156(sp)
  105bca:	ed79                	bnez	a0,105ca8 <(null)+0x34>
  105bcc:	db4d                	beqz	a4,105b7e <(null)+0x23c>
  105bce:	d178524f          	fnmadd.s	ft4,fa6,fs7,fs10,unknown
  105bd2:	d354036f          	jal	t1,46906 <(null)+0x268fe>
  105bd6:	4349                	li	t1,18
  105bd8:	cb75                	beqz	a4,105ccc <(null)+0x58>
  105bda:	d3d14f3f d1781c8f 	0xd1781c8fd3d14f3f
  105be2:	4eff                	0x4eff
  105be4:	9175                	srli	a0,a0,0x3d
  105be6:	d17852ef          	jal	t0,8b8fc <(null)+0x6b8f4>
  105bea:	72df d0f1 ac4f      	0xac4fd0f172df
  105bf0:	d0f6                	sw	t4,96(sp)
  105bf2:	8ad9                	andi	a3,a3,22
  105bf4:	7b99                	lui	s7,0xfffe6
  105bf6:	527f                	0x527f
  105bf8:	2dd8                	fld	fa4,152(a1)
  105bfa:	8979                	andi	a0,a0,30
  105bfc:	8ae1                	andi	a3,a3,24
  105bfe:	8a69                	andi	a2,a2,26
  105c00:	7929                	lui	s2,0xfffea
  105c02:	2dd153fb          	0x2dd153fb
  105c06:	c6f5                	beqz	a3,105cf2 <(null)+0x1e>
  105c08:	5d39                	li	s10,-18
  105c0a:	23df d128 649d      	0x649dd12823df
  105c10:	56ea                	lw	a3,184(sp)
  105c12:	6c31                	lui	s8,0xc
  105c14:	56fa                	lw	a3,188(sp)
  105c16:	64dd                	lui	s1,0x17
  105c18:	de215037          	lui	zero,0xde215
  105c1c:	96e1                	srai	a3,a3,0x38
  105c1e:	d5d1530b          	0xd5d1530b
  105c22:	5ee5                	li	t4,-7
  105c24:	1a91                	addi	s5,s5,-28
  105c26:	d58d                	beqz	a1,105b50 <(null)+0x20e>
  105c28:	de2153f7          	0xde2153f7
  105c2c:	d5355697          	auipc	a3,0xd5355
  105c30:	2dd153b3          	fsr	t2,sp,t0,t4
  105c34:	c6bd                	beqz	a3,105ca2 <(null)+0x2e>
  105c36:	5e31                	li	t3,-20
  105c38:	de2153b7          	lui	t2,0xde215
  105c3c:	526d                	li	tp,-5
  105c3e:	42df d135 1799      	0x1799d13542df
  105c44:	d19152e3          	bge	sp,s9,105948 <(null)+0x6>
  105c48:	94b1                	srai	s1,s1,0x2c
  105c4a:	ae51505b          	0xae51505b
  105c4e:	d476                	sw	t4,40(sp)
  105c50:	d7f6                	sw	t4,236(sp)
  105c52:	5c31                	li	s8,-20
  105c54:	53e5                	li	t2,-7
  105c56:	90fa                	add	ra,ra,t5
  105c58:	5fb1                	li	t6,-20
  105c5a:	945a                	add	s0,s0,s6
  105c5c:	d025c027          	fsq	ft2,-768(a1) # ffffed00 <(null)+0xffec6cf0>
  105c60:	9992                	add	s3,s3,tp
  105c62:	940a                	add	s0,s0,sp
  105c64:	5ddd                	li	s11,-9
  105c66:	d1c9                	beqz	a1,105be8 <(null)+0x2a6>
  105c68:	5032                	0x5032
  105c6a:	5702                	lw	a4,32(sp)
  105c6c:	5496                	lw	s1,100(sp)
  105c6e:	6f89                	lui	t6,0x2
  105c70:	9751                	srai	a4,a4,0x34
  105c72:	6701                	0x6701
  105c74:	d15153a3          	0xd15153a3
  105c78:	d0a402b7          	lui	t0,0xd0a40
  105c7c:	2e275227          	0x2e275227
  105c80:	de262157          	0xde262157
  105c84:	d63153c7          	fmsub.q	ft7,ft2,ft3,fs10,unknown
  105c88:	5cd9                	li	s9,-10
  105c8a:	00ff                	0xff
  105c8c:	d024                	sw	s1,96(s0)
  105c8e:	871f d534 539f      	0x539fd534871f
  105c94:	d801                	beqz	s0,105ba4 <(null)+0x262>
  105c96:	8e7f                	0x8e7f
  105c98:	d134                	sw	a3,96(a0)
  105c9a:	51d1531b          	0x51d1531b
  105c9e:	2e24132f          	0x2e24132f
  105ca2:	46ae                	lw	a3,200(sp)
  105ca4:	5302                	lw	t1,32(sp)
  105ca6:	d116b3ef          	jal	t2,719b6 <(null)+0x519ae>
  105caa:	517f                	0x517f
  105cac:	d881                	beqz	s1,105bbc <(null)+0x27a>
  105cae:	8c9f d136 519f      	0x519fd1368c9f
  105cb4:	2776                	fld	fa4,344(sp)
  105cb6:	d13443af          	0xd13443af
  105cba:	1d79                	addi	s10,s10,-2
  105cbc:	91715387          	0x91715387
  105cc0:	5292                	lw	t0,36(sp)
  105cc2:	50df d8b1 d06f      	0xd06fd8b150df
  105cc8:	9136                	add	sp,sp,a3
  105cca:	025f d134 65dd      	0x65ddd134025f
  105cd0:	9751                	srai	a4,a4,0x34
  105cd2:	52da                	lw	t0,180(sp)
  105cd4:	d0a40007          	0xd0a40007
  105cd8:	de262037          	lui	zero,0xde262
  105cdc:	c321                	beqz	a4,105d1c <(null)+0x48>
  105cde:	d1c650af          	0xd1c650af
  105ce2:	16ba                	slli	a3,a3,0x2e
  105ce4:	10a6                	slli	ra,ra,0x29
  105ce6:	d14443cf          	fnmadd.s	ft7,fs0,fs4,fs10,rmm
  105cea:	14be                	slli	s1,s1,0x2f
  105cec:	de36a067          	0xde36a067
  105cf0:	52f5                	li	t0,-3
  105cf2:	031f d024 1545      	0x1545d024031f
  105cf8:	d1e50037          	lui	zero,0xd1e50
  105cfc:	e9d650a7          	0xe9d650a7
  105d00:	d166                	sw	s9,160(sp)
  105d02:	d2aa                	sw	a0,100(sp)
  105d04:	d252                	sw	s4,36(sp)
  105d06:	56b9                	li	a3,-18
  105d08:	d025c577          	0xd025c577
  105d0c:	5af9                	li	s5,-2
  105d0e:	959a                	add	a1,a1,t1
  105d10:	d176b737          	lui	a4,0xd176b
  105d14:	5062                	0x5062
  105d16:	916a                	add	sp,sp,s10
  105d18:	91e2                	add	gp,gp,s8
  105d1a:	50c2                	lw	ra,48(sp)
  105d1c:	d421                	beqz	s0,105c64 <(null)+0x322>
  105d1e:	55ea                	lw	a1,184(sp)
  105d20:	3e85                	jal	105890 <(null)+0x170>
  105d22:	9219                	srli	a2,a2,0x26
  105d24:	09f9                	addi	s3,s3,30
  105d26:	50aa                	lw	ra,168(sp)
  105d28:	f4bd                	bnez	s1,105c96 <(null)+0x22>
  105d2a:	9211                	srli	a2,a2,0x24
  105d2c:	d1769e97          	auipc	t4,0xd1769
  105d30:	927d                	srli	a2,a2,0x3f
  105d32:	5a51                	li	s4,-12
  105d34:	d0845787          	0xd0845787
  105d38:	d1250717          	auipc	a4,0xd1250
  105d3c:	d1354487          	flq	fs1,-749(a0)
  105d40:	e9415657          	0xe9415657
  105d44:	5b09                	li	s6,-30
  105d46:	6b7d                	lui	s6,0x1f
  105d48:	2e8456f7          	0x2e8456f7
  105d4c:	d12546c7          	fmsub.s	fa3,fa0,fs2,fs10,rmm
  105d50:	9051                	srli	s0,s0,0x34
  105d52:	63a5                	lui	t2,0x9
  105d54:	93c1                	srli	a5,a5,0x30
  105d56:	1051                	c.nop	-12
  105d58:	d1e506b7          	lui	a3,0xd1e50
  105d5c:	d1d95603          	lhu	a2,-739(s2) # fffe9d1d <(null)+0xffeb1d0d>
  105d60:	d0e6                	sw	s9,96(sp)
  105d62:	5b41                	li	s6,-16
  105d64:	ae2156c7          	fmsub.q	fa3,ft2,ft2,fs5,unknown
  105d68:	6bd9                	lui	s7,0x16
  105d6a:	067f                	0x67f
  105d6c:	46efd097          	auipc	ra,0x46efd
  105d70:	a61fd117          	auipc	sp,0xa61fd
  105d74:	ae26                	fsd	fs1,280(sp)
  105d76:	a5f1                	j	106442 <(null)+0x1a>
  105d78:	57c1                	li	a5,-16
  105d7a:	d1c6d73f 0d3608ca 	0xd3608cad1c6d73f
  105d82:	0f52                	slli	t5,t5,0x14
  105d84:	0906                	slli	s2,s2,0x1
  105d86:	0146                	slli	sp,sp,0x11
  105d88:	1f1e                	slli	t5,t5,0x27
  105d8a:	1d02                	slli	s10,s10,0x20
  105d8c:	1922                	slli	s2,s2,0x28
  105d8e:	1b2a                	slli	s6,s6,0x2a
  105d90:	ae37a497          	auipc	s1,0xae37a
  105d94:	5e6a                	lw	t3,184(sp)
  105d96:	5366                	lw	t1,120(sp)
  105d98:	d02706b7          	lui	a3,0xd0270
  105d9c:	19c1                	addi	s3,s3,-16
  105d9e:	b1f9                	j	105a6c <(null)+0x12a>
  105da0:	11d7d457          	0x11d7d457
  105da4:	4036                	0x4036
  105da6:	d19487cf          	fnmadd.s	fa5,fs1,fs9,fs10,rne
  105daa:	047f                	0x47f
  105dac:	d196                	sw	t0,224(sp)
  105dae:	d0da                	sw	s6,96(sp)
  105db0:	5899                	li	a7,-26
  105db2:	c69f d014 19fe      	0x19fed014c69f
  105db8:	1bca                	slli	s7,s7,0x32
  105dba:	1dda                	slli	s11,s11,0x36
  105dbc:	1fe2                	slli	t6,t6,0x38
  105dbe:	921a                	add	tp,tp,t1
  105dc0:	d2ae                	sw	a1,100(sp)
  105dc2:	59dd                	li	s3,-9
  105dc4:	d1604577          	0xd1604577
  105dc8:	d1204447          	fmsub.s	fs0,ft0,fs2,fs10,rmm
  105dcc:	9062                	c.add	zero,s8
  105dce:	90fa                	add	ra,ra,t5
  105dd0:	9132                	add	sp,sp,a2
  105dd2:	91ea                	add	gp,gp,s10
  105dd4:	86b2                	mv	a3,a2
  105dd6:	822a                	mv	tp,a0
  105dd8:	d1187307          	0xd1187307
  105ddc:	d1087117          	auipc	sp,0xd1087
  105de0:	d13877e7          	0xd13877e7
  105de4:	d12875f7          	0xd12875f7
  105de8:	8262                	mv	tp,s8
  105dea:	8f0a                	mv	t5,sp
  105dec:	53ea                	lw	t2,184(sp)
  105dee:	8fea                	mv	t6,s10
  105df0:	b7f1                	j	105dbc <(null)+0x52>
  105df2:	565a                	lw	a2,180(sp)
  105df4:	d16636a7          	fsd	fs6,-755(a2)
  105df8:	3929                	jal	105a12 <(null)+0xd0>
  105dfa:	0789                	addi	a5,a5,2
  105dfc:	15c1                	addi	a1,a1,-16
  105dfe:	53d2                	lw	t2,52(sp)
  105e00:	ffb9                	bnez	a5,105d5e <(null)+0x8a>
  105e02:	50b2                	lw	ra,44(sp)
  105e04:	d2c8d9c7          	fmsub.d	fs3,fa7,fa2,fs10,unknown
  105e08:	91848a77          	0x91848a77
  105e0c:	50dd                	li	ra,-9
  105e0e:	10b5                	addi	ra,ra,-19
  105e10:	8e21                	xor	a2,a2,s0
  105e12:	d3375b3f d3d1590f 	0xd3d1590fd3375b3f
  105e1a:	d0d054bf 4a575465 	0x4a575465d0d054bf
  105e22:	deb1d1f7          	0xdeb1d1f7
  105e26:	4ece                	lw	t4,208(sp)
  105e28:	d539c487          	flq	fs1,-685(s3) # fffefd53 <(null)+0xffeb7d43>
  105e2c:	c9bc                	sw	a5,80(a1)
  105e2e:	4f16                	lw	t5,68(sp)
  105e30:	d1654937          	lui	s2,0xd1654
  105e34:	cfbd                	beqz	a5,105eb2 <(null)+0x148>
  105e36:	2f67f4bf ffd979e5 	0xffd979e52f67f4bf
  105e3e:	d3d4552f          	0xd3d4552f
  105e42:	6fd1                	lui	t6,0x14
  105e44:	8ef1                	and	a3,a3,a2
  105e46:	d3075bef          	jal	s7,7b376 <(null)+0x5b36e>
  105e4a:	d044                	sw	s1,36(s0)
  105e4c:	9f2d                	0x9f2d
  105e4e:	d106d8cf          	fnmadd.s	fa7,fa3,fa6,fs10,unknown
  105e52:	99d4                	0x99d4
  105e54:	cf3d                	beqz	a4,105ed2 <(null)+0x18>
  105e56:	cfb9                	beqz	a5,105eb4 <(null)+0x14a>
  105e58:	1bbc                	addi	a5,sp,504
  105e5a:	2f1607cf          	fnmadd.q	fa5,fa2,fa7,ft5,rne
  105e5e:	ce15                	beqz	a2,105e9a <(null)+0x130>
  105e60:	de95                	beqz	a3,105d9c <(null)+0x32>
  105e62:	de92                	sw	tp,124(sp)
  105e64:	9d01                	0x9d01
  105e66:	d080                	sw	s0,32(s1)
  105e68:	079e9d0b          	0x79e9d0b
  105e6c:	bf31                	j	105d88 <(null)+0x1e>
  105e6e:	1116da6f          	jal	s4,17377e <(null)+0x3b76e>
  105e72:	90e6da3f 9bec6f69 	0x9bec6f6990e6da3f
  105e7a:	2e1675af          	0x2e1675af
  105e7e:	d1065e8f          	0xd1065e8f
  105e82:	c9ff                	0xc9ff
  105e84:	d166                	sw	s9,160(sp)
  105e86:	d179066f          	jal	a2,96b9c <(null)+0x76b94>
  105e8a:	b9df d0d6 7e5f      	0x7e5fd0d6b9df
  105e90:	d122                	sw	s0,160(sp)
  105e92:	cc29                	beqz	s0,105eec <(null)+0x32>
  105e94:	6411                	lui	s0,0x4
  105e96:	bce9                	j	105970 <(null)+0x2e>
  105e98:	1669                	addi	a2,a2,-6
  105e9a:	d01649bf d19488af 	0xd19488afd01649bf
  105ea2:	544d                	li	s0,-13
  105ea4:	17be                	slli	a5,a5,0x2f
  105ea6:	5899                	li	a7,-26
  105ea8:	bc11                	j	1058bc <(null)+0x19c>
  105eaa:	caff                	0xcaff
  105eac:	d014                	sw	a3,32(s0)
  105eae:	54f5                	li	s1,-3
  105eb0:	11f2                	slli	gp,gp,0x3c
  105eb2:	13da                	slli	t2,t2,0x36
  105eb4:	15fa                	slli	a1,a1,0x3e
  105eb6:	cc35                	beqz	s0,105f32 <(null)+0x78>
  105eb8:	6ce9                	lui	s9,0x1a
  105eba:	aa81                	j	10600a <(null)+0x150>
  105ebc:	9efc                	0x9efc
  105ebe:	0fca                	slli	t6,t6,0x12
  105ec0:	9f50                	0x9f50
  105ec2:	9b40                	0x9b40
  105ec4:	9b14                	0x9b14
  105ec6:	1e36                	slli	t3,t3,0x2d
  105ec8:	160e                	slli	a2,a2,0x23
  105eca:	48ff                	0x48ff
  105ecc:	d0d5                	beqz	s1,105e70 <(null)+0x106>
  105ece:	1812                	slli	a6,a6,0x24
  105ed0:	106a                	c.slli	zero,0x3a
  105ed2:	5999                	li	s3,-26
  105ed4:	d1c54807          	flq	fa6,-740(a0)
  105ed8:	1c52                	slli	s8,s8,0x34
  105eda:	0c7e                	slli	s8,s8,0x1f
  105edc:	0846                	slli	a6,a6,0x11
  105ede:	1a5e                	slli	s4,s4,0x37
  105ee0:	12a6                	slli	t0,t0,0x29
  105ee2:	14a6                	slli	s1,s1,0x29
  105ee4:	59c5                	li	s3,-15
  105ee6:	5af5                	li	s5,-3
  105ee8:	d2b8                	sw	a4,96(a3)
  105eea:	d2c8                	sw	a0,36(a3)
  105eec:	98bc                	0x98bc
  105eee:	797f                	0x797f
  105ef0:	cca92e17          	auipc	t3,0xcca92
  105ef4:	dd4e                	sw	s3,184(sp)
  105ef6:	583d                	li	a6,-17
  105ef8:	5525                	li	a0,-23
  105efa:	18a4                	addi	s1,sp,120
  105efc:	2f144757          	0x2f144757
  105f00:	9bd2                	add	s7,s7,s4
  105f02:	5fdf d1c6 cdcf      	0xcdcfd1c65fdf
  105f08:	bb99d1e7          	0xbb99d1e7
  105f0c:	cbd9                	beqz	a5,105fa2 <(null)+0xe8>
  105f0e:	1506                	slli	a0,a0,0x21
  105f10:	52a5                	li	t0,-23
  105f12:	c3d6d76f          	jal	a4,73b4e <(null)+0x53b46>
  105f16:	aab9                	j	106074 <(null)+0x1ba>
  105f18:	91d6dfb7          	lui	t6,0x91d6d
  105f1c:	4a5e                	lw	s4,212(sp)
  105f1e:	ae315faf          	0xae315faf
  105f22:	c7369baf          	0xc7369baf
  105f26:	d5310ebf 9bd298da 	0x9bd298dad5310ebf
  105f2e:	9a7a                	add	s4,s4,t5
  105f30:	d0140e17          	auipc	t3,0xd0140
  105f34:	dbd2                	sw	s4,244(sp)
  105f36:	539d                	li	t2,-25
  105f38:	d196ce37          	lui	t3,0xd196c
  105f3c:	532d                	li	t1,-21
  105f3e:	5e19                	li	t3,-26
  105f40:	d902                	sw	zero,176(sp)
  105f42:	6fff                	0x6fff
  105f44:	d101                	beqz	a0,105e44 <(null)+0xda>
  105f46:	53c1                	li	t2,-16
  105f48:	52ed                	li	t0,-5
  105f4a:	160a                	slli	a2,a2,0x22
  105f4c:	1416                	slli	s0,s0,0x25
  105f4e:	9aea                	add	s5,s5,s10
  105f50:	9b82                	jalr	s7
  105f52:	af1f d1a7 547f      	0x547fd1a7af1f
  105f58:	af3fc3d7          	0xaf3fc3d7
  105f5c:	99f9d127          	0x99f9d127
  105f60:	c36751a7          	0xc36751a7
  105f64:	d197dfc7          	fmsub.s	ft11,fa5,fs9,fs10,unknown
  105f68:	d1076f57          	0xd1076f57
  105f6c:	4b16                	lw	s6,68(sp)
  105f6e:	5a1a                	lw	s4,164(sp)
  105f70:	7ed5                	lui	t4,0xffff5
  105f72:	5e1f 2d11 0eff      	0xeff2d115e1f
  105f78:	d126                	sw	s1,160(sp)
  105f7a:	16fa                	slli	a3,a3,0x3e
  105f7c:	9b65                	andi	a4,a4,-7
  105f7e:	14d6                	slli	s1,s1,0x35
  105f80:	9811                	andi	s0,s0,-28
  105f82:	68e9                	lui	a7,0x1a
  105f84:	98f2                	add	a7,a7,t3
  105f86:	d1d952eb          	0xd1d952eb
  105f8a:	5a92                	lw	s5,36(sp)
  105f8c:	d129b2c7          	fmsub.s	ft5,fs3,fs2,fs10,rup
  105f90:	d2015d97          	auipc	s11,0xd2015
  105f94:	9136dd27          	0x9136dd27
  105f98:	1136                	slli	sp,sp,0x2d
  105f9a:	91860dbf 9b1199e9 	0x9b1199e991860dbf
  105fa2:	d1d4f2cf          	fnmadd.s	ft5,fs1,ft9,fs10
  105fa6:	d90d                	beqz	a0,105ed8 <(null)+0x1e>
  105fa8:	da21                	beqz	a2,105ef8 <(null)+0x3e>
  105faa:	be5f d0d5 c01f      	0xc01fd0d5be5f
  105fb0:	2f06                	fld	ft10,64(sp)
  105fb2:	54a5                	li	s1,-23
  105fb4:	d1f6cc07          	flq	fs8,-737(a3) # d026fd1f <(null)+0xd0137d0f>
  105fb8:	3cfd                	jal	105ab6 <(null)+0x174>
  105fba:	9a75                	andi	a2,a2,-3
  105fbc:	527d                	li	tp,-1
  105fbe:	d107528f          	0xd107528f
  105fc2:	d1d9734f          	fnmadd.s	ft6,fs2,ft9,fs10
  105fc6:	d90d                	beqz	a0,105ef8 <(null)+0x3e>
  105fc8:	d0d77b47          	fmsub.s	fs6,fa4,fa3,fs10
  105fcc:	d831                	beqz	s0,105f20 <(null)+0x66>
  105fce:	839f 2f34 9949      	0x99492f34839f
  105fd4:	91265ca7          	0x91265ca7
  105fd8:	764d                	lui	a2,0xffff3
  105fda:	8009                	srli	s0,s0,0x2
  105fdc:	d216d507          	0xd216d507
  105fe0:	ce80                	sw	s0,24(a3)
  105fe2:	48ae                	lw	a7,200(sp)
  105fe4:	2ed77dd7          	0x2ed77dd7
  105fe8:	d3d153f7          	0xd3d153f7
  105fec:	913953c7          	fmsub.s	ft7,fs2,fs3,fs2,unknown
  105ff0:	d0d74db7          	lui	s11,0xd0d74
  105ff4:	5211                	li	tp,-28
  105ff6:	98c5                	andi	s1,s1,-15
  105ff8:	485a                	lw	a6,148(sp)
  105ffa:	9df9                	0x9df9
  105ffc:	50fd                	li	ra,-1
  105ffe:	12df d312 6789      	0x6789d31212df
  106004:	912723e7          	0x912723e7
  106008:	273a                	fld	fa4,392(sp)
  10600a:	312c                	fld	fa1,96(a0)
  10600c:	b716                	fsd	ft5,424(sp)
  10600e:	d139734f          	fnmadd.s	ft6,fs2,fs3,fs10
  106012:	2f378c2f          	0x2f378c2f
  106016:	6759                	lui	a4,0x16
  106018:	af6d                	j	1067d2 <(null)+0x2d6>
  10601a:	26f2                	fld	fa3,280(sp)
  10601c:	b45e                	fsd	fs7,40(sp)
  10601e:	2762                	fld	fa4,24(sp)
  106020:	6411                	lui	s0,0x4
  106022:	6b7e6423          	0x6b7e6423
  106026:	66ca                	flw	fa3,144(sp)
  106028:	d1419357          	0xd1419357
  10602c:	ae79                	j	1063ca <(null)+0xf2>
  10602e:	9e29                	0x9e29
  106030:	635c                	flw	fa5,4(a4)
  106032:	d1970a0f          	0xd1970a0f
  106036:	d0172baf          	0xd0172baf
  10603a:	711f d134 3a0f      	0x3a0fd134711f
  106040:	d0df 40ff d004      	0xd00440ffd0df
  106046:	857f                	0x857f
  106048:	d16e                	sw	s11,160(sp)
  10604a:	233d                	jal	106578 <(null)+0x7c>
  10604c:	26b1                	jal	106398 <(null)+0xc0>
  10604e:	9f6d                	0x9f6d
  106050:	6602                	flw	fa2,0(sp)
  106052:	67ba                	flw	fa5,140(sp)
  106054:	6532                	flw	fa0,12(sp)
  106056:	d127c3af          	0xd127c3af
  10605a:	aeb1                	j	1063b6 <(null)+0xde>
  10605c:	aead                	j	1063d6 <(null)+0xfe>
  10605e:	c761                	beqz	a4,106126 <(null)+0x6>
  106060:	d1019377          	0xd1019377
  106064:	6701                	0x6701
  106066:	957d                	srai	a0,a0,0x3f
  106068:	e261                	bnez	a2,106128 <(null)+0x8>
  10606a:	f37f                	0xf37f
  10606c:	25bad017          	auipc	zero,0x25bad
  106070:	d1963397          	auipc	t2,0xd1963
  106074:	a331                	j	106580 <(null)+0x84>
  106076:	d191a2ab          	0xd191a2ab
  10607a:	ae29                	j	106394 <(null)+0xbc>
  10607c:	af29                	j	106796 <(null)+0x29a>
  10607e:	af31                	j	10679a <(null)+0x29e>
  106080:	b9f1                	j	105d5c <(null)+0x88>
  106082:	a15f ae21 96f9      	0x96f9ae21a15f
  106088:	64b1                	lui	s1,0xc
  10608a:	65b9                	lui	a1,0xe
  10608c:	ae21a167          	0xae21a167
  106090:	d151a033          	0xd151a033
  106094:	ad3d                	j	1066d2 <(null)+0x1d6>
  106096:	e959                	bnez	a0,10612c <(null)+0xc>
  106098:	2475                	jal	106344 <(null)+0x6c>
  10609a:	ae21a03f d516af5f 	0xd516af5fae21a03f
  1060a2:	2e51a0fb          	0x2e51a0fb
  1060a6:	35f5                	jal	105f92 <(null)+0xd8>
  1060a8:	ac41                	j	106338 <(null)+0x60>
  1060aa:	30ff                	0x30ff
  1060ac:	d006                	sw	ra,32(sp)
  1060ae:	a125                	j	1064d6 <(null)+0xae>
  1060b0:	ad01                	j	1066c0 <(null)+0x1c4>
  1060b2:	a09f ae21 a045      	0xa045ae21a09f
  1060b8:	d116bfc7          	fmsub.s	ft11,fa3,fa7,fs10,rup
  1060bc:	ad3d                	j	1066fa <(null)+0x1fe>
  1060be:	6469                	lui	s0,0x1a
  1060c0:	e499                	bnez	s1,1060ce <(null)+0x214>
  1060c2:	d1d9a0fb          	0xd1d9a0fb
  1060c6:	6489                	lui	s1,0x2
  1060c8:	6631                	lui	a2,0xc
  1060ca:	256a                	fld	fa0,152(sp)
  1060cc:	ae21a143          	fmadd.q	ft2,ft3,ft2,fs5,rdn
  1060d0:	25e2                	fld	fa1,24(sp)
  1060d2:	ad29                	j	1066ec <(null)+0x1f0>
  1060d4:	a1f1                	j	1065a0 <(null)+0xa4>
  1060d6:	2636                	fld	fa2,328(sp)
  1060d8:	ada9                	j	106732 <(null)+0x236>
  1060da:	72ca                	flw	ft5,176(sp)
  1060dc:	d1564007          	flq	ft0,-747(a2) # bd15 <(null)+0x3d15>
  1060e0:	76b2                	flw	fa3,44(sp)
  1060e2:	760a                	flw	fa2,160(sp)
  1060e4:	a7b6                	fsd	fa3,456(sp)
  1060e6:	a732                	fsd	fa2,392(sp)
  1060e8:	43f5                	li	t2,29
  1060ea:	a23a                	fsd	fa4,256(sp)
  1060ec:	6521                	lui	a0,0x8
  1060ee:	9dd1                	0x9dd1
  1060f0:	6551                	lui	a0,0x14
  1060f2:	6459                	lui	s0,0x16
  1060f4:	9d9d                	0x9d9d
  1060f6:	ecc9                	bnez	s1,106190 <(null)+0xa>
  1060f8:	d3d1a037          	lui	zero,0xd3d1a
  1060fc:	ad71                	j	106798 <(null)+0x29c>
  1060fe:	eedf d121 a55f      	0xa55fd121eedf
  106104:	62092fd7          	0x62092fd7
  106108:	d1747557          	0xd1747557
  10610c:	a09a                	fsd	ft6,64(sp)
  10610e:	a5aa                	fsd	fa0,200(sp)
  106110:	d1147737          	lui	a4,0xd1147
  106114:	d114f527          	0xd114f527
  106118:	d1243597          	auipc	a1,0xd1243
  10611c:	a82d                	j	106156 <(null)+0xc>
  10611e:	9295                	srli	a3,a3,0x25
  106120:	eb91                	bnez	a5,106134 <(null)+0x14>
  106122:	a75f d3d1 aa19      	0xaa19d3d1a75f
  106128:	d121e987          	0xd121e987
  10612c:	2fd7a567          	0x2fd7a567
  106130:	62d1                	lui	t0,0x14
  106132:	d164b53f a572a0f2 	0xa572a0f2d164b53f
  10613a:	b79f d114 350f      	0x350fd114b79f
  106140:	d114                	sw	a3,32(a0)
  106142:	f47f                	0xf47f
  106144:	d124                	sw	s1,96(a0)
  106146:	a9c1                	j	106616 <(null)+0x11a>
  106148:	93cd                	srli	a5,a5,0x33
  10614a:	43f9                	li	t2,30
  10614c:	d324d717          	auipc	a4,0xd324d
  106150:	de21a697          	auipc	a3,0xde21a
  106154:	d17616a7          	0xd17616a7
  106158:	23fe                	fld	ft7,472(sp)
  10615a:	d1c1c61b          	0xd1c1c61b
  10615e:	d3d1a7af          	0xd3d1a7af
  106162:	aa05                	j	106292 <(null)+0x10c>
  106164:	d124f4e7          	0xd124f4e7
  106168:	9e16a677          	0x9e16a677
  10616c:	b19e                	fsd	ft7,224(sp)
  10616e:	e4ff                	0xe4ff
  106170:	d1d4                	sw	a3,36(a1)
  106172:	917724bf a693a44a 	0xa693a44a917724bf
  10617a:	d0d1                	beqz	s1,1060fe <(null)+0x8>
  10617c:	6321                	lui	t1,0x8
  10617e:	cf5f 2d34 60f9      	0x60f92d34cf5f
  106184:	98d9                	andi	s1,s1,-10
  106186:	3649                	jal	105d08 <(null)+0x34>
  106188:	e136                	fsw	fa3,128(sp)
  10618a:	50be0283          	lb	t0,1291(t3) # d196c50b <(null)+0xd18344fb>
  10618e:	5e3e0293          	addi	t0,t3,1507
  106192:	4c3e02e3          	beq	t3,gp,106e56 <(null)+0x40a>
  106196:	4e6e12f3          	csrrw	t0,0x4e6,t3
  10619a:	67ca                	flw	fa5,144(sp)
  10619c:	6261                	lui	tp,0x18
  10619e:	2629                	jal	1064a8 <(null)+0x80>
  1061a0:	a712                	fsd	ft4,392(sp)
