
./q-enc-half.elf:     file format elf32-littleriscv


Disassembly of section .rodata:

001061b0 <(null)-0x898>:
  1061b0:	0000                	unimp
  1061b2:	42c8                	lw	a0,4(a3)
	...
  1061bc:	0000                	unimp
  1061be:	3ff0                	fld	fa2,248(a5)
  1061c0:	999a                	add	s3,s3,t1
  1061c2:	9999                	andi	a1,a1,-26
  1061c4:	9999                	andi	a1,a1,-26
  1061c6:	3fb9                	jal	106124 <(null)+0x4>
  1061c8:	0000                	unimp
  1061ca:	0000                	unimp
  1061cc:	0000                	unimp
  1061ce:	4024                	lw	s1,64(s0)
  1061d0:	999a                	add	s3,s3,t1
  1061d2:	9999                	andi	a1,a1,-26
  1061d4:	9999                	andi	a1,a1,-26
  1061d6:	3fa9                	jal	106130 <(null)+0x10>
  1061d8:	00000007          	0x7
  1061dc:	00000003          	lb	zero,0(zero) # 0 <(null)-0x2000>
  1061e0:	0004                	0x4
  1061e2:	0000                	unimp
  1061e4:	0001                	nop
  1061e6:	0000                	unimp
  1061e8:	ffff                	0xffff
  1061ea:	ffff                	0xffff
  1061ec:	00000017          	auipc	zero,0x0
  1061f0:	000c                	0xc
  1061f2:	0000                	unimp
  1061f4:	0000002b          	0x2b
  1061f8:	0002                	c.slli64	zero
  1061fa:	0000                	unimp
  1061fc:	fffc                	fsw	fa5,124(a5)
  1061fe:	ffff                	0xffff
  106200:	0005                	c.nop	1
  106202:	0000                	unimp
  106204:	65fc                	flw	fa5,76(a1)
  106206:	0010                	0x10
  106208:	6604                	flw	fs1,8(a2)
  10620a:	0010                	0x10
  10620c:	660c                	flw	fa1,8(a2)
  10620e:	0010                	0x10
  106210:	6614                	flw	fa3,8(a2)
  106212:	0010                	0x10
  106214:	661c                	flw	fa5,8(a2)
  106216:	0010                	0x10
  106218:	6624                	flw	fs1,72(a2)
  10621a:	0010                	0x10
  10621c:	706d                	c.lui	zero,0xffffb
  10621e:	6c702033          	0x6c702033
  106222:	7961                	lui	s2,0xffff8
  106224:	7265                	lui	tp,0xffff9
  106226:	0000                	unimp
  106228:	0000                	unimp
  10622a:	0000                	unimp
  10622c:	8000                	0x8000
  10622e:	4395                	li	t2,5
  106230:	6c70                	flw	fa2,92(s0)
  106232:	7361                	lui	t1,0xffff8
  106234:	616d                	addi	sp,sp,240
  106236:	7420                	flw	fs0,104(s0)
  106238:	0076                	c.slli	zero,0x1d
  10623a:	0000                	unimp
  10623c:	0000                	unimp
  10623e:	0000                	unimp
  106240:	8000                	0x8000
  106242:	4509                	li	a0,2
  106244:	6f6e                	flw	ft10,216(sp)
  106246:	6574                	flw	fa3,76(a0)
  106248:	6f62                	flw	ft10,24(sp)
  10624a:	00006b6f          	jal	s6,10c24a <(null)+0x57fe>
  10624e:	0000                	unimp
  106250:	0000                	unimp
  106252:	0000                	unimp
  106254:	8000                	0x8000
  106256:	44a2                	lw	s1,8(sp)
  106258:	72616d73          	csrrsi	s10,0x726,2
  10625c:	7074                	flw	fa3,100(s0)
  10625e:	6f68                	flw	fa0,92(a4)
  106260:	656e                	flw	fa0,216(sp)
  106262:	0000                	unimp
  106264:	0000                	unimp
  106266:	0000                	unimp
  106268:	feb8                	fsw	fa4,120(a3)
  10626a:	43f9                	li	t2,30
  10626c:	7664                	flw	fs1,108(a2)
  10626e:	2064                	fld	fs1,192(s0)
  106270:	6c70                	flw	fa2,92(s0)
  106272:	7961                	lui	s2,0xffff8
  106274:	7265                	lui	tp,0xffff9
	...
  10627e:	4316                	lw	t1,68(sp)
  106280:	616d                	addi	sp,sp,240
  106282:	6374                	flw	fa3,68(a4)
  106284:	6568                	flw	fa0,76(a0)
  106286:	00000073          	ecall
  10628a:	0000                	unimp
  10628c:	0000                	unimp
  10628e:	0000                	unimp
  106290:	cccd                	beqz	s1,10634a <(null)+0x72>
  106292:	3e4c                	fld	fa1,184(a2)
  106294:	822a                	mv	tp,a0
  106296:	5216                	lw	tp,100(sp)
  106298:	81b6                	mv	gp,a3
  10629a:	5216                	lw	tp,100(sp)
  10629c:	81b6                	mv	gp,a3
  10629e:	5216                	lw	tp,100(sp)
  1062a0:	825a                	mv	tp,s6
  1062a2:	5216                	lw	tp,100(sp)
  1062a4:	81b6                	mv	gp,a3
  1062a6:	5216                	lw	tp,100(sp)
  1062a8:	81b6                	mv	gp,a3
  1062aa:	5216                	lw	tp,100(sp)
  1062ac:	81b6                	mv	gp,a3
  1062ae:	5216                	lw	tp,100(sp)
  1062b0:	81b6                	mv	gp,a3
  1062b2:	5216                	lw	tp,100(sp)
  1062b4:	81b6                	mv	gp,a3
  1062b6:	5216                	lw	tp,100(sp)
  1062b8:	81b6                	mv	gp,a3
  1062ba:	5216                	lw	tp,100(sp)
  1062bc:	81b6                	mv	gp,a3
  1062be:	5216                	lw	tp,100(sp)
  1062c0:	824a                	mv	tp,s2
  1062c2:	5216                	lw	tp,100(sp)
  1062c4:	81b6                	mv	gp,a3
  1062c6:	5216                	lw	tp,100(sp)
  1062c8:	827a                	mv	tp,t5
  1062ca:	5216                	lw	tp,100(sp)
  1062cc:	81b6                	mv	gp,a3
  1062ce:	5216                	lw	tp,100(sp)
  1062d0:	81b6                	mv	gp,a3
  1062d2:	5216                	lw	tp,100(sp)
  1062d4:	826a                	mv	tp,s10
  1062d6:	5216                	lw	tp,100(sp)
  1062d8:	8340                	0x8340
  1062da:	5216                	lw	tp,100(sp)
  1062dc:	82b6                	mv	t0,a3
  1062de:	5216                	lw	tp,100(sp)
  1062e0:	82b6                	mv	t0,a3
  1062e2:	5216                	lw	tp,100(sp)
  1062e4:	82b6                	mv	t0,a3
  1062e6:	5216                	lw	tp,100(sp)
  1062e8:	82b6                	mv	t0,a3
  1062ea:	5216                	lw	tp,100(sp)
  1062ec:	82b6                	mv	t0,a3
  1062ee:	5216                	lw	tp,100(sp)
  1062f0:	82b6                	mv	t0,a3
  1062f2:	5216                	lw	tp,100(sp)
  1062f4:	82b6                	mv	t0,a3
  1062f6:	5216                	lw	tp,100(sp)
  1062f8:	82b6                	mv	t0,a3
  1062fa:	5216                	lw	tp,100(sp)
  1062fc:	82b6                	mv	t0,a3
  1062fe:	5216                	lw	tp,100(sp)
  106300:	82b6                	mv	t0,a3
  106302:	5216                	lw	tp,100(sp)
  106304:	82b6                	mv	t0,a3
  106306:	5216                	lw	tp,100(sp)
  106308:	82b6                	mv	t0,a3
  10630a:	5216                	lw	tp,100(sp)
  10630c:	82b6                	mv	t0,a3
  10630e:	5216                	lw	tp,100(sp)
  106310:	82b6                	mv	t0,a3
  106312:	5216                	lw	tp,100(sp)
  106314:	82b6                	mv	t0,a3
  106316:	5216                	lw	tp,100(sp)
  106318:	82b6                	mv	t0,a3
  10631a:	5216                	lw	tp,100(sp)
  10631c:	82b6                	mv	t0,a3
  10631e:	5216                	lw	tp,100(sp)
  106320:	82b6                	mv	t0,a3
  106322:	5216                	lw	tp,100(sp)
  106324:	82b6                	mv	t0,a3
  106326:	5216                	lw	tp,100(sp)
  106328:	82b6                	mv	t0,a3
  10632a:	5216                	lw	tp,100(sp)
  10632c:	82b6                	mv	t0,a3
  10632e:	5216                	lw	tp,100(sp)
  106330:	82b6                	mv	t0,a3
  106332:	5216                	lw	tp,100(sp)
  106334:	82b6                	mv	t0,a3
  106336:	5216                	lw	tp,100(sp)
  106338:	82b6                	mv	t0,a3
  10633a:	5216                	lw	tp,100(sp)
  10633c:	82b6                	mv	t0,a3
  10633e:	5216                	lw	tp,100(sp)
  106340:	82b6                	mv	t0,a3
  106342:	5216                	lw	tp,100(sp)
  106344:	82b6                	mv	t0,a3
  106346:	5216                	lw	tp,100(sp)
  106348:	82b6                	mv	t0,a3
  10634a:	5216                	lw	tp,100(sp)
  10634c:	82b6                	mv	t0,a3
  10634e:	5216                	lw	tp,100(sp)
  106350:	82b6                	mv	t0,a3
  106352:	5216                	lw	tp,100(sp)
  106354:	82b6                	mv	t0,a3
  106356:	5216                	lw	tp,100(sp)
  106358:	8282                	jr	t0
  10635a:	5216                	lw	tp,100(sp)
  10635c:	82b6                	mv	t0,a3
  10635e:	5216                	lw	tp,100(sp)
  106360:	8282                	jr	t0
  106362:	5216                	lw	tp,100(sp)
  106364:	82b6                	mv	t0,a3
  106366:	5216                	lw	tp,100(sp)
  106368:	82b6                	mv	t0,a3
  10636a:	5216                	lw	tp,100(sp)
  10636c:	82b6                	mv	t0,a3
  10636e:	5216                	lw	tp,100(sp)
  106370:	82b6                	mv	t0,a3
  106372:	5216                	lw	tp,100(sp)
  106374:	82b6                	mv	t0,a3
  106376:	5216                	lw	tp,100(sp)
  106378:	82b6                	mv	t0,a3
  10637a:	5216                	lw	tp,100(sp)
  10637c:	82b6                	mv	t0,a3
  10637e:	5216                	lw	tp,100(sp)
  106380:	82b6                	mv	t0,a3
  106382:	5216                	lw	tp,100(sp)
  106384:	82b6                	mv	t0,a3
  106386:	5216                	lw	tp,100(sp)
  106388:	82b6                	mv	t0,a3
  10638a:	5216                	lw	tp,100(sp)
  10638c:	82b6                	mv	t0,a3
  10638e:	5216                	lw	tp,100(sp)
  106390:	82b6                	mv	t0,a3
  106392:	5216                	lw	tp,100(sp)
  106394:	82b6                	mv	t0,a3
  106396:	5216                	lw	tp,100(sp)
  106398:	82b6                	mv	t0,a3
  10639a:	5216                	lw	tp,100(sp)
  10639c:	82b6                	mv	t0,a3
  10639e:	5216                	lw	tp,100(sp)
  1063a0:	82b6                	mv	t0,a3
  1063a2:	5216                	lw	tp,100(sp)
  1063a4:	82ca                	mv	t0,s2
  1063a6:	5216                	lw	tp,100(sp)
  1063a8:	82b6                	mv	t0,a3
  1063aa:	5216                	lw	tp,100(sp)
  1063ac:	82b6                	mv	t0,a3
  1063ae:	5216                	lw	tp,100(sp)
  1063b0:	82b6                	mv	t0,a3
  1063b2:	5216                	lw	tp,100(sp)
  1063b4:	82b6                	mv	t0,a3
  1063b6:	5216                	lw	tp,100(sp)
  1063b8:	82b6                	mv	t0,a3
  1063ba:	5216                	lw	tp,100(sp)
  1063bc:	82b6                	mv	t0,a3
  1063be:	5216                	lw	tp,100(sp)
  1063c0:	82b6                	mv	t0,a3
  1063c2:	5216                	lw	tp,100(sp)
  1063c4:	82b6                	mv	t0,a3
  1063c6:	5216                	lw	tp,100(sp)
  1063c8:	82b6                	mv	t0,a3
  1063ca:	5216                	lw	tp,100(sp)
  1063cc:	82b6                	mv	t0,a3
  1063ce:	5216                	lw	tp,100(sp)
  1063d0:	9b26                	add	s6,s6,s1
  1063d2:	5216                	lw	tp,100(sp)
  1063d4:	8298                	0x8298
  1063d6:	5216                	lw	tp,100(sp)
  1063d8:	8282                	jr	t0
  1063da:	5216                	lw	tp,100(sp)
  1063dc:	8302                	jr	t1
  1063de:	5216                	lw	tp,100(sp)
  1063e0:	8282                	jr	t0
  1063e2:	5216                	lw	tp,100(sp)
  1063e4:	82b6                	mv	t0,a3
  1063e6:	5216                	lw	tp,100(sp)
  1063e8:	8298                	0x8298
  1063ea:	5216                	lw	tp,100(sp)
  1063ec:	82b6                	mv	t0,a3
  1063ee:	5216                	lw	tp,100(sp)
  1063f0:	82b6                	mv	t0,a3
  1063f2:	5216                	lw	tp,100(sp)
  1063f4:	82b6                	mv	t0,a3
  1063f6:	5216                	lw	tp,100(sp)
  1063f8:	82b6                	mv	t0,a3
  1063fa:	5216                	lw	tp,100(sp)
  1063fc:	835e                	mv	t1,s7
  1063fe:	5216                	lw	tp,100(sp)
  106400:	9c12                	add	s8,s8,tp
  106402:	5216                	lw	tp,100(sp)
  106404:	9c06                	add	s8,s8,ra
  106406:	5216                	lw	tp,100(sp)
  106408:	82b6                	mv	t0,a3
  10640a:	5216                	lw	tp,100(sp)
  10640c:	82b6                	mv	t0,a3
  10640e:	5216                	lw	tp,100(sp)
  106410:	9bfa                	add	s7,s7,t5
  106412:	5216                	lw	tp,100(sp)
  106414:	82b6                	mv	t0,a3
  106416:	5216                	lw	tp,100(sp)
  106418:	9b1a                	add	s6,s6,t1
  10641a:	5216                	lw	tp,100(sp)
  10641c:	82b6                	mv	t0,a3
  10641e:	5216                	lw	tp,100(sp)
  106420:	9b0c                	0x9b0c
  106422:	5216                	lw	tp,100(sp)
  106424:	82ce                	mv	t0,s3
  106426:	5216                	lw	tp,100(sp)
  106428:	8960                	0x8960
  10642a:	5011                	c.li	zero,-28
  10642c:	907d                	srli	s0,s0,0x3f
  10642e:	5115                	li	sp,-27
  106430:	937e                	add	t1,t1,t6
  106432:	591f 8074 5f02      	0x5f028074591f
  106438:	9e7f                	0x9e7f
  10643a:	401a                	0x401a
  10643c:	827a                	mv	tp,t5
  10643e:	5e01                	li	t3,-32
  106440:	9975                	andi	a0,a0,-3
  106442:	8d70540f          	0x8d70540f
  106446:	5c09                	li	s8,-30
  106448:	a7a2                	fsd	fs0,456(sp)
  10644a:	5216                	lw	tp,100(sp)
  10644c:	a7a2                	fsd	fs0,456(sp)
  10644e:	5216                	lw	tp,100(sp)
  106450:	a7ba                	fsd	fa4,456(sp)
  106452:	5216                	lw	tp,100(sp)
  106454:	a7dc                	fsd	fa5,136(a5)
  106456:	5216                	lw	tp,100(sp)
  106458:	a7dc                	fsd	fa5,136(a5)
  10645a:	5216                	lw	tp,100(sp)
  10645c:	b808                	fsd	fa0,48(s0)
  10645e:	5216                	lw	tp,100(sp)
  106460:	a7ba                	fsd	fa4,456(sp)
  106462:	5216                	lw	tp,100(sp)
  106464:	a7dc                	fsd	fa5,136(a5)
  106466:	5216                	lw	tp,100(sp)
  106468:	b808                	fsd	fa0,48(s0)
  10646a:	5216                	lw	tp,100(sp)
  10646c:	a7dc                	fsd	fa5,136(a5)
  10646e:	5216                	lw	tp,100(sp)
  106470:	a7ba                	fsd	fa4,456(sp)
  106472:	5216                	lw	tp,100(sp)
  106474:	a7da                	fsd	fs6,456(sp)
  106476:	5216                	lw	tp,100(sp)
  106478:	a7da                	fsd	fs6,456(sp)
  10647a:	5216                	lw	tp,100(sp)
  10647c:	a7da                	fsd	fs6,456(sp)
  10647e:	5216                	lw	tp,100(sp)
  106480:	b808                	fsd	fa0,48(s0)
  106482:	5216                	lw	tp,100(sp)
  106484:	cc94                	sw	a3,24(s1)
  106486:	5216                	lw	tp,100(sp)
  106488:	cc94                	sw	a3,24(s1)
  10648a:	5216                	lw	tp,100(sp)
  10648c:	cc92                	sw	tp,88(sp)
  10648e:	5216                	lw	tp,100(sp)
  106490:	cca6                	sw	s1,88(sp)
  106492:	5216                	lw	tp,100(sp)
  106494:	cca6                	sw	s1,88(sp)
  106496:	5216                	lw	tp,100(sp)
  106498:	ce18                	sw	a4,24(a2)
  10649a:	5216                	lw	tp,100(sp)
  10649c:	cc92                	sw	tp,88(sp)
  10649e:	5216                	lw	tp,100(sp)
  1064a0:	cca6                	sw	s1,88(sp)
  1064a2:	5216                	lw	tp,100(sp)
  1064a4:	ce18                	sw	a4,24(a2)
  1064a6:	5216                	lw	tp,100(sp)
  1064a8:	cca6                	sw	s1,88(sp)
  1064aa:	5216                	lw	tp,100(sp)
  1064ac:	cc92                	sw	tp,88(sp)
  1064ae:	5216                	lw	tp,100(sp)
  1064b0:	cca4                	sw	s1,88(s1)
  1064b2:	5216                	lw	tp,100(sp)
  1064b4:	cca4                	sw	s1,88(s1)
  1064b6:	5216                	lw	tp,100(sp)
  1064b8:	cca4                	sw	s1,88(s1)
  1064ba:	5216                	lw	tp,100(sp)
  1064bc:	ce18                	sw	a4,24(a2)
  1064be:	5216                	lw	tp,100(sp)
  1064c0:	d0d2                	sw	s4,96(sp)
  1064c2:	5216                	lw	tp,100(sp)
  1064c4:	d0d2                	sw	s4,96(sp)
  1064c6:	5216                	lw	tp,100(sp)
  1064c8:	d0aa                	sw	a0,96(sp)
  1064ca:	5216                	lw	tp,100(sp)
  1064cc:	d0ce                	sw	s3,96(sp)
  1064ce:	5216                	lw	tp,100(sp)
  1064d0:	d0ce                	sw	s3,96(sp)
  1064d2:	5216                	lw	tp,100(sp)
  1064d4:	d170                	sw	a2,100(a0)
  1064d6:	5216                	lw	tp,100(sp)
  1064d8:	d0aa                	sw	a0,96(sp)
  1064da:	5216                	lw	tp,100(sp)
  1064dc:	d0ce                	sw	s3,96(sp)
  1064de:	5216                	lw	tp,100(sp)
  1064e0:	d170                	sw	a2,100(a0)
  1064e2:	5216                	lw	tp,100(sp)
  1064e4:	d0ce                	sw	s3,96(sp)
  1064e6:	5216                	lw	tp,100(sp)
  1064e8:	d0aa                	sw	a0,96(sp)
  1064ea:	5216                	lw	tp,100(sp)
  1064ec:	d0cc                	sw	a1,36(s1)
  1064ee:	5216                	lw	tp,100(sp)
  1064f0:	d0cc                	sw	a1,36(s1)
  1064f2:	5216                	lw	tp,100(sp)
  1064f4:	d0cc                	sw	a1,36(s1)
  1064f6:	5216                	lw	tp,100(sp)
  1064f8:	d170                	sw	a2,100(a0)
  1064fa:	5216                	lw	tp,100(sp)
  1064fc:	8960                	0x8960
  1064fe:	5004                	lw	s1,32(s0)
  106500:	51058b63          	beq	a1,a6,106a16 <(null)+0x1d2>
  106504:	8c64                	0x8c64
  106506:	5602                	lw	a2,32(sp)
  106508:	8c64                	0x8c64
  10650a:	5602                	lw	a2,32(sp)
  10650c:	8d65                	and	a0,a0,s1
  10650e:	8d655703          	lhu	a4,-1834(a0)
  106512:	8d655703          	lhu	a4,-1834(a0)
  106516:	8d655703          	lhu	a4,-1834(a0)
  10651a:	8e665703          	lhu	a4,-1818(a2)
  10651e:	5400                	lw	s0,40(s0)
  106520:	8e66                	mv	t3,s9
  106522:	5400                	lw	s0,40(s0)
  106524:	8e66                	mv	t3,s9
  106526:	5400                	lw	s0,40(s0)
  106528:	8e66                	mv	t3,s9
  10652a:	5400                	lw	s0,40(s0)
  10652c:	8e66                	mv	t3,s9
  10652e:	5400                	lw	s0,40(s0)
  106530:	8e66                	mv	t3,s9
  106532:	5400                	lw	s0,40(s0)
  106534:	8e66                	mv	t3,s9
  106536:	5400                	lw	s0,40(s0)
  106538:	8e66                	mv	t3,s9
  10653a:	5400                	lw	s0,40(s0)
  10653c:	55018f67          	jalr	t5,1360(gp)
  106540:	55018f67          	jalr	t5,1360(gp)
  106544:	55018f67          	jalr	t5,1360(gp)
  106548:	55018f67          	jalr	t5,1360(gp)
  10654c:	55018f67          	jalr	t5,1360(gp)
  106550:	55018f67          	jalr	t5,1360(gp)
  106554:	55018f67          	jalr	t5,1360(gp)
  106558:	55018f67          	jalr	t5,1360(gp)
  10655c:	55018f67          	jalr	t5,1360(gp)
  106560:	55018f67          	jalr	t5,1360(gp)
  106564:	55018f67          	jalr	t5,1360(gp)
  106568:	55018f67          	jalr	t5,1360(gp)
  10656c:	55018f67          	jalr	t5,1360(gp)
  106570:	55018f67          	jalr	t5,1360(gp)
  106574:	55018f67          	jalr	t5,1360(gp)
  106578:	55018f67          	jalr	t5,1360(gp)
  10657c:	8068                	0x8068
  10657e:	5a0e                	lw	s4,224(sp)
  106580:	8068                	0x8068
  106582:	5a0e                	lw	s4,224(sp)
  106584:	8068                	0x8068
  106586:	5a0e                	lw	s4,224(sp)
  106588:	8068                	0x8068
  10658a:	5a0e                	lw	s4,224(sp)
  10658c:	8068                	0x8068
  10658e:	5a0e                	lw	s4,224(sp)
  106590:	8068                	0x8068
  106592:	5a0e                	lw	s4,224(sp)
  106594:	8068                	0x8068
  106596:	5a0e                	lw	s4,224(sp)
  106598:	8068                	0x8068
  10659a:	5a0e                	lw	s4,224(sp)
  10659c:	8068                	0x8068
  10659e:	5a0e                	lw	s4,224(sp)
  1065a0:	8068                	0x8068
  1065a2:	5a0e                	lw	s4,224(sp)
  1065a4:	8068                	0x8068
  1065a6:	5a0e                	lw	s4,224(sp)
  1065a8:	8068                	0x8068
  1065aa:	5a0e                	lw	s4,224(sp)
  1065ac:	8068                	0x8068
  1065ae:	5a0e                	lw	s4,224(sp)
  1065b0:	8068                	0x8068
  1065b2:	5a0e                	lw	s4,224(sp)
  1065b4:	8068                	0x8068
  1065b6:	5a0e                	lw	s4,224(sp)
  1065b8:	8068                	0x8068
  1065ba:	5a0e                	lw	s4,224(sp)
  1065bc:	8068                	0x8068
  1065be:	5a0e                	lw	s4,224(sp)
  1065c0:	8068                	0x8068
  1065c2:	5a0e                	lw	s4,224(sp)
  1065c4:	8068                	0x8068
  1065c6:	5a0e                	lw	s4,224(sp)
  1065c8:	8068                	0x8068
  1065ca:	5a0e                	lw	s4,224(sp)
  1065cc:	8068                	0x8068
  1065ce:	5a0e                	lw	s4,224(sp)
  1065d0:	8068                	0x8068
  1065d2:	5a0e                	lw	s4,224(sp)
  1065d4:	8068                	0x8068
  1065d6:	5a0e                	lw	s4,224(sp)
  1065d8:	8068                	0x8068
  1065da:	5a0e                	lw	s4,224(sp)
  1065dc:	8068                	0x8068
  1065de:	5a0e                	lw	s4,224(sp)
  1065e0:	8068                	0x8068
  1065e2:	5a0e                	lw	s4,224(sp)
  1065e4:	8068                	0x8068
  1065e6:	5a0e                	lw	s4,224(sp)
  1065e8:	8068                	0x8068
  1065ea:	5a0e                	lw	s4,224(sp)
  1065ec:	8068                	0x8068
  1065ee:	5a0e                	lw	s4,224(sp)
  1065f0:	8068                	0x8068
  1065f2:	5a0e                	lw	s4,224(sp)
  1065f4:	8068                	0x8068
  1065f6:	5a0e                	lw	s4,224(sp)
  1065f8:	8068                	0x8068
  1065fa:	5a0e                	lw	s4,224(sp)
  1065fc:	e73a                	fsw	fa4,140(sp)
  1065fe:	2074                	fld	fa3,192(s0)
  106600:	5206880f          	0x5206880f
  106604:	e421                	bnez	s0,10664c <(null)+0x150>
  106606:	88602a63          	0x88602a63
  10660a:	5206                	lw	tp,96(sp)
  10660c:	3b6aed23          	0x3b6aed23
  106610:	ed0e                	fsw	ft3,152(sp)
  106612:	5206                	lw	tp,96(sp)
  106614:	e122                	fsw	fs0,128(sp)
  106616:	3e6a                	fld	ft8,184(sp)
  106618:	8860                	0x8860
  10661a:	5206                	lw	tp,96(sp)
  10661c:	e726                	fsw	fs1,140(sp)
  10661e:	3774                	fld	fa3,232(a4)
  106620:	5206fc13          	andi	s8,a3,1312
  106624:	ed24                	fsw	fs1,88(a0)
  106626:	267e                	fld	fa2,472(sp)
  106628:	fa05                	bnez	a2,106558 <(null)+0x5c>
  10662a:	5206                	lw	tp,96(sp)
  10662c:	ec45                	bnez	s0,1066e4 <(null)+0x1e8>
  10662e:	2e26                	fld	ft8,72(sp)
  106630:	8840                	0x8840
  106632:	5206                	lw	tp,96(sp)
  106634:	a24a                	fsd	fs2,256(sp)
  106636:	722c                	flw	fa1,96(a2)
  106638:	e629                	bnez	a2,106682 <(null)+0x186>
  10663a:	3772                	fld	fa4,312(sp)
  10663c:	7274ed07          	0x7274ed07
  106640:	2674e713          	ori	a4,s1,615
  106644:	e609                	bnez	a2,10664e <(null)+0x152>
  106646:	7c61                	lui	s8,0xffff8
  106648:	a64e                	fsd	fs3,264(sp)
  10664a:	5206                	lw	tp,96(sp)
  10664c:	fb45                	bnez	a4,1065fc <(null)+0x100>
  10664e:	2e26                	fld	ft8,72(sp)
  106650:	8840                	0x8840
  106652:	5206                	lw	tp,96(sp)
  106654:	a24a                	fsd	fs2,256(sp)
  106656:	722c                	flw	fa1,96(a2)
  106658:	3b74fc33          	0x3b74fc33
  10665c:	ef0e                	fsw	ft3,156(sp)
  10665e:	2126                	fld	ft2,72(sp)
  106660:	3b72fa0f          	0x3b72fa0f
  106664:	ef0e                	fsw	ft3,156(sp)
  106666:	7c28                	flw	fa0,120(s0)
  106668:	884e                	mv	a6,s3
  10666a:	5206                	lw	tp,96(sp)
  10666c:	2076a83b          	0x2076a83b
  106670:	3173ec0f          	0x3173ec0f
  106674:	b214                	fsd	fa3,32(a2)
  106676:	7726                	flw	fa4,104(sp)
  106678:	720fa813          	slti	a6,t6,1824
  10667c:	fa10                	fsw	fa2,48(a2)
  10667e:	b205316f          	jal	sp,5999e <(null)+0x39996>
  106682:	7626                	flw	fa2,104(sp)
  106684:	a645                	j	106a24 <(null)+0x1e0>
  106686:	3434                	fld	fa3,104(s0)
  106688:	d540                	sw	s0,44(a0)
  10668a:	520c                	lw	a1,32(a2)
  10668c:	a54d                	j	106d2e <(null)+0x2e2>
  10668e:	5206                	lw	tp,96(sp)
  106690:	a24a                	fsd	fs2,256(sp)
  106692:	722c                	flw	fa1,96(a2)
  106694:	2774fc33          	0x2774fc33
  106698:	2126fc03          	0x2126fc03
  10669c:	3b72fa0f          	0x3b72fa0f
  1066a0:	ef0e                	fsw	ft3,156(sp)
  1066a2:	7a26                	flw	fs4,104(sp)
  1066a4:	fa10                	fsw	fa2,48(a2)
  1066a6:	a105316f          	jal	sp,598b6 <(null)+0x398ae>
  1066aa:	7c28                	flw	fa0,120(s0)
  1066ac:	884e                	mv	a6,s3
  1066ae:	5206                	lw	tp,96(sp)
  1066b0:	a24a                	fsd	fs2,256(sp)
  1066b2:	722c                	flw	fa1,96(a2)
  1066b4:	2774fc33          	0x2774fc33
  1066b8:	2126fc03          	0x2126fc03
  1066bc:	3b72fa0f          	0x3b72fa0f
  1066c0:	ef0e                	fsw	ft3,156(sp)
  1066c2:	7a26                	flw	fs4,104(sp)
  1066c4:	fa10                	fsw	fa2,48(a2)
  1066c6:	3669                	jal	106250 <(null)+0xca>
  1066c8:	eb15                	bnez	a4,1066fc <(null)+0x200>
  1066ca:	7b72                	flw	fs6,60(sp)
  1066cc:	a64e                	fsd	fs3,264(sp)
  1066ce:	5228                	lw	a0,96(a2)
  1066d0:	b950                	fsd	fa2,176(a0)
  1066d2:	6134                	flw	fa3,64(a0)
  1066d4:	bd54                	fsd	fa3,184(a0)
  1066d6:	6530                	flw	fa2,72(a0)
  1066d8:	b158                	fsd	fa4,160(a0)
  1066da:	cc231047          	0xcc231047
  1066de:	88601443          	fmadd.s	fs0,ft0,ft6,fa7,rtz
  1066e2:	5206                	lw	tp,96(sp)
  1066e4:	b950                	fsd	fa2,176(a0)
  1066e6:	6134                	flw	fa3,64(a0)
  1066e8:	bd54                	fsd	fa3,184(a0)
  1066ea:	6530                	flw	fa2,72(a0)
  1066ec:	b158                	fsd	fa4,160(a0)
  1066ee:	ec033067          	0xec033067
  1066f2:	88603463          	0x88603463
  1066f6:	5206                	lw	tp,96(sp)
  1066f8:	c65c                	sw	a5,12(a2)
  1066fa:	b62c1e53          	0xb62c1e53
  1066fe:	5206                	lw	tp,96(sp)
  106700:	8860                	0x8860
  106702:	5206                	lw	tp,96(sp)
  106704:	8860                	0x8860
  106706:	5206                	lw	tp,96(sp)
  106708:	8060                	0x8060
  10670a:	c178                	sw	a4,68(a0)
  10670c:	12329457          	0x12329457
  106710:	8860                	0x8860
  106712:	5206                	lw	tp,96(sp)
  106714:	8860                	0x8860
  106716:	5206                	lw	tp,96(sp)
  106718:	c860                	sw	s0,84(s0)
  10671a:	0065                	c.nop	25
  10671c:	4edf 1236 8860      	0x886012364edf
  106722:	5206                	lw	tp,96(sp)
  106724:	8860                	0x8860
  106726:	5206                	lw	tp,96(sp)
  106728:	8860                	0x8860
  10672a:	e3ac13ef          	jal	t2,c7d64 <(null)+0xa7d5c>
  10672e:	8860122b          	0x8860122b
  106732:	5206                	lw	tp,96(sp)
  106734:	8860                	0x8860
  106736:	5206                	lw	tp,96(sp)
  106738:	8860                	0x8860
  10673a:	5206                	lw	tp,96(sp)
  10673c:	7c60                	flw	fs0,124(s0)
  10673e:	120e                	slli	tp,tp,0x23
  106740:	8860                	0x8860
  106742:	5206                	lw	tp,96(sp)
  106744:	8860                	0x8860
  106746:	5206                	lw	tp,96(sp)
  106748:	8860                	0x8860
  10674a:	5206                	lw	tp,96(sp)
  10674c:	b0e0                	fsd	fs0,224(s1)
  10674e:	120a                	slli	tp,tp,0x22
  106750:	8860                	0x8860
  106752:	5206                	lw	tp,96(sp)
  106754:	8860                	0x8860
  106756:	5206                	lw	tp,96(sp)
  106758:	8860                	0x8860
  10675a:	5206                	lw	tp,96(sp)
  10675c:	0ec0                	addi	s0,sp,852
  10675e:	1209                	addi	tp,tp,-30
  106760:	8860                	0x8860
  106762:	5206                	lw	tp,96(sp)
  106764:	8860                	0x8860
  106766:	5206                	lw	tp,96(sp)
  106768:	8860                	0x8860
  10676a:	5206                	lw	tp,96(sp)
  10676c:	6028                	flw	fa0,64(s0)
  10676e:	1214                	addi	a3,sp,288
  106770:	8860                	0x8860
  106772:	5206                	lw	tp,96(sp)
  106774:	8860                	0x8860
  106776:	5206                	lw	tp,96(sp)
  106778:	8860                	0x8860
  10677a:	5206                	lw	tp,96(sp)
  10677c:	b94d                	j	10642e <(null)+0x6>
  10677e:	1210                	addi	a2,sp,288
  106780:	8860                	0x8860
  106782:	5206                	lw	tp,96(sp)
  106784:	8860                	0x8860
  106786:	5206                	lw	tp,96(sp)
  106788:	8860                	0x8860
  10678a:	1206                	slli	tp,tp,0x21
  10678c:	f518                	fsw	fa4,40(a0)
  10678e:	121f 8860 5206      	0x52068860121f
  106794:	8860                	0x8860
  106796:	5206                	lw	tp,96(sp)
  106798:	8860                	0x8860
  10679a:	0206                	slli	tp,tp,0x1
  10679c:	54b6                	lw	s1,108(sp)
  10679e:	121a                	slli	tp,tp,0x26
  1067a0:	8860                	0x8860
  1067a2:	5206                	lw	tp,96(sp)
  1067a4:	8860                	0x8860
  1067a6:	5206                	lw	tp,96(sp)
  1067a8:	8860                	0x8860
  1067aa:	a006                	fsd	ft1,0(sp)
  1067ac:	a265                	j	106954 <(null)+0x110>
  1067ae:	1226                	slli	tp,tp,0x29
  1067b0:	8860                	0x8860
  1067b2:	5206                	lw	tp,96(sp)
  1067b4:	8860                	0x8860
  1067b6:	5206                	lw	tp,96(sp)
  1067b8:	8860                	0x8860
  1067ba:	3c86                	fld	fs9,96(sp)
  1067bc:	1225fce7          	0x1225fce7
  1067c0:	8860                	0x8860
  1067c2:	5206                	lw	tp,96(sp)
  1067c4:	8860                	0x8860
  1067c6:	5206                	lw	tp,96(sp)
  1067c8:	8860                	0x8860
  1067ca:	1826                	slli	a6,a6,0x29
  1067cc:	59c9                	li	s3,-14
  1067ce:	1220                	addi	s0,sp,296
  1067d0:	8860                	0x8860
  1067d2:	5206                	lw	tp,96(sp)
  1067d4:	8860                	0x8860
  1067d6:	5206                	lw	tp,96(sp)
  1067d8:	8860                	0x8860
  1067da:	9c52                	add	s8,s8,s4
  1067dc:	ab69                	j	106d76 <(null)+0x32a>
  1067de:	122c                	addi	a1,sp,296
  1067e0:	d025                	beqz	s0,106740 <(null)+0x244>
  1067e2:	1745                	addi	a4,a4,-15
  1067e4:	dc30                	sw	a2,120(s0)
  1067e6:	a92e1d4f          	fnmadd.s	fs10,ft8,fs2,fs5,rtz
  1067ea:	886a7327          	0x886a7327
  1067ee:	5206                	lw	tp,96(sp)
  1067f0:	b55d                	j	106696 <(null)+0x19a>
  1067f2:	b55d6f3b          	0xb55d6f3b
  1067f6:	b55d6f3b          	0xb55d6f3b
  1067fa:	886a6f3b          	0x886a6f3b
  1067fe:	5206                	lw	tp,96(sp)
  106800:	cd2d                	beqz	a0,10687a <(null)+0x36>
  106802:	1156                	slli	sp,sp,0x35
  106804:	b85a                	fsd	fs6,48(sp)
  106806:	777e                	flw	fa4,252(sp)
  106808:	b050                	fsd	fa2,160(s0)
  10680a:	7e7e                	flw	ft8,252(sp)
  10680c:	cb40                	sw	s0,20(a4)
  10680e:	cd330747          	0xcd330747
  106812:	623c                	flw	fa5,64(a2)
  106814:	ad18                	fsd	fa4,24(a0)
  106816:	6a36                	flw	fs4,76(sp)
  106818:	a418                	fsd	fa4,8(s0)
  10681a:	1f26                	slli	t5,t5,0x29
  10681c:	de34                	sw	a3,120(a2)
  10681e:	b85a1e47          	fmsub.s	ft8,fs4,ft5,fs7,rtz
  106822:	777e                	flw	fa4,252(sp)
  106824:	b050                	fsd	fa2,160(s0)
  106826:	587e                	lw	a6,252(sp)
  106828:	8860                	0x8860
  10682a:	5206                	lw	tp,96(sp)
  10682c:	c134                	sw	a3,64(a0)
  10682e:	a832174b          	fnmsub.s	fa4,ft4,ft3,fs5,rtz
  106832:	cd230a43          	0xcd230a43
  106836:	0656                	slli	a2,a2,0x15
  106838:	c729                	beqz	a4,106882 <(null)+0x3e>
  10683a:	7348                	flw	fa0,36(a4)
  10683c:	a941                	j	106ccc <(null)+0x280>
  10683e:	520c                	lw	a1,32(a2)
